
/home/binhkieudo/Workspace/PhDThesis/NewFramework/framework/software/MatMul_Strassen/build/main.elf:     file format elf64-littleriscv


Disassembly of section .text:

0000000080000000 <_prog_start>:
  .option norvc
  .globl _thread0_entry
  .globl _prog_start

_prog_start:
  li a0, THREAD_QUEUE_ADDR
    80000000:	0090051b          	addiw	a0,zero,9
    80000004:	01c51513          	slli	a0,a0,0x1c
  li t0, 0
    80000008:	00000293          	li	t0,0
  amoswap.w t0, t0, (a0)
    8000000c:	085522af          	amoswap.w	t0,t0,(a0)
  csrr s0, mhartid
    80000010:	f1402473          	csrr	s0,mhartid
  csrw mie, zero
    80000014:	30401073          	csrw	mie,zero
  beq s0, zero, _main
    80000018:	22040063          	beqz	s0,80000238 <_main>

000000008000001c <_thread_end>:
_thread_end:
  csrr s0, mhartid
    8000001c:	f1402473          	csrr	s0,mhartid

0000000080000020 <__clear_flag1>:
  // Ensure that you the interrupt flag is clear before sleep
# __clear_flag0: // Core 0 does not enter this way
#   li t0, 0
#   bne s0, t0, __clear_flag1
__clear_flag1:
  li t0, 1
    80000020:	00100293          	li	t0,1
  bne s0, t0, __clear_flag2
    80000024:	00541a63          	bne	s0,t0,80000038 <__clear_flag2>
  li s0, (CLINT_CTRL_ADDR + CLINT_MSIP1)
    80000028:	02000437          	lui	s0,0x2000
    8000002c:	0044041b          	addiw	s0,s0,4 # 2000004 <_prog_start-0x7dfffffc>
  amoswap.w t0, zero, (s0)
    80000030:	080422af          	amoswap.w	t0,zero,(s0)
  j __core_sleep
    80000034:	0880006f          	j	800000bc <__core_sleep>

0000000080000038 <__clear_flag2>:
__clear_flag2:
  li t0, 2
    80000038:	00200293          	li	t0,2
  bne s0, t0, __clear_flag3
    8000003c:	00541a63          	bne	s0,t0,80000050 <__clear_flag3>
  li s0, (CLINT_CTRL_ADDR + CLINT_MSIP2)
    80000040:	02000437          	lui	s0,0x2000
    80000044:	0084041b          	addiw	s0,s0,8 # 2000008 <_prog_start-0x7dfffff8>
  amoswap.w t0, zero, (s0)
    80000048:	080422af          	amoswap.w	t0,zero,(s0)
  j __core_sleep
    8000004c:	0700006f          	j	800000bc <__core_sleep>

0000000080000050 <__clear_flag3>:
__clear_flag3:
  li t0, 3
    80000050:	00300293          	li	t0,3
  bne s0, t0, __clear_flag4
    80000054:	00541a63          	bne	s0,t0,80000068 <__clear_flag4>
  li s0, (CLINT_CTRL_ADDR + CLINT_MSIP3)
    80000058:	02000437          	lui	s0,0x2000
    8000005c:	00c4041b          	addiw	s0,s0,12 # 200000c <_prog_start-0x7dfffff4>
  amoswap.w t0, zero, (s0)
    80000060:	080422af          	amoswap.w	t0,zero,(s0)
  j __core_sleep
    80000064:	0580006f          	j	800000bc <__core_sleep>

0000000080000068 <__clear_flag4>:
__clear_flag4:
  li t0, 4
    80000068:	00400293          	li	t0,4
  bne s0, t0, __clear_flag5
    8000006c:	00541a63          	bne	s0,t0,80000080 <__clear_flag5>
  li s0, (CLINT_CTRL_ADDR + CLINT_MSIP4)
    80000070:	02000437          	lui	s0,0x2000
    80000074:	0104041b          	addiw	s0,s0,16 # 2000010 <_prog_start-0x7dfffff0>
  amoswap.w t0, zero, (s0)
    80000078:	080422af          	amoswap.w	t0,zero,(s0)
  j __core_sleep
    8000007c:	0400006f          	j	800000bc <__core_sleep>

0000000080000080 <__clear_flag5>:
__clear_flag5:
  li t0, 5
    80000080:	00500293          	li	t0,5
  bne s0, t0, __clear_flag6
    80000084:	00541a63          	bne	s0,t0,80000098 <__clear_flag6>
  li s0, (CLINT_CTRL_ADDR + CLINT_MSIP5)
    80000088:	02000437          	lui	s0,0x2000
    8000008c:	0144041b          	addiw	s0,s0,20 # 2000014 <_prog_start-0x7dffffec>
  amoswap.w t0, zero, (s0)
    80000090:	080422af          	amoswap.w	t0,zero,(s0)
  j __core_sleep
    80000094:	0280006f          	j	800000bc <__core_sleep>

0000000080000098 <__clear_flag6>:
__clear_flag6:
  li t0, 6
    80000098:	00600293          	li	t0,6
  bne s0, t0, __clear_flag7
    8000009c:	00541a63          	bne	s0,t0,800000b0 <__clear_flag7>
  li s0, (CLINT_CTRL_ADDR + CLINT_MSIP6)
    800000a0:	02000437          	lui	s0,0x2000
    800000a4:	0184041b          	addiw	s0,s0,24 # 2000018 <_prog_start-0x7dffffe8>
  amoswap.w t0, zero, (s0)
    800000a8:	080422af          	amoswap.w	t0,zero,(s0)
  j __core_sleep
    800000ac:	0100006f          	j	800000bc <__core_sleep>

00000000800000b0 <__clear_flag7>:
__clear_flag7:
  li s0, (CLINT_CTRL_ADDR + CLINT_MSIP7)
    800000b0:	02000437          	lui	s0,0x2000
    800000b4:	01c4041b          	addiw	s0,s0,28 # 200001c <_prog_start-0x7dffffe4>
  amoswap.w t0, zero, (s0)
    800000b8:	080422af          	amoswap.w	t0,zero,(s0)

00000000800000bc <__core_sleep>:
__core_sleep:
  li s2, 0x8 // Enable interrupt
    800000bc:	00800913          	li	s2,8
  csrw mie, s2
    800000c0:	30491073          	csrw	mie,s2
  wfi
    800000c4:	10500073          	wfi
  csrw mie, zero // Disable interrupt
    800000c8:	30401073          	csrw	mie,zero
  call _thread_entry
    800000cc:	144000ef          	jal	ra,80000210 <_thread_entry>
  j _thread_end
    800000d0:	f4dff06f          	j	8000001c <_thread_end>

00000000800000d4 <_thread0_entry>:
_thread0_entry: // Thread 0 must store activation table first
  // a0 store address link
  csrw mie, zero
    800000d4:	30401073          	csrw	mie,zero
  addi sp, sp, -248
    800000d8:	f0810113          	addi	sp,sp,-248
  sd ra, 0(sp)
    800000dc:	00113023          	sd	ra,0(sp)
  sd sp, 8(sp)
    800000e0:	00213423          	sd	sp,8(sp)
  sd gp, 16(sp)
    800000e4:	00313823          	sd	gp,16(sp)
  sd tp, 24(sp)
    800000e8:	00413c23          	sd	tp,24(sp)
  sd t0, 32(sp)
    800000ec:	02513023          	sd	t0,32(sp)
  sd t1, 40(sp)
    800000f0:	02613423          	sd	t1,40(sp)
  sd t2, 48(sp)
    800000f4:	02713823          	sd	t2,48(sp)
  sd s0, 56(sp)
    800000f8:	02813c23          	sd	s0,56(sp)
  sd s1, 64(sp)
    800000fc:	04913023          	sd	s1,64(sp)
  sd a0, 72(sp)
    80000100:	04a13423          	sd	a0,72(sp)
  sd a1, 80(sp)
    80000104:	04b13823          	sd	a1,80(sp)
  sd a2, 88(sp)
    80000108:	04c13c23          	sd	a2,88(sp)
  sd a3, 96(sp)
    8000010c:	06d13023          	sd	a3,96(sp)
  sd a4, 104(sp)
    80000110:	06e13423          	sd	a4,104(sp)
  sd a5, 112(sp)
    80000114:	06f13823          	sd	a5,112(sp)
  sd a6, 120(sp)
    80000118:	07013c23          	sd	a6,120(sp)
  sd a7, 128(sp)
    8000011c:	09113023          	sd	a7,128(sp)
  sd s2, 136(sp)
    80000120:	09213423          	sd	s2,136(sp)
  sd s3, 144(sp)
    80000124:	09313823          	sd	s3,144(sp)
  sd s4, 152(sp)
    80000128:	09413c23          	sd	s4,152(sp)
  sd s5, 160(sp)
    8000012c:	0b513023          	sd	s5,160(sp)
  sd s6, 168(sp)
    80000130:	0b613423          	sd	s6,168(sp)
  sd s7, 176(sp)
    80000134:	0b713823          	sd	s7,176(sp)
  sd s8, 184(sp)
    80000138:	0b813c23          	sd	s8,184(sp)
  sd s9, 192(sp)
    8000013c:	0d913023          	sd	s9,192(sp)
  sd s10, 200(sp)
    80000140:	0da13423          	sd	s10,200(sp)
  sd s11, 208(sp)
    80000144:	0db13823          	sd	s11,208(sp)
  sd t3, 216(sp)
    80000148:	0dc13c23          	sd	t3,216(sp)
  sd t4, 224(sp)
    8000014c:	0fd13023          	sd	t4,224(sp)
  sd t5, 232(sp)
    80000150:	0fe13423          	sd	t5,232(sp)
  sd t6, 240(sp)
    80000154:	0ff13823          	sd	t6,240(sp)
  // Then store sp at first address of private memory
  li t0, (PRIVATE_MEM_0 + PRIVATE_MEM_SIZE - 16)
    80000158:	400082b7          	lui	t0,0x40008
    8000015c:	ff02829b          	addiw	t0,t0,-16 # 40007ff0 <_prog_start-0x3fff8010>
  sd sp, 0(t0)
    80000160:	0022b023          	sd	sp,0(t0)
  li sp, (PRIVATE_MEM_0 + PRIVATE_MEM_SIZE - 32)
    80000164:	40008137          	lui	sp,0x40008
    80000168:	fe01011b          	addiw	sp,sp,-32 # 40007fe0 <_prog_start-0x3fff8020>
  call thread_run
    8000016c:	72c000ef          	jal	ra,80000898 <thread_run>
  // Cleaf flag
  li s0, (CLINT_CTRL_ADDR + CLINT_MSIP0)
    80000170:	02000437          	lui	s0,0x2000
  amoswap.w t0, zero, (s0)
    80000174:	080422af          	amoswap.w	t0,zero,(s0)
  // Enable interrupt
  li s2, 0x8
    80000178:	00800913          	li	s2,8
  csrw mie, s2
    8000017c:	30491073          	csrw	mie,s2
  // After return, restore activate table
  // firstly recover origianl sp
  li t0, (PRIVATE_MEM_0 + PRIVATE_MEM_SIZE - 16)
    80000180:	400082b7          	lui	t0,0x40008
    80000184:	ff02829b          	addiw	t0,t0,-16 # 40007ff0 <_prog_start-0x3fff8010>
  ld sp, 0(t0)
    80000188:	0002b103          	ld	sp,0(t0)
  ld ra, 0(sp)
    8000018c:	00013083          	ld	ra,0(sp)
  ld gp, 16(sp)
    80000190:	01013183          	ld	gp,16(sp)
  ld tp, 24(sp)
    80000194:	01813203          	ld	tp,24(sp)
  ld t0, 32(sp)
    80000198:	02013283          	ld	t0,32(sp)
  ld t1, 40(sp)
    8000019c:	02813303          	ld	t1,40(sp)
  ld t2, 48(sp)
    800001a0:	03013383          	ld	t2,48(sp)
  ld s0, 56(sp)
    800001a4:	03813403          	ld	s0,56(sp)
  ld s1, 64(sp)
    800001a8:	04013483          	ld	s1,64(sp)
  ld a0, 72(sp)
    800001ac:	04813503          	ld	a0,72(sp)
  ld a1, 80(sp)
    800001b0:	05013583          	ld	a1,80(sp)
  ld a2, 88(sp)
    800001b4:	05813603          	ld	a2,88(sp)
  ld a3, 96(sp)
    800001b8:	06013683          	ld	a3,96(sp)
  ld a4, 104(sp)
    800001bc:	06813703          	ld	a4,104(sp)
  ld a5, 112(sp)
    800001c0:	07013783          	ld	a5,112(sp)
  ld a6, 120(sp)
    800001c4:	07813803          	ld	a6,120(sp)
  ld a7, 128(sp)
    800001c8:	08013883          	ld	a7,128(sp)
  ld s2, 136(sp)
    800001cc:	08813903          	ld	s2,136(sp)
  ld s3, 144(sp)
    800001d0:	09013983          	ld	s3,144(sp)
  ld s4, 152(sp)
    800001d4:	09813a03          	ld	s4,152(sp)
  ld s5, 160(sp)
    800001d8:	0a013a83          	ld	s5,160(sp)
  ld s6, 168(sp)
    800001dc:	0a813b03          	ld	s6,168(sp)
  ld s7, 176(sp)
    800001e0:	0b013b83          	ld	s7,176(sp)
  ld s8, 184(sp)
    800001e4:	0b813c03          	ld	s8,184(sp)
  ld s9, 192(sp)
    800001e8:	0c013c83          	ld	s9,192(sp)
  ld s10, 200(sp)
    800001ec:	0c813d03          	ld	s10,200(sp)
  ld s11, 208(sp)
    800001f0:	0d013d83          	ld	s11,208(sp)
  ld t3, 216(sp)
    800001f4:	0d813e03          	ld	t3,216(sp)
  ld t4, 224(sp)
    800001f8:	0e013e83          	ld	t4,224(sp)
  ld t5, 232(sp)
    800001fc:	0e813f03          	ld	t5,232(sp)
  ld t6, 240(sp)
    80000200:	0f013f83          	ld	t6,240(sp)
  ld sp, 8(sp)
    80000204:	00813103          	ld	sp,8(sp)
  addi sp, sp, 248
    80000208:	0f810113          	addi	sp,sp,248
  ret // Return to the main thread
    8000020c:	00008067          	ret

0000000080000210 <_thread_entry>:
_thread_entry: // For other cores
  csrw mie, zero
    80000210:	30401073          	csrw	mie,zero
  csrr a0, mhartid
    80000214:	f1402573          	csrr	a0,mhartid
  li t0, 0x40000000
    80000218:	400002b7          	lui	t0,0x40000
  slli sp, a0, 15
    8000021c:	00f51113          	slli	sp,a0,0xf
  or  sp, sp, t0
    80000220:	00516133          	or	sp,sp,t0
  li t0, 0x7ff0
    80000224:	000082b7          	lui	t0,0x8
    80000228:	ff02829b          	addiw	t0,t0,-16 # 7ff0 <_prog_start-0x7fff8010>
  add sp, sp, t0
    8000022c:	00510133          	add	sp,sp,t0
  call thread_run
    80000230:	668000ef          	jal	ra,80000898 <thread_run>
  j _thread_end
    80000234:	de9ff06f          	j	8000001c <_thread_end>

0000000080000238 <_main>:
_main: // Hart 0
  csrw mie, zero
    80000238:	30401073          	csrw	mie,zero
  csrr a0, mhartid
    8000023c:	f1402573          	csrr	a0,mhartid
  li sp, (MEMORY_MEM_ADDR + 0x7fff0)
    80000240:	00001137          	lui	sp,0x1
    80000244:	0011011b          	addiw	sp,sp,1 # 1001 <_prog_start-0x7fffefff>
    80000248:	01311113          	slli	sp,sp,0x13
    8000024c:	ff010113          	addi	sp,sp,-16
  call main
    80000250:	6d3000ef          	jal	ra,80001122 <main>

0000000080000254 <_loopback>:
_loopback:
  wfi
    80000254:	10500073          	wfi
    80000258:	ffdff06f          	j	80000254 <_loopback>

000000008000025c <mux_lock>:
  .globl read_flag6
  .globl read_flag7

// ====== Lock ====================  
mux_lock:
    addi sp, sp, -24
    8000025c:	fe810113          	addi	sp,sp,-24
    sd  t0, 16(sp)
    80000260:	00513823          	sd	t0,16(sp)
    sd  t1, 8(sp)
    80000264:	00613423          	sd	t1,8(sp)
    sd  a0, 0(sp)    
    80000268:	00a13023          	sd	a0,0(sp)
    li t0, 1
    8000026c:	00100293          	li	t0,1
    li a0, THREAD_QUEUE_ADDR
    80000270:	0090051b          	addiw	a0,zero,9
    80000274:	01c51513          	slli	a0,a0,0x1c

0000000080000278 <_again>:
_again:
    lw t1, 0(a0)   // Check if lock is held
    80000278:	00052303          	lw	t1,0(a0)
    bnez t1, _again  // Retry if held
    8000027c:	fe031ee3          	bnez	t1,80000278 <_again>
    amoswap.w t1, t0, (a0)
    80000280:	0855232f          	amoswap.w	t1,t0,(a0)
    bnez t1, _again  // Retry if held
    80000284:	fe031ae3          	bnez	t1,80000278 <_again>
    ld  t0, 16(sp)
    80000288:	01013283          	ld	t0,16(sp)
    ld  t1, 8(sp)
    8000028c:	00813303          	ld	t1,8(sp)
    ld  a0, 0(sp) 
    80000290:	00013503          	ld	a0,0(sp)
    addi sp, sp, 24
    80000294:	01810113          	addi	sp,sp,24
    ret
    80000298:	00008067          	ret

000000008000029c <mux_unlock>:

// ====== Unlock ==================
mux_unlock:
    addi sp, sp, -16
    8000029c:	ff010113          	addi	sp,sp,-16
    sd  t0, 8(sp)
    800002a0:	00513423          	sd	t0,8(sp)
    sd  t1, 0(sp)
    800002a4:	00613023          	sd	t1,0(sp)
    li t0, 0
    800002a8:	00000293          	li	t0,0
    li a0, THREAD_QUEUE_ADDR
    800002ac:	0090051b          	addiw	a0,zero,9
    800002b0:	01c51513          	slli	a0,a0,0x1c
    lw t1, 0(a0)   // Check if lock is held
    800002b4:	00052303          	lw	t1,0(a0)
    beqz t1, _exit_unlock
    800002b8:	00030463          	beqz	t1,800002c0 <_exit_unlock>
    amoswap.w t0, t0, (a0)
    800002bc:	085522af          	amoswap.w	t0,t0,(a0)

00000000800002c0 <_exit_unlock>:
_exit_unlock:
    ld  t0, 8(sp)
    800002c0:	00813283          	ld	t0,8(sp)
    ld  t1, 0(sp)
    800002c4:	00013303          	ld	t1,0(sp)
    addi sp, sp, 16    
    800002c8:	01010113          	addi	sp,sp,16
    ret
    800002cc:	00008067          	ret

00000000800002d0 <get_hartid>:

// ====== Get hartid ==============
get_hartid:
    csrr a0, mhartid
    800002d0:	f1402573          	csrr	a0,mhartid
    ret
    800002d4:	00008067          	ret

00000000800002d8 <atomic_write>:

// ====== Atomic write ============
atomic_write:
    addi sp, sp, -8
    800002d8:	ff810113          	addi	sp,sp,-8
    sd t0, 0(sp)
    800002dc:	00513023          	sd	t0,0(sp)
    amoswap.w t0, a1, (a0)
    800002e0:	08b522af          	amoswap.w	t0,a1,(a0)
    ld t0, 0(sp)
    800002e4:	00013283          	ld	t0,0(sp)
    addi sp, sp, 8    
    800002e8:	00810113          	addi	sp,sp,8
    ret
    800002ec:	00008067          	ret

00000000800002f0 <sem_wait>:

// ====== Semaphore wait ==========
sem_wait:
    addi sp, sp, -16
    800002f0:	ff010113          	addi	sp,sp,-16
    sd  t0, 8(sp)
    800002f4:	00513423          	sd	t0,8(sp)
    sd  s0, 0(sp)
    800002f8:	00813023          	sd	s0,0(sp)
    amoswap.w t0, zero, (a0) // Clear interrupt flag
    800002fc:	080522af          	amoswap.w	t0,zero,(a0)
    li s0, 0x8 // Enable interrupt
    80000300:	00800413          	li	s0,8
    csrw mie, s0
    80000304:	30441073          	csrw	mie,s0
    wfi
    80000308:	10500073          	wfi
    csrw mie, zero // Disable interrupt
    8000030c:	30401073          	csrw	mie,zero
    amoswap.w t0, zero, (a0) // Clear interrupt flag
    80000310:	080522af          	amoswap.w	t0,zero,(a0)
    ld  t0, 8(sp)
    80000314:	00813283          	ld	t0,8(sp)
    ld  s0, 0(sp)
    80000318:	00013403          	ld	s0,0(sp)
    addi sp, sp, 16
    8000031c:	01010113          	addi	sp,sp,16
    ret
    80000320:	00008067          	ret

0000000080000324 <sem_signal>:

// ====== Semaphore signal ========
sem_signal:
    addi sp, sp, -8
    80000324:	ff810113          	addi	sp,sp,-8
    sd t0, 0(sp)
    80000328:	00513023          	sd	t0,0(sp)
    li t0, 1 // Set interrupt flag of target core
    8000032c:	00100293          	li	t0,1
    amoswap.w t1, t0, (a0)
    80000330:	0855232f          	amoswap.w	t1,t0,(a0)
    ld t0, 0(sp)
    80000334:	00013283          	ld	t0,0(sp)
    addi sp, sp, 8
    80000338:	00810113          	addi	sp,sp,8
    ret
    8000033c:	00008067          	ret

0000000080000340 <read_flag0>:

// ===== Check core status ========
read_flag0:
  li t0, (CLINT_CTRL_ADDR + CLINT_MSIP0)
    80000340:	020002b7          	lui	t0,0x2000
  amoor.w a0, zero, (t0)
    80000344:	4002a52f          	amoor.w	a0,zero,(t0)
  ret
    80000348:	00008067          	ret

000000008000034c <read_flag1>:
read_flag1:
  li t0, (CLINT_CTRL_ADDR + CLINT_MSIP1)
    8000034c:	020002b7          	lui	t0,0x2000
    80000350:	0042829b          	addiw	t0,t0,4 # 2000004 <_prog_start-0x7dfffffc>
  amoor.w a0, zero, (t0)
    80000354:	4002a52f          	amoor.w	a0,zero,(t0)
  ret
    80000358:	00008067          	ret

000000008000035c <read_flag2>:
read_flag2:
  li t0, (CLINT_CTRL_ADDR + CLINT_MSIP2)
    8000035c:	020002b7          	lui	t0,0x2000
    80000360:	0082829b          	addiw	t0,t0,8 # 2000008 <_prog_start-0x7dfffff8>
  amoor.w a0, zero, (t0)
    80000364:	4002a52f          	amoor.w	a0,zero,(t0)
  ret
    80000368:	00008067          	ret

000000008000036c <read_flag3>:
read_flag3:
  li t0, (CLINT_CTRL_ADDR + CLINT_MSIP3)
    8000036c:	020002b7          	lui	t0,0x2000
    80000370:	00c2829b          	addiw	t0,t0,12 # 200000c <_prog_start-0x7dfffff4>
  amoor.w a0, zero, (t0)
    80000374:	4002a52f          	amoor.w	a0,zero,(t0)
  ret
    80000378:	00008067          	ret

000000008000037c <read_flag4>:
read_flag4:
  li t0, (CLINT_CTRL_ADDR + CLINT_MSIP4)
    8000037c:	020002b7          	lui	t0,0x2000
    80000380:	0102829b          	addiw	t0,t0,16 # 2000010 <_prog_start-0x7dfffff0>
  amoor.w a0, zero, (t0)
    80000384:	4002a52f          	amoor.w	a0,zero,(t0)
  ret
    80000388:	00008067          	ret

000000008000038c <read_flag5>:
read_flag5:
  li t0, (CLINT_CTRL_ADDR + CLINT_MSIP5)
    8000038c:	020002b7          	lui	t0,0x2000
    80000390:	0142829b          	addiw	t0,t0,20 # 2000014 <_prog_start-0x7dffffec>
  amoor.w a0, zero, (t0)
    80000394:	4002a52f          	amoor.w	a0,zero,(t0)
  ret
    80000398:	00008067          	ret

000000008000039c <read_flag6>:
read_flag6:
  li t0, (CLINT_CTRL_ADDR + CLINT_MSIP6)
    8000039c:	020002b7          	lui	t0,0x2000
    800003a0:	0182829b          	addiw	t0,t0,24 # 2000018 <_prog_start-0x7dffffe8>
  amoor.w a0, zero, (t0)
    800003a4:	4002a52f          	amoor.w	a0,zero,(t0)
  ret
    800003a8:	00008067          	ret

00000000800003ac <read_flag7>:
read_flag7:
  li t0, (CLINT_CTRL_ADDR + CLINT_MSIP7)
    800003ac:	020002b7          	lui	t0,0x2000
    800003b0:	01c2829b          	addiw	t0,t0,28 # 200001c <_prog_start-0x7dffffe4>
  amoor.w a0, zero, (t0)
    800003b4:	4002a52f          	amoor.w	a0,zero,(t0)
    800003b8:	00008067          	ret

00000000800003bc <kputc>:
  #define UART_CTRL_ADDR _UART_CTRL_ADDR(UART_NUM)
#endif
static volatile uint32_t * const uart = (void *)(UART_CTRL_ADDR);

static inline void kputc(char c)
{
    800003bc:	7179                	addi	sp,sp,-48
    800003be:	f422                	sd	s0,40(sp)
    800003c0:	1800                	addi	s0,sp,48
    800003c2:	87aa                	mv	a5,a0
    800003c4:	fcf40fa3          	sb	a5,-33(s0) # 1ffffdf <_prog_start-0x7e000021>
	volatile uint32_t *tx = &REG32(uart, UART_REG_TXFIFO);
    800003c8:	640007b7          	lui	a5,0x64000
    800003cc:	fef43423          	sd	a5,-24(s0)
#ifdef __riscv_atomic
	int32_t r;
	do {
		__asm__ __volatile__ (
    800003d0:	fe843703          	ld	a4,-24(s0)
    800003d4:	fdf44783          	lbu	a5,-33(s0)
    800003d8:	86be                	mv	a3,a5
    800003da:	fe843783          	ld	a5,-24(s0)
    800003de:	40d727af          	amoor.w	a5,a3,(a4)
    800003e2:	fef42223          	sw	a5,-28(s0)
			"amoor.w %0, %2, %1\n"
			: "=r" (r), "+A" (*tx)
			: "r" (c));
	} while (r < 0);
    800003e6:	fe442783          	lw	a5,-28(s0)
    800003ea:	2781                	sext.w	a5,a5
    800003ec:	fe07c2e3          	bltz	a5,800003d0 <kputc+0x14>
#else
	while ((int32_t)(*tx) < 0);
	*tx = c;
#endif
}
    800003f0:	0001                	nop
    800003f2:	0001                	nop
    800003f4:	7422                	ld	s0,40(sp)
    800003f6:	6145                	addi	sp,sp,48
    800003f8:	8082                	ret

00000000800003fa <_kputs>:
#include <stdbool.h>

#include "kprintf.h"

static inline void _kputs(const char *s)
{
    800003fa:	7179                	addi	sp,sp,-48
    800003fc:	f406                	sd	ra,40(sp)
    800003fe:	f022                	sd	s0,32(sp)
    80000400:	1800                	addi	s0,sp,48
    80000402:	fca43c23          	sd	a0,-40(s0)
	char c;
	for (; (c = *s) != '\0'; s++)
    80000406:	a819                	j	8000041c <_kputs+0x22>
		kputc(c);
    80000408:	fef44783          	lbu	a5,-17(s0)
    8000040c:	853e                	mv	a0,a5
    8000040e:	fafff0ef          	jal	ra,800003bc <kputc>
	for (; (c = *s) != '\0'; s++)
    80000412:	fd843783          	ld	a5,-40(s0)
    80000416:	0785                	addi	a5,a5,1 # 64000001 <_prog_start-0x1bffffff>
    80000418:	fcf43c23          	sd	a5,-40(s0)
    8000041c:	fd843783          	ld	a5,-40(s0)
    80000420:	0007c783          	lbu	a5,0(a5)
    80000424:	fef407a3          	sb	a5,-17(s0)
    80000428:	fef44783          	lbu	a5,-17(s0)
    8000042c:	0ff7f793          	zext.b	a5,a5
    80000430:	ffe1                	bnez	a5,80000408 <_kputs+0xe>
}
    80000432:	0001                	nop
    80000434:	0001                	nop
    80000436:	70a2                	ld	ra,40(sp)
    80000438:	7402                	ld	s0,32(sp)
    8000043a:	6145                	addi	sp,sp,48
    8000043c:	8082                	ret

000000008000043e <kputs>:

void kputs(const char *s)
{
    8000043e:	1101                	addi	sp,sp,-32
    80000440:	ec06                	sd	ra,24(sp)
    80000442:	e822                	sd	s0,16(sp)
    80000444:	1000                	addi	s0,sp,32
    80000446:	fea43423          	sd	a0,-24(s0)
	_kputs(s);
    8000044a:	fe843503          	ld	a0,-24(s0)
    8000044e:	fadff0ef          	jal	ra,800003fa <_kputs>
	kputc('\r');
    80000452:	4535                	li	a0,13
    80000454:	f69ff0ef          	jal	ra,800003bc <kputc>
	kputc('\n');
    80000458:	4529                	li	a0,10
    8000045a:	f63ff0ef          	jal	ra,800003bc <kputc>
}
    8000045e:	0001                	nop
    80000460:	60e2                	ld	ra,24(sp)
    80000462:	6442                	ld	s0,16(sp)
    80000464:	6105                	addi	sp,sp,32
    80000466:	8082                	ret

0000000080000468 <kprintf>:

void kprintf(const char *fmt, ...)
{
    80000468:	7151                	addi	sp,sp,-240
    8000046a:	f506                	sd	ra,168(sp)
    8000046c:	f122                	sd	s0,160(sp)
    8000046e:	1900                	addi	s0,sp,176
    80000470:	f4a43c23          	sd	a0,-168(s0)
    80000474:	e40c                	sd	a1,8(s0)
    80000476:	e810                	sd	a2,16(s0)
    80000478:	ec14                	sd	a3,24(s0)
    8000047a:	f018                	sd	a4,32(s0)
    8000047c:	f41c                	sd	a5,40(s0)
    8000047e:	03043823          	sd	a6,48(s0)
    80000482:	03143c23          	sd	a7,56(s0)
		va_list vl;
	bool is_format, is_long, is_char;
	char c;

	va_start(vl, fmt);
    80000486:	04040793          	addi	a5,s0,64
    8000048a:	f4f43823          	sd	a5,-176(s0)
    8000048e:	f5043783          	ld	a5,-176(s0)
    80000492:	fc878793          	addi	a5,a5,-56
    80000496:	faf43423          	sd	a5,-88(s0)
	is_format = false;
    8000049a:	fe0407a3          	sb	zero,-17(s0)
	is_long = false;
    8000049e:	fe040723          	sb	zero,-18(s0)
	is_char = false;
    800004a2:	fe0406a3          	sb	zero,-19(s0)
	while ((c = *fmt++) != '\0') {
    800004a6:	a499                	j	800006ec <kprintf+0x284>
		if (is_format) {
    800004a8:	fef44783          	lbu	a5,-17(s0)
    800004ac:	0ff7f793          	zext.b	a5,a5
    800004b0:	20078d63          	beqz	a5,800006ca <kprintf+0x262>
			switch (c) {
    800004b4:	fbf44783          	lbu	a5,-65(s0)
    800004b8:	2781                	sext.w	a5,a5
    800004ba:	f9d7869b          	addiw	a3,a5,-99
    800004be:	0006871b          	sext.w	a4,a3
    800004c2:	47d5                	li	a5,21
    800004c4:	1ee7ec63          	bltu	a5,a4,800006bc <kprintf+0x254>
    800004c8:	02069793          	slli	a5,a3,0x20
    800004cc:	9381                	srli	a5,a5,0x20
    800004ce:	00279713          	slli	a4,a5,0x2
    800004d2:	00001797          	auipc	a5,0x1
    800004d6:	61678793          	addi	a5,a5,1558 # 80001ae8 <dump+0x8>
    800004da:	97ba                	add	a5,a5,a4
    800004dc:	439c                	lw	a5,0(a5)
    800004de:	0007871b          	sext.w	a4,a5
    800004e2:	00001797          	auipc	a5,0x1
    800004e6:	60678793          	addi	a5,a5,1542 # 80001ae8 <dump+0x8>
    800004ea:	97ba                	add	a5,a5,a4
    800004ec:	8782                	jr	a5
			case 'l':
				unsigned long n;
				n = va_arg(vl, unsigned long);
    800004ee:	fa843783          	ld	a5,-88(s0)
    800004f2:	00878713          	addi	a4,a5,8
    800004f6:	fae43423          	sd	a4,-88(s0)
    800004fa:	639c                	ld	a5,0(a5)
    800004fc:	fef43023          	sd	a5,-32(s0)
				char c[64];
				for (int i = 0; i < 64; i ++) c[i] = 0;
    80000500:	fc042e23          	sw	zero,-36(s0)
    80000504:	a821                	j	8000051c <kprintf+0xb4>
    80000506:	fdc42783          	lw	a5,-36(s0)
    8000050a:	17c1                	addi	a5,a5,-16
    8000050c:	97a2                	add	a5,a5,s0
    8000050e:	f6078c23          	sb	zero,-136(a5)
    80000512:	fdc42783          	lw	a5,-36(s0)
    80000516:	2785                	addiw	a5,a5,1
    80000518:	fcf42e23          	sw	a5,-36(s0)
    8000051c:	fdc42783          	lw	a5,-36(s0)
    80000520:	0007871b          	sext.w	a4,a5
    80000524:	03f00793          	li	a5,63
    80000528:	fce7dfe3          	bge	a5,a4,80000506 <kprintf+0x9e>
				if (n == 0) {
    8000052c:	fe043783          	ld	a5,-32(s0)
    80000530:	e7bd                	bnez	a5,8000059e <kprintf+0x136>
					kputc ('0');
    80000532:	03000513          	li	a0,48
    80000536:	e87ff0ef          	jal	ra,800003bc <kputc>
					break;
    8000053a:	a249                	j	800006bc <kprintf+0x254>
				}
				for (;n != 0;) {
					for (int i = 63; i > 0; i--) c[i] = c[i-1];
    8000053c:	03f00793          	li	a5,63
    80000540:	fcf42c23          	sw	a5,-40(s0)
    80000544:	a025                	j	8000056c <kprintf+0x104>
    80000546:	fd842783          	lw	a5,-40(s0)
    8000054a:	37fd                	addiw	a5,a5,-1
    8000054c:	2781                	sext.w	a5,a5
    8000054e:	17c1                	addi	a5,a5,-16
    80000550:	97a2                	add	a5,a5,s0
    80000552:	f787c703          	lbu	a4,-136(a5)
    80000556:	fd842783          	lw	a5,-40(s0)
    8000055a:	17c1                	addi	a5,a5,-16
    8000055c:	97a2                	add	a5,a5,s0
    8000055e:	f6e78c23          	sb	a4,-136(a5)
    80000562:	fd842783          	lw	a5,-40(s0)
    80000566:	37fd                	addiw	a5,a5,-1
    80000568:	fcf42c23          	sw	a5,-40(s0)
    8000056c:	fd842783          	lw	a5,-40(s0)
    80000570:	2781                	sext.w	a5,a5
    80000572:	fcf04ae3          	bgtz	a5,80000546 <kprintf+0xde>
					c[0] = '0' + (n%10);
    80000576:	fe043703          	ld	a4,-32(s0)
    8000057a:	47a9                	li	a5,10
    8000057c:	02f777b3          	remu	a5,a4,a5
    80000580:	0ff7f793          	zext.b	a5,a5
    80000584:	0307879b          	addiw	a5,a5,48
    80000588:	0ff7f793          	zext.b	a5,a5
    8000058c:	f6f40423          	sb	a5,-152(s0)
					n = n / 10;
    80000590:	fe043703          	ld	a4,-32(s0)
    80000594:	47a9                	li	a5,10
    80000596:	02f757b3          	divu	a5,a4,a5
    8000059a:	fef43023          	sd	a5,-32(s0)
				for (;n != 0;) {
    8000059e:	fe043783          	ld	a5,-32(s0)
    800005a2:	ffc9                	bnez	a5,8000053c <kprintf+0xd4>
				}
				for (int i = 0; c[i] != 0; i++) kputc(c[i]);
    800005a4:	fc042a23          	sw	zero,-44(s0)
    800005a8:	a839                	j	800005c6 <kprintf+0x15e>
    800005aa:	fd442783          	lw	a5,-44(s0)
    800005ae:	17c1                	addi	a5,a5,-16
    800005b0:	97a2                	add	a5,a5,s0
    800005b2:	f787c783          	lbu	a5,-136(a5)
    800005b6:	853e                	mv	a0,a5
    800005b8:	e05ff0ef          	jal	ra,800003bc <kputc>
    800005bc:	fd442783          	lw	a5,-44(s0)
    800005c0:	2785                	addiw	a5,a5,1
    800005c2:	fcf42a23          	sw	a5,-44(s0)
    800005c6:	fd442783          	lw	a5,-44(s0)
    800005ca:	17c1                	addi	a5,a5,-16
    800005cc:	97a2                	add	a5,a5,s0
    800005ce:	f787c783          	lbu	a5,-136(a5)
    800005d2:	ffe1                	bnez	a5,800005aa <kprintf+0x142>
				break;
    800005d4:	a0e5                	j	800006bc <kprintf+0x254>
			case 'h':
				is_char = true;
    800005d6:	4785                	li	a5,1
    800005d8:	fef406a3          	sb	a5,-19(s0)
    800005dc:	aa01                	j	800006ec <kprintf+0x284>
				continue;
			case 'x': {
				unsigned long n;
				long i;
				if (is_long) {
    800005de:	fee44783          	lbu	a5,-18(s0)
    800005e2:	0ff7f793          	zext.b	a5,a5
    800005e6:	cf99                	beqz	a5,80000604 <kprintf+0x19c>
					n = va_arg(vl, unsigned long);
    800005e8:	fa843783          	ld	a5,-88(s0)
    800005ec:	00878713          	addi	a4,a5,8
    800005f0:	fae43423          	sd	a4,-88(s0)
    800005f4:	639c                	ld	a5,0(a5)
    800005f6:	fcf43423          	sd	a5,-56(s0)
					i = (sizeof(unsigned long) << 3) - 4;
    800005fa:	03c00793          	li	a5,60
    800005fe:	fcf43023          	sd	a5,-64(s0)
    80000602:	a041                	j	80000682 <kprintf+0x21a>
				} else {
					n = va_arg(vl, unsigned int);
    80000604:	fa843783          	ld	a5,-88(s0)
    80000608:	00878713          	addi	a4,a5,8
    8000060c:	fae43423          	sd	a4,-88(s0)
    80000610:	439c                	lw	a5,0(a5)
    80000612:	1782                	slli	a5,a5,0x20
    80000614:	9381                	srli	a5,a5,0x20
    80000616:	fcf43423          	sd	a5,-56(s0)
					i = is_char ? 4 : (sizeof(unsigned int) << 3) - 4;
    8000061a:	fed44783          	lbu	a5,-19(s0)
    8000061e:	0ff7f793          	zext.b	a5,a5
    80000622:	c399                	beqz	a5,80000628 <kprintf+0x1c0>
    80000624:	4791                	li	a5,4
    80000626:	a011                	j	8000062a <kprintf+0x1c2>
    80000628:	47f1                	li	a5,28
    8000062a:	fcf43023          	sd	a5,-64(s0)
				}
				for (; i >= 0; i -= 4) {
    8000062e:	a891                	j	80000682 <kprintf+0x21a>
					long d;
					d = (n >> i) & 0xF;
    80000630:	fc043783          	ld	a5,-64(s0)
    80000634:	2781                	sext.w	a5,a5
    80000636:	873e                	mv	a4,a5
    80000638:	fc843783          	ld	a5,-56(s0)
    8000063c:	00e7d7b3          	srl	a5,a5,a4
    80000640:	8bbd                	andi	a5,a5,15
    80000642:	faf43823          	sd	a5,-80(s0)
					kputc(d < 10 ? '0' + d : 'a' + d - 10);
    80000646:	fb043703          	ld	a4,-80(s0)
    8000064a:	47a5                	li	a5,9
    8000064c:	00e7cb63          	blt	a5,a4,80000662 <kprintf+0x1fa>
    80000650:	fb043783          	ld	a5,-80(s0)
    80000654:	0ff7f793          	zext.b	a5,a5
    80000658:	0307879b          	addiw	a5,a5,48
    8000065c:	0ff7f793          	zext.b	a5,a5
    80000660:	a809                	j	80000672 <kprintf+0x20a>
    80000662:	fb043783          	ld	a5,-80(s0)
    80000666:	0ff7f793          	zext.b	a5,a5
    8000066a:	0577879b          	addiw	a5,a5,87
    8000066e:	0ff7f793          	zext.b	a5,a5
    80000672:	853e                	mv	a0,a5
    80000674:	d49ff0ef          	jal	ra,800003bc <kputc>
				for (; i >= 0; i -= 4) {
    80000678:	fc043783          	ld	a5,-64(s0)
    8000067c:	17f1                	addi	a5,a5,-4
    8000067e:	fcf43023          	sd	a5,-64(s0)
    80000682:	fc043783          	ld	a5,-64(s0)
    80000686:	fa07d5e3          	bgez	a5,80000630 <kprintf+0x1c8>
				}
				break;
    8000068a:	a80d                	j	800006bc <kprintf+0x254>
			}
			case 's':
				_kputs(va_arg(vl, const char *));
    8000068c:	fa843783          	ld	a5,-88(s0)
    80000690:	00878713          	addi	a4,a5,8
    80000694:	fae43423          	sd	a4,-88(s0)
    80000698:	639c                	ld	a5,0(a5)
    8000069a:	853e                	mv	a0,a5
    8000069c:	d5fff0ef          	jal	ra,800003fa <_kputs>
				break;
    800006a0:	a831                	j	800006bc <kprintf+0x254>
			case 'c':
				kputc(va_arg(vl, int));
    800006a2:	fa843783          	ld	a5,-88(s0)
    800006a6:	00878713          	addi	a4,a5,8
    800006aa:	fae43423          	sd	a4,-88(s0)
    800006ae:	439c                	lw	a5,0(a5)
    800006b0:	0ff7f793          	zext.b	a5,a5
    800006b4:	853e                	mv	a0,a5
    800006b6:	d07ff0ef          	jal	ra,800003bc <kputc>
				break;
    800006ba:	0001                	nop
			}
			is_format = false;
    800006bc:	fe0407a3          	sb	zero,-17(s0)
			is_long = false;
    800006c0:	fe040723          	sb	zero,-18(s0)
			is_char = false;
    800006c4:	fe0406a3          	sb	zero,-19(s0)
    800006c8:	a015                	j	800006ec <kprintf+0x284>
		} else if (c == '%') {
    800006ca:	fbf44783          	lbu	a5,-65(s0)
    800006ce:	0ff7f713          	zext.b	a4,a5
    800006d2:	02500793          	li	a5,37
    800006d6:	00f71663          	bne	a4,a5,800006e2 <kprintf+0x27a>
			is_format = true;
    800006da:	4785                	li	a5,1
    800006dc:	fef407a3          	sb	a5,-17(s0)
    800006e0:	a031                	j	800006ec <kprintf+0x284>
		} else {
			kputc(c);
    800006e2:	fbf44783          	lbu	a5,-65(s0)
    800006e6:	853e                	mv	a0,a5
    800006e8:	cd5ff0ef          	jal	ra,800003bc <kputc>
	while ((c = *fmt++) != '\0') {
    800006ec:	f5843783          	ld	a5,-168(s0)
    800006f0:	00178713          	addi	a4,a5,1
    800006f4:	f4e43c23          	sd	a4,-168(s0)
    800006f8:	0007c783          	lbu	a5,0(a5)
    800006fc:	faf40fa3          	sb	a5,-65(s0)
    80000700:	fbf44783          	lbu	a5,-65(s0)
    80000704:	0ff7f793          	zext.b	a5,a5
    80000708:	da0790e3          	bnez	a5,800004a8 <kprintf+0x40>
		}
	}
	va_end(vl);
}
    8000070c:	0001                	nop
    8000070e:	0001                	nop
    80000710:	70aa                	ld	ra,168(sp)
    80000712:	740a                	ld	s0,160(sp)
    80000714:	616d                	addi	sp,sp,240
    80000716:	8082                	ret

0000000080000718 <thread_init>:
extern uint32_t read_flag4();
extern uint32_t read_flag5();
extern uint32_t read_flag6();
extern uint32_t read_flag7();

void thread_init(uint32_t thread_count) {
    80000718:	1101                	addi	sp,sp,-32
    8000071a:	ec06                	sd	ra,24(sp)
    8000071c:	e822                	sd	s0,16(sp)
    8000071e:	1000                	addi	s0,sp,32
    80000720:	87aa                	mv	a5,a0
    80000722:	fef42623          	sw	a5,-20(s0)
    mux_lock();
    80000726:	b37ff0ef          	jal	ra,8000025c <mux_lock>
    thread_cnt = thread_count;
    8000072a:	00020797          	auipc	a5,0x20
    8000072e:	8de78793          	addi	a5,a5,-1826 # 80020008 <thread_cnt>
    80000732:	fec42703          	lw	a4,-20(s0)
    80000736:	c398                	sw	a4,0(a5)
    thread_widx = 0;
    80000738:	00020797          	auipc	a5,0x20
    8000073c:	8c878793          	addi	a5,a5,-1848 # 80020000 <thread_widx>
    80000740:	0007a023          	sw	zero,0(a5)
    thread_ridx = 0;
    80000744:	00020797          	auipc	a5,0x20
    80000748:	8c078793          	addi	a5,a5,-1856 # 80020004 <thread_ridx>
    8000074c:	0007a023          	sw	zero,0(a5)
    mux_unlock();
    80000750:	b4dff0ef          	jal	ra,8000029c <mux_unlock>
    // Active cores from sleep
    REG32(msip, CLINT_MSIP1) = CLINT_MSIPEN;
    80000754:	00001797          	auipc	a5,0x1
    80000758:	34478793          	addi	a5,a5,836 # 80001a98 <msip>
    8000075c:	639c                	ld	a5,0(a5)
    8000075e:	0791                	addi	a5,a5,4
    80000760:	4705                	li	a4,1
    80000762:	c398                	sw	a4,0(a5)
    REG32(msip, CLINT_MSIP2) = CLINT_MSIPEN;
    80000764:	00001797          	auipc	a5,0x1
    80000768:	33478793          	addi	a5,a5,820 # 80001a98 <msip>
    8000076c:	639c                	ld	a5,0(a5)
    8000076e:	07a1                	addi	a5,a5,8
    80000770:	4705                	li	a4,1
    80000772:	c398                	sw	a4,0(a5)
    REG32(msip, CLINT_MSIP3) = CLINT_MSIPEN;
    80000774:	00001797          	auipc	a5,0x1
    80000778:	32478793          	addi	a5,a5,804 # 80001a98 <msip>
    8000077c:	639c                	ld	a5,0(a5)
    8000077e:	07b1                	addi	a5,a5,12
    80000780:	4705                	li	a4,1
    80000782:	c398                	sw	a4,0(a5)
    // REG32(msip, CLINT_MSIP4) = CLINT_MSIPEN;
    // REG32(msip, CLINT_MSIP5) = CLINT_MSIPEN;
    // REG32(msip, CLINT_MSIP6) = CLINT_MSIPEN;
    // REG32(msip, CLINT_MSIP7) = CLINT_MSIPEN;
}
    80000784:	0001                	nop
    80000786:	60e2                	ld	ra,24(sp)
    80000788:	6442                	ld	s0,16(sp)
    8000078a:	6105                	addi	sp,sp,32
    8000078c:	8082                	ret

000000008000078e <thread_create>:

void thread_create(void* funct, void *din0, void *din1, void *dout) {
    8000078e:	7179                	addi	sp,sp,-48
    80000790:	f406                	sd	ra,40(sp)
    80000792:	f022                	sd	s0,32(sp)
    80000794:	1800                	addi	s0,sp,48
    80000796:	fea43423          	sd	a0,-24(s0)
    8000079a:	feb43023          	sd	a1,-32(s0)
    8000079e:	fcc43c23          	sd	a2,-40(s0)
    800007a2:	fcd43823          	sd	a3,-48(s0)
    mux_lock();
    800007a6:	ab7ff0ef          	jal	ra,8000025c <mux_lock>
    thread_queue[thread_widx++] = funct;
    800007aa:	00001797          	auipc	a5,0x1
    800007ae:	2e678793          	addi	a5,a5,742 # 80001a90 <thread_queue>
    800007b2:	6398                	ld	a4,0(a5)
    800007b4:	00020797          	auipc	a5,0x20
    800007b8:	84c78793          	addi	a5,a5,-1972 # 80020000 <thread_widx>
    800007bc:	439c                	lw	a5,0(a5)
    800007be:	2781                	sext.w	a5,a5
    800007c0:	2781                	sext.w	a5,a5
    800007c2:	0017869b          	addiw	a3,a5,1
    800007c6:	0006861b          	sext.w	a2,a3
    800007ca:	00020697          	auipc	a3,0x20
    800007ce:	83668693          	addi	a3,a3,-1994 # 80020000 <thread_widx>
    800007d2:	c290                	sw	a2,0(a3)
    800007d4:	1782                	slli	a5,a5,0x20
    800007d6:	9381                	srli	a5,a5,0x20
    800007d8:	078e                	slli	a5,a5,0x3
    800007da:	97ba                	add	a5,a5,a4
    800007dc:	fe843703          	ld	a4,-24(s0)
    800007e0:	e398                	sd	a4,0(a5)
    thread_queue[thread_widx++] = din0;
    800007e2:	00001797          	auipc	a5,0x1
    800007e6:	2ae78793          	addi	a5,a5,686 # 80001a90 <thread_queue>
    800007ea:	6398                	ld	a4,0(a5)
    800007ec:	00020797          	auipc	a5,0x20
    800007f0:	81478793          	addi	a5,a5,-2028 # 80020000 <thread_widx>
    800007f4:	439c                	lw	a5,0(a5)
    800007f6:	2781                	sext.w	a5,a5
    800007f8:	2781                	sext.w	a5,a5
    800007fa:	0017869b          	addiw	a3,a5,1
    800007fe:	0006861b          	sext.w	a2,a3
    80000802:	0001f697          	auipc	a3,0x1f
    80000806:	7fe68693          	addi	a3,a3,2046 # 80020000 <thread_widx>
    8000080a:	c290                	sw	a2,0(a3)
    8000080c:	1782                	slli	a5,a5,0x20
    8000080e:	9381                	srli	a5,a5,0x20
    80000810:	078e                	slli	a5,a5,0x3
    80000812:	97ba                	add	a5,a5,a4
    80000814:	fe043703          	ld	a4,-32(s0)
    80000818:	e398                	sd	a4,0(a5)
    thread_queue[thread_widx++] = din1;
    8000081a:	00001797          	auipc	a5,0x1
    8000081e:	27678793          	addi	a5,a5,630 # 80001a90 <thread_queue>
    80000822:	6398                	ld	a4,0(a5)
    80000824:	0001f797          	auipc	a5,0x1f
    80000828:	7dc78793          	addi	a5,a5,2012 # 80020000 <thread_widx>
    8000082c:	439c                	lw	a5,0(a5)
    8000082e:	2781                	sext.w	a5,a5
    80000830:	2781                	sext.w	a5,a5
    80000832:	0017869b          	addiw	a3,a5,1
    80000836:	0006861b          	sext.w	a2,a3
    8000083a:	0001f697          	auipc	a3,0x1f
    8000083e:	7c668693          	addi	a3,a3,1990 # 80020000 <thread_widx>
    80000842:	c290                	sw	a2,0(a3)
    80000844:	1782                	slli	a5,a5,0x20
    80000846:	9381                	srli	a5,a5,0x20
    80000848:	078e                	slli	a5,a5,0x3
    8000084a:	97ba                	add	a5,a5,a4
    8000084c:	fd843703          	ld	a4,-40(s0)
    80000850:	e398                	sd	a4,0(a5)
    thread_queue[thread_widx++] = dout;
    80000852:	00001797          	auipc	a5,0x1
    80000856:	23e78793          	addi	a5,a5,574 # 80001a90 <thread_queue>
    8000085a:	6398                	ld	a4,0(a5)
    8000085c:	0001f797          	auipc	a5,0x1f
    80000860:	7a478793          	addi	a5,a5,1956 # 80020000 <thread_widx>
    80000864:	439c                	lw	a5,0(a5)
    80000866:	2781                	sext.w	a5,a5
    80000868:	2781                	sext.w	a5,a5
    8000086a:	0017869b          	addiw	a3,a5,1
    8000086e:	0006861b          	sext.w	a2,a3
    80000872:	0001f697          	auipc	a3,0x1f
    80000876:	78e68693          	addi	a3,a3,1934 # 80020000 <thread_widx>
    8000087a:	c290                	sw	a2,0(a3)
    8000087c:	1782                	slli	a5,a5,0x20
    8000087e:	9381                	srli	a5,a5,0x20
    80000880:	078e                	slli	a5,a5,0x3
    80000882:	97ba                	add	a5,a5,a4
    80000884:	fd043703          	ld	a4,-48(s0)
    80000888:	e398                	sd	a4,0(a5)
    mux_unlock();
    8000088a:	a13ff0ef          	jal	ra,8000029c <mux_unlock>
}
    8000088e:	0001                	nop
    80000890:	70a2                	ld	ra,40(sp)
    80000892:	7402                	ld	s0,32(sp)
    80000894:	6145                	addi	sp,sp,48
    80000896:	8082                	ret

0000000080000898 <thread_run>:

void thread_run() {
    80000898:	7179                	addi	sp,sp,-48
    8000089a:	f406                	sd	ra,40(sp)
    8000089c:	f022                	sd	s0,32(sp)
    8000089e:	1800                	addi	s0,sp,48
    while (1) {
        mux_lock();
    800008a0:	9bdff0ef          	jal	ra,8000025c <mux_lock>
        if ((thread_ridx < thread_widx) && (thread_cnt >0)) {
    800008a4:	0001f797          	auipc	a5,0x1f
    800008a8:	76078793          	addi	a5,a5,1888 # 80020004 <thread_ridx>
    800008ac:	439c                	lw	a5,0(a5)
    800008ae:	0007871b          	sext.w	a4,a5
    800008b2:	0001f797          	auipc	a5,0x1f
    800008b6:	74e78793          	addi	a5,a5,1870 # 80020000 <thread_widx>
    800008ba:	439c                	lw	a5,0(a5)
    800008bc:	2781                	sext.w	a5,a5
    800008be:	12f77463          	bgeu	a4,a5,800009e6 <thread_run+0x14e>
    800008c2:	0001f797          	auipc	a5,0x1f
    800008c6:	74678793          	addi	a5,a5,1862 # 80020008 <thread_cnt>
    800008ca:	439c                	lw	a5,0(a5)
    800008cc:	2781                	sext.w	a5,a5
    800008ce:	10078c63          	beqz	a5,800009e6 <thread_run+0x14e>
            void (*funct)(void*, void*, void*);
            funct = thread_queue[thread_ridx++];
    800008d2:	00001797          	auipc	a5,0x1
    800008d6:	1be78793          	addi	a5,a5,446 # 80001a90 <thread_queue>
    800008da:	6398                	ld	a4,0(a5)
    800008dc:	0001f797          	auipc	a5,0x1f
    800008e0:	72878793          	addi	a5,a5,1832 # 80020004 <thread_ridx>
    800008e4:	439c                	lw	a5,0(a5)
    800008e6:	2781                	sext.w	a5,a5
    800008e8:	2781                	sext.w	a5,a5
    800008ea:	0017869b          	addiw	a3,a5,1
    800008ee:	0006861b          	sext.w	a2,a3
    800008f2:	0001f697          	auipc	a3,0x1f
    800008f6:	71268693          	addi	a3,a3,1810 # 80020004 <thread_ridx>
    800008fa:	c290                	sw	a2,0(a3)
    800008fc:	1782                	slli	a5,a5,0x20
    800008fe:	9381                	srli	a5,a5,0x20
    80000900:	078e                	slli	a5,a5,0x3
    80000902:	97ba                	add	a5,a5,a4
    80000904:	639c                	ld	a5,0(a5)
    80000906:	fef43423          	sd	a5,-24(s0)
            void* din0 = thread_queue[thread_ridx++];
    8000090a:	00001797          	auipc	a5,0x1
    8000090e:	18678793          	addi	a5,a5,390 # 80001a90 <thread_queue>
    80000912:	6398                	ld	a4,0(a5)
    80000914:	0001f797          	auipc	a5,0x1f
    80000918:	6f078793          	addi	a5,a5,1776 # 80020004 <thread_ridx>
    8000091c:	439c                	lw	a5,0(a5)
    8000091e:	2781                	sext.w	a5,a5
    80000920:	2781                	sext.w	a5,a5
    80000922:	0017869b          	addiw	a3,a5,1
    80000926:	0006861b          	sext.w	a2,a3
    8000092a:	0001f697          	auipc	a3,0x1f
    8000092e:	6da68693          	addi	a3,a3,1754 # 80020004 <thread_ridx>
    80000932:	c290                	sw	a2,0(a3)
    80000934:	1782                	slli	a5,a5,0x20
    80000936:	9381                	srli	a5,a5,0x20
    80000938:	078e                	slli	a5,a5,0x3
    8000093a:	97ba                	add	a5,a5,a4
    8000093c:	639c                	ld	a5,0(a5)
    8000093e:	fef43023          	sd	a5,-32(s0)
            void* din1 = thread_queue[thread_ridx++];
    80000942:	00001797          	auipc	a5,0x1
    80000946:	14e78793          	addi	a5,a5,334 # 80001a90 <thread_queue>
    8000094a:	6398                	ld	a4,0(a5)
    8000094c:	0001f797          	auipc	a5,0x1f
    80000950:	6b878793          	addi	a5,a5,1720 # 80020004 <thread_ridx>
    80000954:	439c                	lw	a5,0(a5)
    80000956:	2781                	sext.w	a5,a5
    80000958:	2781                	sext.w	a5,a5
    8000095a:	0017869b          	addiw	a3,a5,1
    8000095e:	0006861b          	sext.w	a2,a3
    80000962:	0001f697          	auipc	a3,0x1f
    80000966:	6a268693          	addi	a3,a3,1698 # 80020004 <thread_ridx>
    8000096a:	c290                	sw	a2,0(a3)
    8000096c:	1782                	slli	a5,a5,0x20
    8000096e:	9381                	srli	a5,a5,0x20
    80000970:	078e                	slli	a5,a5,0x3
    80000972:	97ba                	add	a5,a5,a4
    80000974:	639c                	ld	a5,0(a5)
    80000976:	fcf43c23          	sd	a5,-40(s0)
            void *dout = thread_queue[thread_ridx++];
    8000097a:	00001797          	auipc	a5,0x1
    8000097e:	11678793          	addi	a5,a5,278 # 80001a90 <thread_queue>
    80000982:	6398                	ld	a4,0(a5)
    80000984:	0001f797          	auipc	a5,0x1f
    80000988:	68078793          	addi	a5,a5,1664 # 80020004 <thread_ridx>
    8000098c:	439c                	lw	a5,0(a5)
    8000098e:	2781                	sext.w	a5,a5
    80000990:	2781                	sext.w	a5,a5
    80000992:	0017869b          	addiw	a3,a5,1
    80000996:	0006861b          	sext.w	a2,a3
    8000099a:	0001f697          	auipc	a3,0x1f
    8000099e:	66a68693          	addi	a3,a3,1642 # 80020004 <thread_ridx>
    800009a2:	c290                	sw	a2,0(a3)
    800009a4:	1782                	slli	a5,a5,0x20
    800009a6:	9381                	srli	a5,a5,0x20
    800009a8:	078e                	slli	a5,a5,0x3
    800009aa:	97ba                	add	a5,a5,a4
    800009ac:	639c                	ld	a5,0(a5)
    800009ae:	fcf43823          	sd	a5,-48(s0)
            thread_cnt--;
    800009b2:	0001f797          	auipc	a5,0x1f
    800009b6:	65678793          	addi	a5,a5,1622 # 80020008 <thread_cnt>
    800009ba:	439c                	lw	a5,0(a5)
    800009bc:	2781                	sext.w	a5,a5
    800009be:	37fd                	addiw	a5,a5,-1
    800009c0:	0007871b          	sext.w	a4,a5
    800009c4:	0001f797          	auipc	a5,0x1f
    800009c8:	64478793          	addi	a5,a5,1604 # 80020008 <thread_cnt>
    800009cc:	c398                	sw	a4,0(a5)
            mux_unlock();
    800009ce:	8cfff0ef          	jal	ra,8000029c <mux_unlock>
            funct(din0, din1, dout);
    800009d2:	fe843783          	ld	a5,-24(s0)
    800009d6:	fd043603          	ld	a2,-48(s0)
    800009da:	fd843583          	ld	a1,-40(s0)
    800009de:	fe043503          	ld	a0,-32(s0)
    800009e2:	9782                	jalr	a5
            break;
    800009e4:	a829                	j	800009fe <thread_run+0x166>
        }
        else if (thread_cnt > 0) {
    800009e6:	0001f797          	auipc	a5,0x1f
    800009ea:	62278793          	addi	a5,a5,1570 # 80020008 <thread_cnt>
    800009ee:	439c                	lw	a5,0(a5)
    800009f0:	2781                	sext.w	a5,a5
    800009f2:	c781                	beqz	a5,800009fa <thread_run+0x162>
            mux_unlock();
    800009f4:	8a9ff0ef          	jal	ra,8000029c <mux_unlock>
    800009f8:	b565                	j	800008a0 <thread_run+0x8>
        }
        else {
            mux_unlock();
    800009fa:	8a3ff0ef          	jal	ra,8000029c <mux_unlock>
            break;
        }
    }
    return;
    800009fe:	0001                	nop
}
    80000a00:	70a2                	ld	ra,40(sp)
    80000a02:	7402                	ld	s0,32(sp)
    80000a04:	6145                	addi	sp,sp,48
    80000a06:	8082                	ret

0000000080000a08 <thread_join>:

void thread_join() {
    80000a08:	1101                	addi	sp,sp,-32
    80000a0a:	ec06                	sd	ra,24(sp)
    80000a0c:	e822                	sd	s0,16(sp)
    80000a0e:	1000                	addi	s0,sp,32
    _thread0_entry();
    80000a10:	ec4ff0ef          	jal	ra,800000d4 <_thread0_entry>

    uint32_t core_status = 0;
    80000a14:	fe042623          	sw	zero,-20(s0)

    while (1) {
        core_status = 0;
    80000a18:	fe042623          	sw	zero,-20(s0)
        core_status += read_flag0();
    80000a1c:	925ff0ef          	jal	ra,80000340 <read_flag0>
    80000a20:	87aa                	mv	a5,a0
    80000a22:	2781                	sext.w	a5,a5
    80000a24:	fec42703          	lw	a4,-20(s0)
    80000a28:	9fb9                	addw	a5,a5,a4
    80000a2a:	fef42623          	sw	a5,-20(s0)
        core_status += read_flag1();
    80000a2e:	91fff0ef          	jal	ra,8000034c <read_flag1>
    80000a32:	87aa                	mv	a5,a0
    80000a34:	2781                	sext.w	a5,a5
    80000a36:	fec42703          	lw	a4,-20(s0)
    80000a3a:	9fb9                	addw	a5,a5,a4
    80000a3c:	fef42623          	sw	a5,-20(s0)
        core_status += read_flag2();
    80000a40:	91dff0ef          	jal	ra,8000035c <read_flag2>
    80000a44:	87aa                	mv	a5,a0
    80000a46:	2781                	sext.w	a5,a5
    80000a48:	fec42703          	lw	a4,-20(s0)
    80000a4c:	9fb9                	addw	a5,a5,a4
    80000a4e:	fef42623          	sw	a5,-20(s0)
        core_status += read_flag3();
    80000a52:	91bff0ef          	jal	ra,8000036c <read_flag3>
    80000a56:	87aa                	mv	a5,a0
    80000a58:	2781                	sext.w	a5,a5
    80000a5a:	fec42703          	lw	a4,-20(s0)
    80000a5e:	9fb9                	addw	a5,a5,a4
    80000a60:	fef42623          	sw	a5,-20(s0)
        // core_status += read_flag4();
        // core_status += read_flag5();
        // core_status += read_flag6();
        // core_status += read_flag7();
        if (core_status == 0) break;
    80000a64:	fec42783          	lw	a5,-20(s0)
    80000a68:	2781                	sext.w	a5,a5
    80000a6a:	c391                	beqz	a5,80000a6e <thread_join+0x66>
        core_status = 0;
    80000a6c:	b775                	j	80000a18 <thread_join+0x10>
        if (core_status == 0) break;
    80000a6e:	0001                	nop
    }
}
    80000a70:	0001                	nop
    80000a72:	60e2                	ld	ra,24(sp)
    80000a74:	6442                	ld	s0,16(sp)
    80000a76:	6105                	addi	sp,sp,32
    80000a78:	8082                	ret

0000000080000a7a <matMul>:

mat_t in0[4][(SIZE/2)*(SIZE/2)];
mat_t in1[4][(SIZE/2)*(SIZE/2)];
mat_t out[8][(SIZE/2)*(SIZE/2)];

void matMul(void *din, void *dout) {
    80000a7a:	715d                	addi	sp,sp,-80
    80000a7c:	e486                	sd	ra,72(sp)
    80000a7e:	e0a2                	sd	s0,64(sp)
    80000a80:	0880                	addi	s0,sp,80
    80000a82:	72f5                	lui	t0,0xffffd
    80000a84:	9116                	add	sp,sp,t0
    80000a86:	77f5                	lui	a5,0xffffd
    80000a88:	17c1                	addi	a5,a5,-16 # ffffffffffffcff0 <out+0xffffffff7ffdafe0>
    80000a8a:	97a2                	add	a5,a5,s0
    80000a8c:	fca7b423          	sd	a0,-56(a5)
    80000a90:	77f5                	lui	a5,0xffffd
    80000a92:	17c1                	addi	a5,a5,-16 # ffffffffffffcff0 <out+0xffffffff7ffdafe0>
    80000a94:	97a2                	add	a5,a5,s0
    80000a96:	fcb7b023          	sd	a1,-64(a5)
  mat_t matA[SIZE][SIZE];
  mat_t matB[SIZE][SIZE];
  mat_t matC[SIZE][SIZE];

  mat_t *matOut = (mat_t*)dout;
    80000a9a:	77f5                	lui	a5,0xffffd
    80000a9c:	17c1                	addi	a5,a5,-16 # ffffffffffffcff0 <out+0xffffffff7ffdafe0>
    80000a9e:	97a2                	add	a5,a5,s0
    80000aa0:	fc07b783          	ld	a5,-64(a5)
    80000aa4:	fcf43423          	sd	a5,-56(s0)

  // Intialize
  for (int i = 0; i < SIZE; i++)
    80000aa8:	fe042623          	sw	zero,-20(s0)
    80000aac:	a85d                	j	80000b62 <matMul+0xe8>
    for (int j = 0;  j < SIZE; j++){
    80000aae:	fe042423          	sw	zero,-24(s0)
    80000ab2:	a859                	j	80000b48 <matMul+0xce>
      matA[i][j] = i*SIZE + j;
    80000ab4:	fec42783          	lw	a5,-20(s0)
    80000ab8:	0ff7f793          	zext.b	a5,a5
    80000abc:	0067979b          	slliw	a5,a5,0x6
    80000ac0:	0ff7f713          	zext.b	a4,a5
    80000ac4:	fe842783          	lw	a5,-24(s0)
    80000ac8:	0ff7f793          	zext.b	a5,a5
    80000acc:	9fb9                	addw	a5,a5,a4
    80000ace:	0ff7f713          	zext.b	a4,a5
    80000ad2:	77fd                	lui	a5,0xfffff
    80000ad4:	17c1                	addi	a5,a5,-16 # ffffffffffffeff0 <out+0xffffffff7ffdcfe0>
    80000ad6:	00878633          	add	a2,a5,s0
    80000ada:	fe842683          	lw	a3,-24(s0)
    80000ade:	fec42783          	lw	a5,-20(s0)
    80000ae2:	079a                	slli	a5,a5,0x6
    80000ae4:	97b2                	add	a5,a5,a2
    80000ae6:	97b6                	add	a5,a5,a3
    80000ae8:	fce78c23          	sb	a4,-40(a5)
      matB[i][j] = i*SIZE + j;
    80000aec:	fec42783          	lw	a5,-20(s0)
    80000af0:	0ff7f793          	zext.b	a5,a5
    80000af4:	0067979b          	slliw	a5,a5,0x6
    80000af8:	0ff7f713          	zext.b	a4,a5
    80000afc:	fe842783          	lw	a5,-24(s0)
    80000b00:	0ff7f793          	zext.b	a5,a5
    80000b04:	9fb9                	addw	a5,a5,a4
    80000b06:	0ff7f713          	zext.b	a4,a5
    80000b0a:	77f9                	lui	a5,0xffffe
    80000b0c:	17c1                	addi	a5,a5,-16 # ffffffffffffdff0 <out+0xffffffff7ffdbfe0>
    80000b0e:	00878633          	add	a2,a5,s0
    80000b12:	fe842683          	lw	a3,-24(s0)
    80000b16:	fec42783          	lw	a5,-20(s0)
    80000b1a:	079a                	slli	a5,a5,0x6
    80000b1c:	97b2                	add	a5,a5,a2
    80000b1e:	97b6                	add	a5,a5,a3
    80000b20:	fce78c23          	sb	a4,-40(a5)
      matC[i][j] = 0;
    80000b24:	77f5                	lui	a5,0xffffd
    80000b26:	17c1                	addi	a5,a5,-16 # ffffffffffffcff0 <out+0xffffffff7ffdafe0>
    80000b28:	008786b3          	add	a3,a5,s0
    80000b2c:	fe842703          	lw	a4,-24(s0)
    80000b30:	fec42783          	lw	a5,-20(s0)
    80000b34:	079a                	slli	a5,a5,0x6
    80000b36:	97b6                	add	a5,a5,a3
    80000b38:	97ba                	add	a5,a5,a4
    80000b3a:	fc078c23          	sb	zero,-40(a5)
    for (int j = 0;  j < SIZE; j++){
    80000b3e:	fe842783          	lw	a5,-24(s0)
    80000b42:	2785                	addiw	a5,a5,1
    80000b44:	fef42423          	sw	a5,-24(s0)
    80000b48:	fe842783          	lw	a5,-24(s0)
    80000b4c:	0007871b          	sext.w	a4,a5
    80000b50:	03f00793          	li	a5,63
    80000b54:	f6e7d0e3          	bge	a5,a4,80000ab4 <matMul+0x3a>
  for (int i = 0; i < SIZE; i++)
    80000b58:	fec42783          	lw	a5,-20(s0)
    80000b5c:	2785                	addiw	a5,a5,1
    80000b5e:	fef42623          	sw	a5,-20(s0)
    80000b62:	fec42783          	lw	a5,-20(s0)
    80000b66:	0007871b          	sext.w	a4,a5
    80000b6a:	03f00793          	li	a5,63
    80000b6e:	f4e7d0e3          	bge	a5,a4,80000aae <matMul+0x34>
    }

  // Multiplication
  for (int i = 0; i < SIZE; i++)
    80000b72:	fe042223          	sw	zero,-28(s0)
    80000b76:	a855                	j	80000c2a <matMul+0x1b0>
    for (int j = 0;  j < SIZE; j++){
    80000b78:	fe042023          	sw	zero,-32(s0)
    80000b7c:	a851                	j	80000c10 <matMul+0x196>
      mat_t sum = 0;
    80000b7e:	fc040fa3          	sb	zero,-33(s0)
      for (int k = 0; k < SIZE; k++) {
    80000b82:	fc042c23          	sw	zero,-40(s0)
    80000b86:	a889                	j	80000bd8 <matMul+0x15e>
        sum += matA[i][k]*matB[k][j]; 
    80000b88:	77fd                	lui	a5,0xfffff
    80000b8a:	17c1                	addi	a5,a5,-16 # ffffffffffffeff0 <out+0xffffffff7ffdcfe0>
    80000b8c:	008786b3          	add	a3,a5,s0
    80000b90:	fd842703          	lw	a4,-40(s0)
    80000b94:	fe442783          	lw	a5,-28(s0)
    80000b98:	079a                	slli	a5,a5,0x6
    80000b9a:	97b6                	add	a5,a5,a3
    80000b9c:	97ba                	add	a5,a5,a4
    80000b9e:	fd87c703          	lbu	a4,-40(a5)
    80000ba2:	77f9                	lui	a5,0xffffe
    80000ba4:	17c1                	addi	a5,a5,-16 # ffffffffffffdff0 <out+0xffffffff7ffdbfe0>
    80000ba6:	00878633          	add	a2,a5,s0
    80000baa:	fe042683          	lw	a3,-32(s0)
    80000bae:	fd842783          	lw	a5,-40(s0)
    80000bb2:	079a                	slli	a5,a5,0x6
    80000bb4:	97b2                	add	a5,a5,a2
    80000bb6:	97b6                	add	a5,a5,a3
    80000bb8:	fd87c783          	lbu	a5,-40(a5)
    80000bbc:	02f707bb          	mulw	a5,a4,a5
    80000bc0:	0ff7f793          	zext.b	a5,a5
    80000bc4:	fdf44703          	lbu	a4,-33(s0)
    80000bc8:	9fb9                	addw	a5,a5,a4
    80000bca:	fcf40fa3          	sb	a5,-33(s0)
      for (int k = 0; k < SIZE; k++) {
    80000bce:	fd842783          	lw	a5,-40(s0)
    80000bd2:	2785                	addiw	a5,a5,1
    80000bd4:	fcf42c23          	sw	a5,-40(s0)
    80000bd8:	fd842783          	lw	a5,-40(s0)
    80000bdc:	0007871b          	sext.w	a4,a5
    80000be0:	03f00793          	li	a5,63
    80000be4:	fae7d2e3          	bge	a5,a4,80000b88 <matMul+0x10e>
      }
      matC[i][j] = sum;
    80000be8:	77f5                	lui	a5,0xffffd
    80000bea:	17c1                	addi	a5,a5,-16 # ffffffffffffcff0 <out+0xffffffff7ffdafe0>
    80000bec:	008786b3          	add	a3,a5,s0
    80000bf0:	fe042703          	lw	a4,-32(s0)
    80000bf4:	fe442783          	lw	a5,-28(s0)
    80000bf8:	079a                	slli	a5,a5,0x6
    80000bfa:	97b6                	add	a5,a5,a3
    80000bfc:	97ba                	add	a5,a5,a4
    80000bfe:	fdf44703          	lbu	a4,-33(s0)
    80000c02:	fce78c23          	sb	a4,-40(a5)
    for (int j = 0;  j < SIZE; j++){
    80000c06:	fe042783          	lw	a5,-32(s0)
    80000c0a:	2785                	addiw	a5,a5,1
    80000c0c:	fef42023          	sw	a5,-32(s0)
    80000c10:	fe042783          	lw	a5,-32(s0)
    80000c14:	0007871b          	sext.w	a4,a5
    80000c18:	03f00793          	li	a5,63
    80000c1c:	f6e7d1e3          	bge	a5,a4,80000b7e <matMul+0x104>
  for (int i = 0; i < SIZE; i++)
    80000c20:	fe442783          	lw	a5,-28(s0)
    80000c24:	2785                	addiw	a5,a5,1
    80000c26:	fef42223          	sw	a5,-28(s0)
    80000c2a:	fe442783          	lw	a5,-28(s0)
    80000c2e:	0007871b          	sext.w	a4,a5
    80000c32:	03f00793          	li	a5,63
    80000c36:	f4e7d1e3          	bge	a5,a4,80000b78 <matMul+0xfe>
    }

  // Writeback
  for (int i = 0; i < SIZE; i++)
    80000c3a:	fc042a23          	sw	zero,-44(s0)
    80000c3e:	a095                	j	80000ca2 <matMul+0x228>
    for (int j = 0;  j < SIZE; j++)
    80000c40:	fc042823          	sw	zero,-48(s0)
    80000c44:	a091                	j	80000c88 <matMul+0x20e>
      matOut[i*SIZE + j] = matC[i][j];
    80000c46:	fd442783          	lw	a5,-44(s0)
    80000c4a:	0067979b          	slliw	a5,a5,0x6
    80000c4e:	2781                	sext.w	a5,a5
    80000c50:	fd042703          	lw	a4,-48(s0)
    80000c54:	9fb9                	addw	a5,a5,a4
    80000c56:	2781                	sext.w	a5,a5
    80000c58:	873e                	mv	a4,a5
    80000c5a:	fc843783          	ld	a5,-56(s0)
    80000c5e:	973e                	add	a4,a4,a5
    80000c60:	77f5                	lui	a5,0xffffd
    80000c62:	17c1                	addi	a5,a5,-16 # ffffffffffffcff0 <out+0xffffffff7ffdafe0>
    80000c64:	00878633          	add	a2,a5,s0
    80000c68:	fd042683          	lw	a3,-48(s0)
    80000c6c:	fd442783          	lw	a5,-44(s0)
    80000c70:	079a                	slli	a5,a5,0x6
    80000c72:	97b2                	add	a5,a5,a2
    80000c74:	97b6                	add	a5,a5,a3
    80000c76:	fd87c783          	lbu	a5,-40(a5)
    80000c7a:	00f70023          	sb	a5,0(a4)
    for (int j = 0;  j < SIZE; j++)
    80000c7e:	fd042783          	lw	a5,-48(s0)
    80000c82:	2785                	addiw	a5,a5,1
    80000c84:	fcf42823          	sw	a5,-48(s0)
    80000c88:	fd042783          	lw	a5,-48(s0)
    80000c8c:	0007871b          	sext.w	a4,a5
    80000c90:	03f00793          	li	a5,63
    80000c94:	fae7d9e3          	bge	a5,a4,80000c46 <matMul+0x1cc>
  for (int i = 0; i < SIZE; i++)
    80000c98:	fd442783          	lw	a5,-44(s0)
    80000c9c:	2785                	addiw	a5,a5,1
    80000c9e:	fcf42a23          	sw	a5,-44(s0)
    80000ca2:	fd442783          	lw	a5,-44(s0)
    80000ca6:	0007871b          	sext.w	a4,a5
    80000caa:	03f00793          	li	a5,63
    80000cae:	f8e7d9e3          	bge	a5,a4,80000c40 <matMul+0x1c6>
  
  // Replace the first element with core id for debug
  matOut[0] = get_hartid();
    80000cb2:	e1eff0ef          	jal	ra,800002d0 <get_hartid>
    80000cb6:	87aa                	mv	a5,a0
    80000cb8:	2781                	sext.w	a5,a5
    80000cba:	0ff7f713          	zext.b	a4,a5
    80000cbe:	fc843783          	ld	a5,-56(s0)
    80000cc2:	00e78023          	sb	a4,0(a5)
}
    80000cc6:	0001                	nop
    80000cc8:	628d                	lui	t0,0x3
    80000cca:	9116                	add	sp,sp,t0
    80000ccc:	60a6                	ld	ra,72(sp)
    80000cce:	6406                	ld	s0,64(sp)
    80000cd0:	6161                	addi	sp,sp,80
    80000cd2:	8082                	ret

0000000080000cd4 <strassen_mul>:

void strassen_mul(void *din0, void *din1, void *dout) {
    80000cd4:	81010113          	addi	sp,sp,-2032
    80000cd8:	7e813423          	sd	s0,2024(sp)
    80000cdc:	7f010413          	addi	s0,sp,2032
    80000ce0:	b8010113          	addi	sp,sp,-1152
    80000ce4:	77fd                	lui	a5,0xfffff
    80000ce6:	17c1                	addi	a5,a5,-16 # ffffffffffffeff0 <out+0xffffffff7ffdcfe0>
    80000ce8:	97a2                	add	a5,a5,s0
    80000cea:	3aa7bc23          	sd	a0,952(a5)
    80000cee:	77fd                	lui	a5,0xfffff
    80000cf0:	17c1                	addi	a5,a5,-16 # ffffffffffffeff0 <out+0xffffffff7ffdcfe0>
    80000cf2:	97a2                	add	a5,a5,s0
    80000cf4:	3ab7b823          	sd	a1,944(a5)
    80000cf8:	77fd                	lui	a5,0xfffff
    80000cfa:	17c1                	addi	a5,a5,-16 # ffffffffffffeff0 <out+0xffffffff7ffdcfe0>
    80000cfc:	97a2                	add	a5,a5,s0
    80000cfe:	3ac7b423          	sd	a2,936(a5)
  mat_t matA[SIZE/2][SIZE/2];
  mat_t matB[SIZE/2][SIZE/2];
  mat_t matC[SIZE/2][SIZE/2];

  mat_t *dinA = (mat_t*)din0;
    80000d02:	77fd                	lui	a5,0xfffff
    80000d04:	17c1                	addi	a5,a5,-16 # ffffffffffffeff0 <out+0xffffffff7ffdcfe0>
    80000d06:	97a2                	add	a5,a5,s0
    80000d08:	3b87b783          	ld	a5,952(a5)
    80000d0c:	fcf43423          	sd	a5,-56(s0)
  mat_t *dinB = (mat_t*)din1;
    80000d10:	77fd                	lui	a5,0xfffff
    80000d12:	17c1                	addi	a5,a5,-16 # ffffffffffffeff0 <out+0xffffffff7ffdcfe0>
    80000d14:	97a2                	add	a5,a5,s0
    80000d16:	3b07b783          	ld	a5,944(a5)
    80000d1a:	fcf43023          	sd	a5,-64(s0)

  mat_t *matOut = (mat_t*)dout;
    80000d1e:	77fd                	lui	a5,0xfffff
    80000d20:	17c1                	addi	a5,a5,-16 # ffffffffffffeff0 <out+0xffffffff7ffdcfe0>
    80000d22:	97a2                	add	a5,a5,s0
    80000d24:	3a87b783          	ld	a5,936(a5)
    80000d28:	faf43c23          	sd	a5,-72(s0)

  // Fetch
  for (int i = 0; i < SIZE/2; i++)
    80000d2c:	fe042623          	sw	zero,-20(s0)
    80000d30:	a851                	j	80000dc4 <strassen_mul+0xf0>
    for (int j = 0;  j < SIZE/2; j++){
    80000d32:	fe042423          	sw	zero,-24(s0)
    80000d36:	a89d                	j	80000dac <strassen_mul+0xd8>
      matA[i][j] = dinA[i*(SIZE/2)+j];
    80000d38:	fec42783          	lw	a5,-20(s0)
    80000d3c:	0057979b          	slliw	a5,a5,0x5
    80000d40:	2781                	sext.w	a5,a5
    80000d42:	fe842703          	lw	a4,-24(s0)
    80000d46:	9fb9                	addw	a5,a5,a4
    80000d48:	2781                	sext.w	a5,a5
    80000d4a:	873e                	mv	a4,a5
    80000d4c:	fc843783          	ld	a5,-56(s0)
    80000d50:	97ba                	add	a5,a5,a4
    80000d52:	0007c703          	lbu	a4,0(a5)
    80000d56:	fe842683          	lw	a3,-24(s0)
    80000d5a:	fec42783          	lw	a5,-20(s0)
    80000d5e:	0796                	slli	a5,a5,0x5
    80000d60:	17c1                	addi	a5,a5,-16
    80000d62:	97a2                	add	a5,a5,s0
    80000d64:	97b6                	add	a5,a5,a3
    80000d66:	bce78423          	sb	a4,-1080(a5)
      matB[i][j] = dinB[i*(SIZE/2)+j];
    80000d6a:	fec42783          	lw	a5,-20(s0)
    80000d6e:	0057979b          	slliw	a5,a5,0x5
    80000d72:	2781                	sext.w	a5,a5
    80000d74:	fe842703          	lw	a4,-24(s0)
    80000d78:	9fb9                	addw	a5,a5,a4
    80000d7a:	2781                	sext.w	a5,a5
    80000d7c:	873e                	mv	a4,a5
    80000d7e:	fc043783          	ld	a5,-64(s0)
    80000d82:	97ba                	add	a5,a5,a4
    80000d84:	0007c703          	lbu	a4,0(a5)
    80000d88:	77fd                	lui	a5,0xfffff
    80000d8a:	17c1                	addi	a5,a5,-16 # ffffffffffffeff0 <out+0xffffffff7ffdcfe0>
    80000d8c:	00878633          	add	a2,a5,s0
    80000d90:	fe842683          	lw	a3,-24(s0)
    80000d94:	fec42783          	lw	a5,-20(s0)
    80000d98:	0796                	slli	a5,a5,0x5
    80000d9a:	97b2                	add	a5,a5,a2
    80000d9c:	97b6                	add	a5,a5,a3
    80000d9e:	7ce78423          	sb	a4,1992(a5)
    for (int j = 0;  j < SIZE/2; j++){
    80000da2:	fe842783          	lw	a5,-24(s0)
    80000da6:	2785                	addiw	a5,a5,1
    80000da8:	fef42423          	sw	a5,-24(s0)
    80000dac:	fe842783          	lw	a5,-24(s0)
    80000db0:	0007871b          	sext.w	a4,a5
    80000db4:	47fd                	li	a5,31
    80000db6:	f8e7d1e3          	bge	a5,a4,80000d38 <strassen_mul+0x64>
  for (int i = 0; i < SIZE/2; i++)
    80000dba:	fec42783          	lw	a5,-20(s0)
    80000dbe:	2785                	addiw	a5,a5,1
    80000dc0:	fef42623          	sw	a5,-20(s0)
    80000dc4:	fec42783          	lw	a5,-20(s0)
    80000dc8:	0007871b          	sext.w	a4,a5
    80000dcc:	47fd                	li	a5,31
    80000dce:	f6e7d2e3          	bge	a5,a4,80000d32 <strassen_mul+0x5e>
    }

  // Multiplication
  for (int i = 0; i < SIZE/2; i++)
    80000dd2:	fe042223          	sw	zero,-28(s0)
    80000dd6:	a06d                	j	80000e80 <strassen_mul+0x1ac>
    for (int j = 0;  j < SIZE/2; j++){
    80000dd8:	fe042023          	sw	zero,-32(s0)
    80000ddc:	a071                	j	80000e68 <strassen_mul+0x194>
      mat_t sum = 0;
    80000dde:	fc040fa3          	sb	zero,-33(s0)
      for (int k = 0; k < SIZE/2; k++) {
    80000de2:	fc042c23          	sw	zero,-40(s0)
    80000de6:	a0b1                	j	80000e32 <strassen_mul+0x15e>
        sum += matA[i][k]*matB[k][j]; 
    80000de8:	fd842703          	lw	a4,-40(s0)
    80000dec:	fe442783          	lw	a5,-28(s0)
    80000df0:	0796                	slli	a5,a5,0x5
    80000df2:	17c1                	addi	a5,a5,-16
    80000df4:	97a2                	add	a5,a5,s0
    80000df6:	97ba                	add	a5,a5,a4
    80000df8:	bc87c703          	lbu	a4,-1080(a5)
    80000dfc:	77fd                	lui	a5,0xfffff
    80000dfe:	17c1                	addi	a5,a5,-16 # ffffffffffffeff0 <out+0xffffffff7ffdcfe0>
    80000e00:	00878633          	add	a2,a5,s0
    80000e04:	fe042683          	lw	a3,-32(s0)
    80000e08:	fd842783          	lw	a5,-40(s0)
    80000e0c:	0796                	slli	a5,a5,0x5
    80000e0e:	97b2                	add	a5,a5,a2
    80000e10:	97b6                	add	a5,a5,a3
    80000e12:	7c87c783          	lbu	a5,1992(a5)
    80000e16:	02f707bb          	mulw	a5,a4,a5
    80000e1a:	0ff7f793          	zext.b	a5,a5
    80000e1e:	fdf44703          	lbu	a4,-33(s0)
    80000e22:	9fb9                	addw	a5,a5,a4
    80000e24:	fcf40fa3          	sb	a5,-33(s0)
      for (int k = 0; k < SIZE/2; k++) {
    80000e28:	fd842783          	lw	a5,-40(s0)
    80000e2c:	2785                	addiw	a5,a5,1
    80000e2e:	fcf42c23          	sw	a5,-40(s0)
    80000e32:	fd842783          	lw	a5,-40(s0)
    80000e36:	0007871b          	sext.w	a4,a5
    80000e3a:	47fd                	li	a5,31
    80000e3c:	fae7d6e3          	bge	a5,a4,80000de8 <strassen_mul+0x114>
      }
      matC[i][j] = sum;
    80000e40:	77fd                	lui	a5,0xfffff
    80000e42:	17c1                	addi	a5,a5,-16 # ffffffffffffeff0 <out+0xffffffff7ffdcfe0>
    80000e44:	008786b3          	add	a3,a5,s0
    80000e48:	fe042703          	lw	a4,-32(s0)
    80000e4c:	fe442783          	lw	a5,-28(s0)
    80000e50:	0796                	slli	a5,a5,0x5
    80000e52:	97b6                	add	a5,a5,a3
    80000e54:	97ba                	add	a5,a5,a4
    80000e56:	fdf44703          	lbu	a4,-33(s0)
    80000e5a:	3ce78423          	sb	a4,968(a5)
    for (int j = 0;  j < SIZE/2; j++){
    80000e5e:	fe042783          	lw	a5,-32(s0)
    80000e62:	2785                	addiw	a5,a5,1
    80000e64:	fef42023          	sw	a5,-32(s0)
    80000e68:	fe042783          	lw	a5,-32(s0)
    80000e6c:	0007871b          	sext.w	a4,a5
    80000e70:	47fd                	li	a5,31
    80000e72:	f6e7d6e3          	bge	a5,a4,80000dde <strassen_mul+0x10a>
  for (int i = 0; i < SIZE/2; i++)
    80000e76:	fe442783          	lw	a5,-28(s0)
    80000e7a:	2785                	addiw	a5,a5,1
    80000e7c:	fef42223          	sw	a5,-28(s0)
    80000e80:	fe442783          	lw	a5,-28(s0)
    80000e84:	0007871b          	sext.w	a4,a5
    80000e88:	47fd                	li	a5,31
    80000e8a:	f4e7d7e3          	bge	a5,a4,80000dd8 <strassen_mul+0x104>
    }

  // Writeback
  for (int i = 0; i < SIZE/2; i++)
    80000e8e:	fc042a23          	sw	zero,-44(s0)
    80000e92:	a08d                	j	80000ef4 <strassen_mul+0x220>
    for (int j = 0;  j < SIZE/2; j++)
    80000e94:	fc042823          	sw	zero,-48(s0)
    80000e98:	a091                	j	80000edc <strassen_mul+0x208>
      matOut[i*(SIZE/2) + j] = matC[i][j];
    80000e9a:	fd442783          	lw	a5,-44(s0)
    80000e9e:	0057979b          	slliw	a5,a5,0x5
    80000ea2:	2781                	sext.w	a5,a5
    80000ea4:	fd042703          	lw	a4,-48(s0)
    80000ea8:	9fb9                	addw	a5,a5,a4
    80000eaa:	2781                	sext.w	a5,a5
    80000eac:	873e                	mv	a4,a5
    80000eae:	fb843783          	ld	a5,-72(s0)
    80000eb2:	973e                	add	a4,a4,a5
    80000eb4:	77fd                	lui	a5,0xfffff
    80000eb6:	17c1                	addi	a5,a5,-16 # ffffffffffffeff0 <out+0xffffffff7ffdcfe0>
    80000eb8:	00878633          	add	a2,a5,s0
    80000ebc:	fd042683          	lw	a3,-48(s0)
    80000ec0:	fd442783          	lw	a5,-44(s0)
    80000ec4:	0796                	slli	a5,a5,0x5
    80000ec6:	97b2                	add	a5,a5,a2
    80000ec8:	97b6                	add	a5,a5,a3
    80000eca:	3c87c783          	lbu	a5,968(a5)
    80000ece:	00f70023          	sb	a5,0(a4)
    for (int j = 0;  j < SIZE/2; j++)
    80000ed2:	fd042783          	lw	a5,-48(s0)
    80000ed6:	2785                	addiw	a5,a5,1
    80000ed8:	fcf42823          	sw	a5,-48(s0)
    80000edc:	fd042783          	lw	a5,-48(s0)
    80000ee0:	0007871b          	sext.w	a4,a5
    80000ee4:	47fd                	li	a5,31
    80000ee6:	fae7dae3          	bge	a5,a4,80000e9a <strassen_mul+0x1c6>
  for (int i = 0; i < SIZE/2; i++)
    80000eea:	fd442783          	lw	a5,-44(s0)
    80000eee:	2785                	addiw	a5,a5,1
    80000ef0:	fcf42a23          	sw	a5,-44(s0)
    80000ef4:	fd442783          	lw	a5,-44(s0)
    80000ef8:	0007871b          	sext.w	a4,a5
    80000efc:	47fd                	li	a5,31
    80000efe:	f8e7dbe3          	bge	a5,a4,80000e94 <strassen_mul+0x1c0>
  
}
    80000f02:	0001                	nop
    80000f04:	0001                	nop
    80000f06:	48010113          	addi	sp,sp,1152
    80000f0a:	7e813403          	ld	s0,2024(sp)
    80000f0e:	7f010113          	addi	sp,sp,2032
    80000f12:	8082                	ret

0000000080000f14 <strassen_add>:

void strassen_add(void *din0, void *din1, void *dout) {
    80000f14:	81010113          	addi	sp,sp,-2032
    80000f18:	7e813423          	sd	s0,2024(sp)
    80000f1c:	7f010413          	addi	s0,sp,2032
    80000f20:	b9010113          	addi	sp,sp,-1136
    80000f24:	77fd                	lui	a5,0xfffff
    80000f26:	17c1                	addi	a5,a5,-16 # ffffffffffffeff0 <out+0xffffffff7ffdcfe0>
    80000f28:	97a2                	add	a5,a5,s0
    80000f2a:	3ca7b423          	sd	a0,968(a5)
    80000f2e:	77fd                	lui	a5,0xfffff
    80000f30:	17c1                	addi	a5,a5,-16 # ffffffffffffeff0 <out+0xffffffff7ffdcfe0>
    80000f32:	97a2                	add	a5,a5,s0
    80000f34:	3cb7b023          	sd	a1,960(a5)
    80000f38:	77fd                	lui	a5,0xfffff
    80000f3a:	17c1                	addi	a5,a5,-16 # ffffffffffffeff0 <out+0xffffffff7ffdcfe0>
    80000f3c:	97a2                	add	a5,a5,s0
    80000f3e:	3ac7bc23          	sd	a2,952(a5)
  mat_t matA[SIZE/2][SIZE/2];
  mat_t matB[SIZE/2][SIZE/2];
  mat_t matC[SIZE/2][SIZE/2];

  mat_t *dinA = (mat_t*)din0;
    80000f42:	77fd                	lui	a5,0xfffff
    80000f44:	17c1                	addi	a5,a5,-16 # ffffffffffffeff0 <out+0xffffffff7ffdcfe0>
    80000f46:	97a2                	add	a5,a5,s0
    80000f48:	3c87b783          	ld	a5,968(a5)
    80000f4c:	fcf43823          	sd	a5,-48(s0)
  mat_t *dinB = (mat_t*)din1;
    80000f50:	77fd                	lui	a5,0xfffff
    80000f52:	17c1                	addi	a5,a5,-16 # ffffffffffffeff0 <out+0xffffffff7ffdcfe0>
    80000f54:	97a2                	add	a5,a5,s0
    80000f56:	3c07b783          	ld	a5,960(a5)
    80000f5a:	fcf43423          	sd	a5,-56(s0)
  mat_t *matOut = (mat_t*)dout;
    80000f5e:	77fd                	lui	a5,0xfffff
    80000f60:	17c1                	addi	a5,a5,-16 # ffffffffffffeff0 <out+0xffffffff7ffdcfe0>
    80000f62:	97a2                	add	a5,a5,s0
    80000f64:	3b87b783          	ld	a5,952(a5)
    80000f68:	fcf43023          	sd	a5,-64(s0)

  // Fetch
  for (int i = 0; i < SIZE/2; i++)
    80000f6c:	fe042623          	sw	zero,-20(s0)
    80000f70:	a851                	j	80001004 <strassen_add+0xf0>
    for (int j = 0;  j < SIZE/2; j++){
    80000f72:	fe042423          	sw	zero,-24(s0)
    80000f76:	a89d                	j	80000fec <strassen_add+0xd8>
      matA[i][j] = dinA[i*(SIZE/2)+j];
    80000f78:	fec42783          	lw	a5,-20(s0)
    80000f7c:	0057979b          	slliw	a5,a5,0x5
    80000f80:	2781                	sext.w	a5,a5
    80000f82:	fe842703          	lw	a4,-24(s0)
    80000f86:	9fb9                	addw	a5,a5,a4
    80000f88:	2781                	sext.w	a5,a5
    80000f8a:	873e                	mv	a4,a5
    80000f8c:	fd043783          	ld	a5,-48(s0)
    80000f90:	97ba                	add	a5,a5,a4
    80000f92:	0007c703          	lbu	a4,0(a5)
    80000f96:	fe842683          	lw	a3,-24(s0)
    80000f9a:	fec42783          	lw	a5,-20(s0)
    80000f9e:	0796                	slli	a5,a5,0x5
    80000fa0:	17c1                	addi	a5,a5,-16
    80000fa2:	97a2                	add	a5,a5,s0
    80000fa4:	97b6                	add	a5,a5,a3
    80000fa6:	bce78823          	sb	a4,-1072(a5)
      matB[i][j] = dinB[i*(SIZE/2)+j];
    80000faa:	fec42783          	lw	a5,-20(s0)
    80000fae:	0057979b          	slliw	a5,a5,0x5
    80000fb2:	2781                	sext.w	a5,a5
    80000fb4:	fe842703          	lw	a4,-24(s0)
    80000fb8:	9fb9                	addw	a5,a5,a4
    80000fba:	2781                	sext.w	a5,a5
    80000fbc:	873e                	mv	a4,a5
    80000fbe:	fc843783          	ld	a5,-56(s0)
    80000fc2:	97ba                	add	a5,a5,a4
    80000fc4:	0007c703          	lbu	a4,0(a5)
    80000fc8:	77fd                	lui	a5,0xfffff
    80000fca:	17c1                	addi	a5,a5,-16 # ffffffffffffeff0 <out+0xffffffff7ffdcfe0>
    80000fcc:	00878633          	add	a2,a5,s0
    80000fd0:	fe842683          	lw	a3,-24(s0)
    80000fd4:	fec42783          	lw	a5,-20(s0)
    80000fd8:	0796                	slli	a5,a5,0x5
    80000fda:	97b2                	add	a5,a5,a2
    80000fdc:	97b6                	add	a5,a5,a3
    80000fde:	7ce78823          	sb	a4,2000(a5)
    for (int j = 0;  j < SIZE/2; j++){
    80000fe2:	fe842783          	lw	a5,-24(s0)
    80000fe6:	2785                	addiw	a5,a5,1
    80000fe8:	fef42423          	sw	a5,-24(s0)
    80000fec:	fe842783          	lw	a5,-24(s0)
    80000ff0:	0007871b          	sext.w	a4,a5
    80000ff4:	47fd                	li	a5,31
    80000ff6:	f8e7d1e3          	bge	a5,a4,80000f78 <strassen_add+0x64>
  for (int i = 0; i < SIZE/2; i++)
    80000ffa:	fec42783          	lw	a5,-20(s0)
    80000ffe:	2785                	addiw	a5,a5,1
    80001000:	fef42623          	sw	a5,-20(s0)
    80001004:	fec42783          	lw	a5,-20(s0)
    80001008:	0007871b          	sext.w	a4,a5
    8000100c:	47fd                	li	a5,31
    8000100e:	f6e7d2e3          	bge	a5,a4,80000f72 <strassen_add+0x5e>
    }

  for (int i = 0; i < SIZE/2; i++)
    80001012:	fe042223          	sw	zero,-28(s0)
    80001016:	a8a5                	j	8000108e <strassen_add+0x17a>
    for (int j = 0;  j < SIZE/2; j++)
    80001018:	fe042023          	sw	zero,-32(s0)
    8000101c:	a8a9                	j	80001076 <strassen_add+0x162>
      matC[i][j] = matA[i][j] + matB[i][j];
    8000101e:	fe042703          	lw	a4,-32(s0)
    80001022:	fe442783          	lw	a5,-28(s0)
    80001026:	0796                	slli	a5,a5,0x5
    80001028:	17c1                	addi	a5,a5,-16
    8000102a:	97a2                	add	a5,a5,s0
    8000102c:	97ba                	add	a5,a5,a4
    8000102e:	bd07c703          	lbu	a4,-1072(a5)
    80001032:	77fd                	lui	a5,0xfffff
    80001034:	17c1                	addi	a5,a5,-16 # ffffffffffffeff0 <out+0xffffffff7ffdcfe0>
    80001036:	00878633          	add	a2,a5,s0
    8000103a:	fe042683          	lw	a3,-32(s0)
    8000103e:	fe442783          	lw	a5,-28(s0)
    80001042:	0796                	slli	a5,a5,0x5
    80001044:	97b2                	add	a5,a5,a2
    80001046:	97b6                	add	a5,a5,a3
    80001048:	7d07c783          	lbu	a5,2000(a5)
    8000104c:	9fb9                	addw	a5,a5,a4
    8000104e:	0ff7f713          	zext.b	a4,a5
    80001052:	77fd                	lui	a5,0xfffff
    80001054:	17c1                	addi	a5,a5,-16 # ffffffffffffeff0 <out+0xffffffff7ffdcfe0>
    80001056:	00878633          	add	a2,a5,s0
    8000105a:	fe042683          	lw	a3,-32(s0)
    8000105e:	fe442783          	lw	a5,-28(s0)
    80001062:	0796                	slli	a5,a5,0x5
    80001064:	97b2                	add	a5,a5,a2
    80001066:	97b6                	add	a5,a5,a3
    80001068:	3ce78823          	sb	a4,976(a5)
    for (int j = 0;  j < SIZE/2; j++)
    8000106c:	fe042783          	lw	a5,-32(s0)
    80001070:	2785                	addiw	a5,a5,1
    80001072:	fef42023          	sw	a5,-32(s0)
    80001076:	fe042783          	lw	a5,-32(s0)
    8000107a:	0007871b          	sext.w	a4,a5
    8000107e:	47fd                	li	a5,31
    80001080:	f8e7dfe3          	bge	a5,a4,8000101e <strassen_add+0x10a>
  for (int i = 0; i < SIZE/2; i++)
    80001084:	fe442783          	lw	a5,-28(s0)
    80001088:	2785                	addiw	a5,a5,1
    8000108a:	fef42223          	sw	a5,-28(s0)
    8000108e:	fe442783          	lw	a5,-28(s0)
    80001092:	0007871b          	sext.w	a4,a5
    80001096:	47fd                	li	a5,31
    80001098:	f8e7d0e3          	bge	a5,a4,80001018 <strassen_add+0x104>

  // Writeback
  for (int i = 0; i < SIZE/2; i++)
    8000109c:	fc042e23          	sw	zero,-36(s0)
    800010a0:	a08d                	j	80001102 <strassen_add+0x1ee>
    for (int j = 0;  j < SIZE/2; j++)
    800010a2:	fc042c23          	sw	zero,-40(s0)
    800010a6:	a091                	j	800010ea <strassen_add+0x1d6>
      matOut[i*(SIZE/2) + j] = matC[i][j];
    800010a8:	fdc42783          	lw	a5,-36(s0)
    800010ac:	0057979b          	slliw	a5,a5,0x5
    800010b0:	2781                	sext.w	a5,a5
    800010b2:	fd842703          	lw	a4,-40(s0)
    800010b6:	9fb9                	addw	a5,a5,a4
    800010b8:	2781                	sext.w	a5,a5
    800010ba:	873e                	mv	a4,a5
    800010bc:	fc043783          	ld	a5,-64(s0)
    800010c0:	973e                	add	a4,a4,a5
    800010c2:	77fd                	lui	a5,0xfffff
    800010c4:	17c1                	addi	a5,a5,-16 # ffffffffffffeff0 <out+0xffffffff7ffdcfe0>
    800010c6:	00878633          	add	a2,a5,s0
    800010ca:	fd842683          	lw	a3,-40(s0)
    800010ce:	fdc42783          	lw	a5,-36(s0)
    800010d2:	0796                	slli	a5,a5,0x5
    800010d4:	97b2                	add	a5,a5,a2
    800010d6:	97b6                	add	a5,a5,a3
    800010d8:	3d07c783          	lbu	a5,976(a5)
    800010dc:	00f70023          	sb	a5,0(a4)
    for (int j = 0;  j < SIZE/2; j++)
    800010e0:	fd842783          	lw	a5,-40(s0)
    800010e4:	2785                	addiw	a5,a5,1
    800010e6:	fcf42c23          	sw	a5,-40(s0)
    800010ea:	fd842783          	lw	a5,-40(s0)
    800010ee:	0007871b          	sext.w	a4,a5
    800010f2:	47fd                	li	a5,31
    800010f4:	fae7dae3          	bge	a5,a4,800010a8 <strassen_add+0x194>
  for (int i = 0; i < SIZE/2; i++)
    800010f8:	fdc42783          	lw	a5,-36(s0)
    800010fc:	2785                	addiw	a5,a5,1
    800010fe:	fcf42e23          	sw	a5,-36(s0)
    80001102:	fdc42783          	lw	a5,-36(s0)
    80001106:	0007871b          	sext.w	a4,a5
    8000110a:	47fd                	li	a5,31
    8000110c:	f8e7dbe3          	bge	a5,a4,800010a2 <strassen_add+0x18e>

}
    80001110:	0001                	nop
    80001112:	0001                	nop
    80001114:	47010113          	addi	sp,sp,1136
    80001118:	7e813403          	ld	s0,2024(sp)
    8000111c:	7f010113          	addi	sp,sp,2032
    80001120:	8082                	ret

0000000080001122 <main>:

int main(int hartid, char **argv) {
    80001122:	7155                	addi	sp,sp,-208
    80001124:	e586                	sd	ra,200(sp)
    80001126:	e1a2                	sd	s0,192(sp)
    80001128:	0980                	addi	s0,sp,208
    8000112a:	72f5                	lui	t0,0xffffd
    8000112c:	9116                	add	sp,sp,t0
    8000112e:	872a                	mv	a4,a0
    80001130:	77f5                	lui	a5,0xffffd
    80001132:	17c1                	addi	a5,a5,-16 # ffffffffffffcff0 <out+0xffffffff7ffdafe0>
    80001134:	97a2                	add	a5,a5,s0
    80001136:	f4b7b023          	sd	a1,-192(a5)
    8000113a:	77f5                	lui	a5,0xffffd
    8000113c:	17c1                	addi	a5,a5,-16 # ffffffffffffcff0 <out+0xffffffff7ffdafe0>
    8000113e:	97a2                	add	a5,a5,s0
    80001140:	f4e7a623          	sw	a4,-180(a5)

  REG32(uart, UART_REG_TXCTRL) = UART_TXEN;
    80001144:	640007b7          	lui	a5,0x64000
    80001148:	07a1                	addi	a5,a5,8 # 64000008 <_prog_start-0x1bfffff8>
    8000114a:	4705                	li	a4,1
    8000114c:	c398                	sw	a4,0(a5)
  mat_t matA[SIZE][SIZE];
  mat_t matB[SIZE][SIZE];
  mat_t matC[SIZE][SIZE];

  // Intialize
  for (int i = 0; i < SIZE; i++)
    8000114e:	fe042623          	sw	zero,-20(s0)
    80001152:	a85d                	j	80001208 <main+0xe6>
    for (int j = 0;  j < SIZE; j++){
    80001154:	fe042423          	sw	zero,-24(s0)
    80001158:	a859                	j	800011ee <main+0xcc>
      matA[i][j] = i*SIZE + j;
    8000115a:	fec42783          	lw	a5,-20(s0)
    8000115e:	0ff7f793          	zext.b	a5,a5
    80001162:	0067979b          	slliw	a5,a5,0x6
    80001166:	0ff7f713          	zext.b	a4,a5
    8000116a:	fe842783          	lw	a5,-24(s0)
    8000116e:	0ff7f793          	zext.b	a5,a5
    80001172:	9fb9                	addw	a5,a5,a4
    80001174:	0ff7f713          	zext.b	a4,a5
    80001178:	77fd                	lui	a5,0xfffff
    8000117a:	17c1                	addi	a5,a5,-16 # ffffffffffffeff0 <out+0xffffffff7ffdcfe0>
    8000117c:	00878633          	add	a2,a5,s0
    80001180:	fe842683          	lw	a3,-24(s0)
    80001184:	fec42783          	lw	a5,-20(s0)
    80001188:	079a                	slli	a5,a5,0x6
    8000118a:	97b2                	add	a5,a5,a2
    8000118c:	97b6                	add	a5,a5,a3
    8000118e:	f4e78c23          	sb	a4,-168(a5)
      matB[i][j] = i*SIZE + j;
    80001192:	fec42783          	lw	a5,-20(s0)
    80001196:	0ff7f793          	zext.b	a5,a5
    8000119a:	0067979b          	slliw	a5,a5,0x6
    8000119e:	0ff7f713          	zext.b	a4,a5
    800011a2:	fe842783          	lw	a5,-24(s0)
    800011a6:	0ff7f793          	zext.b	a5,a5
    800011aa:	9fb9                	addw	a5,a5,a4
    800011ac:	0ff7f713          	zext.b	a4,a5
    800011b0:	77f9                	lui	a5,0xffffe
    800011b2:	17c1                	addi	a5,a5,-16 # ffffffffffffdff0 <out+0xffffffff7ffdbfe0>
    800011b4:	00878633          	add	a2,a5,s0
    800011b8:	fe842683          	lw	a3,-24(s0)
    800011bc:	fec42783          	lw	a5,-20(s0)
    800011c0:	079a                	slli	a5,a5,0x6
    800011c2:	97b2                	add	a5,a5,a2
    800011c4:	97b6                	add	a5,a5,a3
    800011c6:	f4e78c23          	sb	a4,-168(a5)
      matC[i][j] = 0;
    800011ca:	77f5                	lui	a5,0xffffd
    800011cc:	17c1                	addi	a5,a5,-16 # ffffffffffffcff0 <out+0xffffffff7ffdafe0>
    800011ce:	008786b3          	add	a3,a5,s0
    800011d2:	fe842703          	lw	a4,-24(s0)
    800011d6:	fec42783          	lw	a5,-20(s0)
    800011da:	079a                	slli	a5,a5,0x6
    800011dc:	97b6                	add	a5,a5,a3
    800011de:	97ba                	add	a5,a5,a4
    800011e0:	f4078c23          	sb	zero,-168(a5)
    for (int j = 0;  j < SIZE; j++){
    800011e4:	fe842783          	lw	a5,-24(s0)
    800011e8:	2785                	addiw	a5,a5,1
    800011ea:	fef42423          	sw	a5,-24(s0)
    800011ee:	fe842783          	lw	a5,-24(s0)
    800011f2:	0007871b          	sext.w	a4,a5
    800011f6:	03f00793          	li	a5,63
    800011fa:	f6e7d0e3          	bge	a5,a4,8000115a <main+0x38>
  for (int i = 0; i < SIZE; i++)
    800011fe:	fec42783          	lw	a5,-20(s0)
    80001202:	2785                	addiw	a5,a5,1
    80001204:	fef42623          	sw	a5,-20(s0)
    80001208:	fec42783          	lw	a5,-20(s0)
    8000120c:	0007871b          	sext.w	a4,a5
    80001210:	03f00793          	li	a5,63
    80001214:	f4e7d0e3          	bge	a5,a4,80001154 <main+0x32>
    }


  t_start = read_csr(mcycle);
    80001218:	b00027f3          	csrr	a5,mcycle
    8000121c:	f8f43023          	sd	a5,-128(s0)
    80001220:	f8043783          	ld	a5,-128(s0)
    80001224:	f6f43c23          	sd	a5,-136(s0)
  // Multiplication
  for (int i = 0; i < SIZE; i++)
    80001228:	fe042223          	sw	zero,-28(s0)
    8000122c:	a855                	j	800012e0 <main+0x1be>
    for (int j = 0;  j < SIZE; j++){
    8000122e:	fe042023          	sw	zero,-32(s0)
    80001232:	a851                	j	800012c6 <main+0x1a4>
      mat_t sum = 0;
    80001234:	fc040fa3          	sb	zero,-33(s0)
      for (int k = 0; k < SIZE; k++) {
    80001238:	fc042c23          	sw	zero,-40(s0)
    8000123c:	a889                	j	8000128e <main+0x16c>
        sum += matA[i][k]*matB[k][j]; 
    8000123e:	77fd                	lui	a5,0xfffff
    80001240:	17c1                	addi	a5,a5,-16 # ffffffffffffeff0 <out+0xffffffff7ffdcfe0>
    80001242:	008786b3          	add	a3,a5,s0
    80001246:	fd842703          	lw	a4,-40(s0)
    8000124a:	fe442783          	lw	a5,-28(s0)
    8000124e:	079a                	slli	a5,a5,0x6
    80001250:	97b6                	add	a5,a5,a3
    80001252:	97ba                	add	a5,a5,a4
    80001254:	f587c703          	lbu	a4,-168(a5)
    80001258:	77f9                	lui	a5,0xffffe
    8000125a:	17c1                	addi	a5,a5,-16 # ffffffffffffdff0 <out+0xffffffff7ffdbfe0>
    8000125c:	00878633          	add	a2,a5,s0
    80001260:	fe042683          	lw	a3,-32(s0)
    80001264:	fd842783          	lw	a5,-40(s0)
    80001268:	079a                	slli	a5,a5,0x6
    8000126a:	97b2                	add	a5,a5,a2
    8000126c:	97b6                	add	a5,a5,a3
    8000126e:	f587c783          	lbu	a5,-168(a5)
    80001272:	02f707bb          	mulw	a5,a4,a5
    80001276:	0ff7f793          	zext.b	a5,a5
    8000127a:	fdf44703          	lbu	a4,-33(s0)
    8000127e:	9fb9                	addw	a5,a5,a4
    80001280:	fcf40fa3          	sb	a5,-33(s0)
      for (int k = 0; k < SIZE; k++) {
    80001284:	fd842783          	lw	a5,-40(s0)
    80001288:	2785                	addiw	a5,a5,1
    8000128a:	fcf42c23          	sw	a5,-40(s0)
    8000128e:	fd842783          	lw	a5,-40(s0)
    80001292:	0007871b          	sext.w	a4,a5
    80001296:	03f00793          	li	a5,63
    8000129a:	fae7d2e3          	bge	a5,a4,8000123e <main+0x11c>
      }
      matC[i][j] = sum;
    8000129e:	77f5                	lui	a5,0xffffd
    800012a0:	17c1                	addi	a5,a5,-16 # ffffffffffffcff0 <out+0xffffffff7ffdafe0>
    800012a2:	008786b3          	add	a3,a5,s0
    800012a6:	fe042703          	lw	a4,-32(s0)
    800012aa:	fe442783          	lw	a5,-28(s0)
    800012ae:	079a                	slli	a5,a5,0x6
    800012b0:	97b6                	add	a5,a5,a3
    800012b2:	97ba                	add	a5,a5,a4
    800012b4:	fdf44703          	lbu	a4,-33(s0)
    800012b8:	f4e78c23          	sb	a4,-168(a5)
    for (int j = 0;  j < SIZE; j++){
    800012bc:	fe042783          	lw	a5,-32(s0)
    800012c0:	2785                	addiw	a5,a5,1
    800012c2:	fef42023          	sw	a5,-32(s0)
    800012c6:	fe042783          	lw	a5,-32(s0)
    800012ca:	0007871b          	sext.w	a4,a5
    800012ce:	03f00793          	li	a5,63
    800012d2:	f6e7d1e3          	bge	a5,a4,80001234 <main+0x112>
  for (int i = 0; i < SIZE; i++)
    800012d6:	fe442783          	lw	a5,-28(s0)
    800012da:	2785                	addiw	a5,a5,1
    800012dc:	fef42223          	sw	a5,-28(s0)
    800012e0:	fe442783          	lw	a5,-28(s0)
    800012e4:	0007871b          	sext.w	a4,a5
    800012e8:	03f00793          	li	a5,63
    800012ec:	f4e7d1e3          	bge	a5,a4,8000122e <main+0x10c>
    }
  t_end = read_csr(mcycle);
    800012f0:	b00027f3          	csrr	a5,mcycle
    800012f4:	f6f43823          	sd	a5,-144(s0)
    800012f8:	f7043783          	ld	a5,-144(s0)
    800012fc:	f6f43423          	sd	a5,-152(s0)

  ts_gap = t_end - t_start;
    80001300:	f6843703          	ld	a4,-152(s0)
    80001304:	f7843783          	ld	a5,-136(s0)
    80001308:	40f707b3          	sub	a5,a4,a5
    8000130c:	f6f43023          	sd	a5,-160(s0)
  kprintf("Single core: %l(cycles) \r\n", ts_gap);
    80001310:	f6043583          	ld	a1,-160(s0)
    80001314:	00001517          	auipc	a0,0x1
    80001318:	82c50513          	addi	a0,a0,-2004 # 80001b40 <dump+0x60>
    8000131c:	94cff0ef          	jal	ra,80000468 <kprintf>

  // ======================================================
  // Run matrix multiplication on eight core

  t_start = read_csr(mcycle);
    80001320:	b00027f3          	csrr	a5,mcycle
    80001324:	f4f43c23          	sd	a5,-168(s0)
    80001328:	f5843783          	ld	a5,-168(s0)
    8000132c:	f6f43c23          	sd	a5,-136(s0)
  int k = 0;
    80001330:	fc042a23          	sw	zero,-44(s0)

  // Split matrix
  for (int i = 0; i < SIZE/2; i++)
    80001334:	fc042823          	sw	zero,-48(s0)
    80001338:	a071                	j	800013c4 <main+0x2a2>
    for (int j = 0; j < SIZE/2; j++) {
    8000133a:	fc042623          	sw	zero,-52(s0)
    8000133e:	a0bd                	j	800013ac <main+0x28a>
      in0[0][k] = matA[i][j];
    80001340:	77fd                	lui	a5,0xfffff
    80001342:	17c1                	addi	a5,a5,-16 # ffffffffffffeff0 <out+0xffffffff7ffdcfe0>
    80001344:	008786b3          	add	a3,a5,s0
    80001348:	fcc42703          	lw	a4,-52(s0)
    8000134c:	fd042783          	lw	a5,-48(s0)
    80001350:	079a                	slli	a5,a5,0x6
    80001352:	97b6                	add	a5,a5,a3
    80001354:	97ba                	add	a5,a5,a4
    80001356:	f587c703          	lbu	a4,-168(a5)
    8000135a:	0001f697          	auipc	a3,0x1f
    8000135e:	cb668693          	addi	a3,a3,-842 # 80020010 <in0>
    80001362:	fd442783          	lw	a5,-44(s0)
    80001366:	97b6                	add	a5,a5,a3
    80001368:	00e78023          	sb	a4,0(a5)
      in1[0][k] = matB[i][j];
    8000136c:	77f9                	lui	a5,0xffffe
    8000136e:	17c1                	addi	a5,a5,-16 # ffffffffffffdff0 <out+0xffffffff7ffdbfe0>
    80001370:	008786b3          	add	a3,a5,s0
    80001374:	fcc42703          	lw	a4,-52(s0)
    80001378:	fd042783          	lw	a5,-48(s0)
    8000137c:	079a                	slli	a5,a5,0x6
    8000137e:	97b6                	add	a5,a5,a3
    80001380:	97ba                	add	a5,a5,a4
    80001382:	f587c703          	lbu	a4,-168(a5)
    80001386:	00020697          	auipc	a3,0x20
    8000138a:	c8a68693          	addi	a3,a3,-886 # 80021010 <in1>
    8000138e:	fd442783          	lw	a5,-44(s0)
    80001392:	97b6                	add	a5,a5,a3
    80001394:	00e78023          	sb	a4,0(a5)
      k++;
    80001398:	fd442783          	lw	a5,-44(s0)
    8000139c:	2785                	addiw	a5,a5,1
    8000139e:	fcf42a23          	sw	a5,-44(s0)
    for (int j = 0; j < SIZE/2; j++) {
    800013a2:	fcc42783          	lw	a5,-52(s0)
    800013a6:	2785                	addiw	a5,a5,1
    800013a8:	fcf42623          	sw	a5,-52(s0)
    800013ac:	fcc42783          	lw	a5,-52(s0)
    800013b0:	0007871b          	sext.w	a4,a5
    800013b4:	47fd                	li	a5,31
    800013b6:	f8e7d5e3          	bge	a5,a4,80001340 <main+0x21e>
  for (int i = 0; i < SIZE/2; i++)
    800013ba:	fd042783          	lw	a5,-48(s0)
    800013be:	2785                	addiw	a5,a5,1
    800013c0:	fcf42823          	sw	a5,-48(s0)
    800013c4:	fd042783          	lw	a5,-48(s0)
    800013c8:	0007871b          	sext.w	a4,a5
    800013cc:	47fd                	li	a5,31
    800013ce:	f6e7d6e3          	bge	a5,a4,8000133a <main+0x218>
    }
  k = 0;
    800013d2:	fc042a23          	sw	zero,-44(s0)
  for (int i = 0; i < SIZE/2; i++)
    800013d6:	fc042423          	sw	zero,-56(s0)
    800013da:	a871                	j	80001476 <main+0x354>
    for (int j = 0; j < SIZE/2; j++) {
    800013dc:	fc042223          	sw	zero,-60(s0)
    800013e0:	a8bd                	j	8000145e <main+0x33c>
      in0[1][k] = matA[i][j+(SIZE/2)];
    800013e2:	fc442783          	lw	a5,-60(s0)
    800013e6:	0207879b          	addiw	a5,a5,32
    800013ea:	0007871b          	sext.w	a4,a5
    800013ee:	77fd                	lui	a5,0xfffff
    800013f0:	17c1                	addi	a5,a5,-16 # ffffffffffffeff0 <out+0xffffffff7ffdcfe0>
    800013f2:	008786b3          	add	a3,a5,s0
    800013f6:	fc842783          	lw	a5,-56(s0)
    800013fa:	079a                	slli	a5,a5,0x6
    800013fc:	97b6                	add	a5,a5,a3
    800013fe:	97ba                	add	a5,a5,a4
    80001400:	f587c703          	lbu	a4,-168(a5)
    80001404:	0001f697          	auipc	a3,0x1f
    80001408:	c0c68693          	addi	a3,a3,-1012 # 80020010 <in0>
    8000140c:	fd442783          	lw	a5,-44(s0)
    80001410:	97b6                	add	a5,a5,a3
    80001412:	40e78023          	sb	a4,1024(a5)
      in1[1][k] = matB[i][j+(SIZE/2)];
    80001416:	fc442783          	lw	a5,-60(s0)
    8000141a:	0207879b          	addiw	a5,a5,32
    8000141e:	0007871b          	sext.w	a4,a5
    80001422:	77f9                	lui	a5,0xffffe
    80001424:	17c1                	addi	a5,a5,-16 # ffffffffffffdff0 <out+0xffffffff7ffdbfe0>
    80001426:	008786b3          	add	a3,a5,s0
    8000142a:	fc842783          	lw	a5,-56(s0)
    8000142e:	079a                	slli	a5,a5,0x6
    80001430:	97b6                	add	a5,a5,a3
    80001432:	97ba                	add	a5,a5,a4
    80001434:	f587c703          	lbu	a4,-168(a5)
    80001438:	00020697          	auipc	a3,0x20
    8000143c:	bd868693          	addi	a3,a3,-1064 # 80021010 <in1>
    80001440:	fd442783          	lw	a5,-44(s0)
    80001444:	97b6                	add	a5,a5,a3
    80001446:	40e78023          	sb	a4,1024(a5)
      k++;
    8000144a:	fd442783          	lw	a5,-44(s0)
    8000144e:	2785                	addiw	a5,a5,1
    80001450:	fcf42a23          	sw	a5,-44(s0)
    for (int j = 0; j < SIZE/2; j++) {
    80001454:	fc442783          	lw	a5,-60(s0)
    80001458:	2785                	addiw	a5,a5,1
    8000145a:	fcf42223          	sw	a5,-60(s0)
    8000145e:	fc442783          	lw	a5,-60(s0)
    80001462:	0007871b          	sext.w	a4,a5
    80001466:	47fd                	li	a5,31
    80001468:	f6e7dde3          	bge	a5,a4,800013e2 <main+0x2c0>
  for (int i = 0; i < SIZE/2; i++)
    8000146c:	fc842783          	lw	a5,-56(s0)
    80001470:	2785                	addiw	a5,a5,1
    80001472:	fcf42423          	sw	a5,-56(s0)
    80001476:	fc842783          	lw	a5,-56(s0)
    8000147a:	0007871b          	sext.w	a4,a5
    8000147e:	47fd                	li	a5,31
    80001480:	f4e7dee3          	bge	a5,a4,800013dc <main+0x2ba>
    }
  k = 0;
    80001484:	fc042a23          	sw	zero,-44(s0)
  for (int i = 0; i < SIZE/2; i++)
    80001488:	fc042023          	sw	zero,-64(s0)
    8000148c:	a045                	j	8000152c <main+0x40a>
    for (int j = 0; j < SIZE/2; j++) {
    8000148e:	fa042e23          	sw	zero,-68(s0)
    80001492:	a049                	j	80001514 <main+0x3f2>
      in0[2][k] = matA[i+(SIZE/2)][j];
    80001494:	fc042783          	lw	a5,-64(s0)
    80001498:	0207879b          	addiw	a5,a5,32
    8000149c:	2781                	sext.w	a5,a5
    8000149e:	777d                	lui	a4,0xfffff
    800014a0:	1741                	addi	a4,a4,-16 # ffffffffffffeff0 <out+0xffffffff7ffdcfe0>
    800014a2:	008706b3          	add	a3,a4,s0
    800014a6:	fbc42703          	lw	a4,-68(s0)
    800014aa:	079a                	slli	a5,a5,0x6
    800014ac:	97b6                	add	a5,a5,a3
    800014ae:	97ba                	add	a5,a5,a4
    800014b0:	f587c703          	lbu	a4,-168(a5)
    800014b4:	0001f697          	auipc	a3,0x1f
    800014b8:	b5c68693          	addi	a3,a3,-1188 # 80020010 <in0>
    800014bc:	fd442783          	lw	a5,-44(s0)
    800014c0:	97b6                	add	a5,a5,a3
    800014c2:	6685                	lui	a3,0x1
    800014c4:	97b6                	add	a5,a5,a3
    800014c6:	80e78023          	sb	a4,-2048(a5)
      in1[2][k] = matB[i+(SIZE/2)][j];
    800014ca:	fc042783          	lw	a5,-64(s0)
    800014ce:	0207879b          	addiw	a5,a5,32
    800014d2:	2781                	sext.w	a5,a5
    800014d4:	7779                	lui	a4,0xffffe
    800014d6:	1741                	addi	a4,a4,-16 # ffffffffffffdff0 <out+0xffffffff7ffdbfe0>
    800014d8:	008706b3          	add	a3,a4,s0
    800014dc:	fbc42703          	lw	a4,-68(s0)
    800014e0:	079a                	slli	a5,a5,0x6
    800014e2:	97b6                	add	a5,a5,a3
    800014e4:	97ba                	add	a5,a5,a4
    800014e6:	f587c703          	lbu	a4,-168(a5)
    800014ea:	00020697          	auipc	a3,0x20
    800014ee:	b2668693          	addi	a3,a3,-1242 # 80021010 <in1>
    800014f2:	fd442783          	lw	a5,-44(s0)
    800014f6:	97b6                	add	a5,a5,a3
    800014f8:	6685                	lui	a3,0x1
    800014fa:	97b6                	add	a5,a5,a3
    800014fc:	80e78023          	sb	a4,-2048(a5)
      k++;
    80001500:	fd442783          	lw	a5,-44(s0)
    80001504:	2785                	addiw	a5,a5,1
    80001506:	fcf42a23          	sw	a5,-44(s0)
    for (int j = 0; j < SIZE/2; j++) {
    8000150a:	fbc42783          	lw	a5,-68(s0)
    8000150e:	2785                	addiw	a5,a5,1
    80001510:	faf42e23          	sw	a5,-68(s0)
    80001514:	fbc42783          	lw	a5,-68(s0)
    80001518:	0007871b          	sext.w	a4,a5
    8000151c:	47fd                	li	a5,31
    8000151e:	f6e7dbe3          	bge	a5,a4,80001494 <main+0x372>
  for (int i = 0; i < SIZE/2; i++)
    80001522:	fc042783          	lw	a5,-64(s0)
    80001526:	2785                	addiw	a5,a5,1
    80001528:	fcf42023          	sw	a5,-64(s0)
    8000152c:	fc042783          	lw	a5,-64(s0)
    80001530:	0007871b          	sext.w	a4,a5
    80001534:	47fd                	li	a5,31
    80001536:	f4e7dce3          	bge	a5,a4,8000148e <main+0x36c>
    }
  k = 0;
    8000153a:	fc042a23          	sw	zero,-44(s0)
  for (int i = 0; i < SIZE/2; i++)
    8000153e:	fa042c23          	sw	zero,-72(s0)
    80001542:	a065                	j	800015ea <main+0x4c8>
    for (int j = 0; j < SIZE/2; j++) {
    80001544:	fa042a23          	sw	zero,-76(s0)
    80001548:	a069                	j	800015d2 <main+0x4b0>
      in0[3][k] = matA[i+(SIZE/2)][j+(SIZE/2)];
    8000154a:	fb842783          	lw	a5,-72(s0)
    8000154e:	0207879b          	addiw	a5,a5,32
    80001552:	2781                	sext.w	a5,a5
    80001554:	fb442703          	lw	a4,-76(s0)
    80001558:	0207071b          	addiw	a4,a4,32
    8000155c:	2701                	sext.w	a4,a4
    8000155e:	76fd                	lui	a3,0xfffff
    80001560:	16c1                	addi	a3,a3,-16 # ffffffffffffeff0 <out+0xffffffff7ffdcfe0>
    80001562:	96a2                	add	a3,a3,s0
    80001564:	079a                	slli	a5,a5,0x6
    80001566:	97b6                	add	a5,a5,a3
    80001568:	97ba                	add	a5,a5,a4
    8000156a:	f587c703          	lbu	a4,-168(a5)
    8000156e:	0001f697          	auipc	a3,0x1f
    80001572:	aa268693          	addi	a3,a3,-1374 # 80020010 <in0>
    80001576:	fd442783          	lw	a5,-44(s0)
    8000157a:	97b6                	add	a5,a5,a3
    8000157c:	6685                	lui	a3,0x1
    8000157e:	97b6                	add	a5,a5,a3
    80001580:	c0e78023          	sb	a4,-1024(a5)
      in1[3][k] = matB[i+(SIZE/2)][j+(SIZE/2)];
    80001584:	fb842783          	lw	a5,-72(s0)
    80001588:	0207879b          	addiw	a5,a5,32
    8000158c:	2781                	sext.w	a5,a5
    8000158e:	fb442703          	lw	a4,-76(s0)
    80001592:	0207071b          	addiw	a4,a4,32
    80001596:	2701                	sext.w	a4,a4
    80001598:	76f9                	lui	a3,0xffffe
    8000159a:	16c1                	addi	a3,a3,-16 # ffffffffffffdff0 <out+0xffffffff7ffdbfe0>
    8000159c:	96a2                	add	a3,a3,s0
    8000159e:	079a                	slli	a5,a5,0x6
    800015a0:	97b6                	add	a5,a5,a3
    800015a2:	97ba                	add	a5,a5,a4
    800015a4:	f587c703          	lbu	a4,-168(a5)
    800015a8:	00020697          	auipc	a3,0x20
    800015ac:	a6868693          	addi	a3,a3,-1432 # 80021010 <in1>
    800015b0:	fd442783          	lw	a5,-44(s0)
    800015b4:	97b6                	add	a5,a5,a3
    800015b6:	6685                	lui	a3,0x1
    800015b8:	97b6                	add	a5,a5,a3
    800015ba:	c0e78023          	sb	a4,-1024(a5)
      k++;
    800015be:	fd442783          	lw	a5,-44(s0)
    800015c2:	2785                	addiw	a5,a5,1
    800015c4:	fcf42a23          	sw	a5,-44(s0)
    for (int j = 0; j < SIZE/2; j++) {
    800015c8:	fb442783          	lw	a5,-76(s0)
    800015cc:	2785                	addiw	a5,a5,1
    800015ce:	faf42a23          	sw	a5,-76(s0)
    800015d2:	fb442783          	lw	a5,-76(s0)
    800015d6:	0007871b          	sext.w	a4,a5
    800015da:	47fd                	li	a5,31
    800015dc:	f6e7d7e3          	bge	a5,a4,8000154a <main+0x428>
  for (int i = 0; i < SIZE/2; i++)
    800015e0:	fb842783          	lw	a5,-72(s0)
    800015e4:	2785                	addiw	a5,a5,1
    800015e6:	faf42c23          	sw	a5,-72(s0)
    800015ea:	fb842783          	lw	a5,-72(s0)
    800015ee:	0007871b          	sext.w	a4,a5
    800015f2:	47fd                	li	a5,31
    800015f4:	f4e7d8e3          	bge	a5,a4,80001544 <main+0x422>
    }

  // Init number of thread
  thread_init(CORE);
    800015f8:	4521                	li	a0,8
    800015fa:	91eff0ef          	jal	ra,80000718 <thread_init>

  // Multiplicaton
  thread_create(strassen_mul, &in0[0], &in1[0], out[0]);
    800015fe:	00021697          	auipc	a3,0x21
    80001602:	a1268693          	addi	a3,a3,-1518 # 80022010 <out>
    80001606:	00020617          	auipc	a2,0x20
    8000160a:	a0a60613          	addi	a2,a2,-1526 # 80021010 <in1>
    8000160e:	0001f597          	auipc	a1,0x1f
    80001612:	a0258593          	addi	a1,a1,-1534 # 80020010 <in0>
    80001616:	fffff517          	auipc	a0,0xfffff
    8000161a:	6be50513          	addi	a0,a0,1726 # 80000cd4 <strassen_mul>
    8000161e:	970ff0ef          	jal	ra,8000078e <thread_create>
  thread_create(strassen_mul, &in0[1], &in1[2], out[1]);
    80001622:	00021697          	auipc	a3,0x21
    80001626:	dee68693          	addi	a3,a3,-530 # 80022410 <out+0x400>
    8000162a:	00020617          	auipc	a2,0x20
    8000162e:	1e660613          	addi	a2,a2,486 # 80021810 <in1+0x800>
    80001632:	0001f597          	auipc	a1,0x1f
    80001636:	dde58593          	addi	a1,a1,-546 # 80020410 <in0+0x400>
    8000163a:	fffff517          	auipc	a0,0xfffff
    8000163e:	69a50513          	addi	a0,a0,1690 # 80000cd4 <strassen_mul>
    80001642:	94cff0ef          	jal	ra,8000078e <thread_create>
  thread_create(strassen_mul, &in0[0], &in1[1], out[2]);
    80001646:	00021697          	auipc	a3,0x21
    8000164a:	1ca68693          	addi	a3,a3,458 # 80022810 <out+0x800>
    8000164e:	00020617          	auipc	a2,0x20
    80001652:	dc260613          	addi	a2,a2,-574 # 80021410 <in1+0x400>
    80001656:	0001f597          	auipc	a1,0x1f
    8000165a:	9ba58593          	addi	a1,a1,-1606 # 80020010 <in0>
    8000165e:	fffff517          	auipc	a0,0xfffff
    80001662:	67650513          	addi	a0,a0,1654 # 80000cd4 <strassen_mul>
    80001666:	928ff0ef          	jal	ra,8000078e <thread_create>
  thread_create(strassen_mul, &in0[1], &in1[3], out[3]);
    8000166a:	00021697          	auipc	a3,0x21
    8000166e:	5a668693          	addi	a3,a3,1446 # 80022c10 <out+0xc00>
    80001672:	00020617          	auipc	a2,0x20
    80001676:	59e60613          	addi	a2,a2,1438 # 80021c10 <in1+0xc00>
    8000167a:	0001f597          	auipc	a1,0x1f
    8000167e:	d9658593          	addi	a1,a1,-618 # 80020410 <in0+0x400>
    80001682:	fffff517          	auipc	a0,0xfffff
    80001686:	65250513          	addi	a0,a0,1618 # 80000cd4 <strassen_mul>
    8000168a:	904ff0ef          	jal	ra,8000078e <thread_create>
  thread_create(strassen_mul, &in0[2], &in1[0], out[4]);
    8000168e:	00022697          	auipc	a3,0x22
    80001692:	98268693          	addi	a3,a3,-1662 # 80023010 <out+0x1000>
    80001696:	00020617          	auipc	a2,0x20
    8000169a:	97a60613          	addi	a2,a2,-1670 # 80021010 <in1>
    8000169e:	0001f597          	auipc	a1,0x1f
    800016a2:	17258593          	addi	a1,a1,370 # 80020810 <in0+0x800>
    800016a6:	fffff517          	auipc	a0,0xfffff
    800016aa:	62e50513          	addi	a0,a0,1582 # 80000cd4 <strassen_mul>
    800016ae:	8e0ff0ef          	jal	ra,8000078e <thread_create>
  thread_create(strassen_mul, &in0[3], &in1[2], out[5]);
    800016b2:	00022697          	auipc	a3,0x22
    800016b6:	d5e68693          	addi	a3,a3,-674 # 80023410 <out+0x1400>
    800016ba:	00020617          	auipc	a2,0x20
    800016be:	15660613          	addi	a2,a2,342 # 80021810 <in1+0x800>
    800016c2:	0001f597          	auipc	a1,0x1f
    800016c6:	54e58593          	addi	a1,a1,1358 # 80020c10 <in0+0xc00>
    800016ca:	fffff517          	auipc	a0,0xfffff
    800016ce:	60a50513          	addi	a0,a0,1546 # 80000cd4 <strassen_mul>
    800016d2:	8bcff0ef          	jal	ra,8000078e <thread_create>
  thread_create(strassen_mul, &in0[2], &in1[1], out[6]);
    800016d6:	00022697          	auipc	a3,0x22
    800016da:	13a68693          	addi	a3,a3,314 # 80023810 <out+0x1800>
    800016de:	00020617          	auipc	a2,0x20
    800016e2:	d3260613          	addi	a2,a2,-718 # 80021410 <in1+0x400>
    800016e6:	0001f597          	auipc	a1,0x1f
    800016ea:	12a58593          	addi	a1,a1,298 # 80020810 <in0+0x800>
    800016ee:	fffff517          	auipc	a0,0xfffff
    800016f2:	5e650513          	addi	a0,a0,1510 # 80000cd4 <strassen_mul>
    800016f6:	898ff0ef          	jal	ra,8000078e <thread_create>
  thread_create(strassen_mul, &in0[3], &in1[3], out[7]);
    800016fa:	00022697          	auipc	a3,0x22
    800016fe:	51668693          	addi	a3,a3,1302 # 80023c10 <out+0x1c00>
    80001702:	00020617          	auipc	a2,0x20
    80001706:	50e60613          	addi	a2,a2,1294 # 80021c10 <in1+0xc00>
    8000170a:	0001f597          	auipc	a1,0x1f
    8000170e:	50658593          	addi	a1,a1,1286 # 80020c10 <in0+0xc00>
    80001712:	fffff517          	auipc	a0,0xfffff
    80001716:	5c250513          	addi	a0,a0,1474 # 80000cd4 <strassen_mul>
    8000171a:	874ff0ef          	jal	ra,8000078e <thread_create>
  thread_join();
    8000171e:	aeaff0ef          	jal	ra,80000a08 <thread_join>

  
  // Addition
  thread_create(strassen_add, &out[0], &out[1], out[0]);
    80001722:	00021697          	auipc	a3,0x21
    80001726:	8ee68693          	addi	a3,a3,-1810 # 80022010 <out>
    8000172a:	00021617          	auipc	a2,0x21
    8000172e:	ce660613          	addi	a2,a2,-794 # 80022410 <out+0x400>
    80001732:	00021597          	auipc	a1,0x21
    80001736:	8de58593          	addi	a1,a1,-1826 # 80022010 <out>
    8000173a:	fffff517          	auipc	a0,0xfffff
    8000173e:	7da50513          	addi	a0,a0,2010 # 80000f14 <strassen_add>
    80001742:	84cff0ef          	jal	ra,8000078e <thread_create>
  thread_create(strassen_add, &out[2], &out[3], out[2]);
    80001746:	00021697          	auipc	a3,0x21
    8000174a:	0ca68693          	addi	a3,a3,202 # 80022810 <out+0x800>
    8000174e:	00021617          	auipc	a2,0x21
    80001752:	4c260613          	addi	a2,a2,1218 # 80022c10 <out+0xc00>
    80001756:	00021597          	auipc	a1,0x21
    8000175a:	0ba58593          	addi	a1,a1,186 # 80022810 <out+0x800>
    8000175e:	fffff517          	auipc	a0,0xfffff
    80001762:	7b650513          	addi	a0,a0,1974 # 80000f14 <strassen_add>
    80001766:	828ff0ef          	jal	ra,8000078e <thread_create>
  thread_create(strassen_add, &out[4], &out[5], out[4]);
    8000176a:	00022697          	auipc	a3,0x22
    8000176e:	8a668693          	addi	a3,a3,-1882 # 80023010 <out+0x1000>
    80001772:	00022617          	auipc	a2,0x22
    80001776:	c9e60613          	addi	a2,a2,-866 # 80023410 <out+0x1400>
    8000177a:	00022597          	auipc	a1,0x22
    8000177e:	89658593          	addi	a1,a1,-1898 # 80023010 <out+0x1000>
    80001782:	fffff517          	auipc	a0,0xfffff
    80001786:	79250513          	addi	a0,a0,1938 # 80000f14 <strassen_add>
    8000178a:	804ff0ef          	jal	ra,8000078e <thread_create>
  thread_create(strassen_add, &out[6], &out[7], out[6]);
    8000178e:	00022697          	auipc	a3,0x22
    80001792:	08268693          	addi	a3,a3,130 # 80023810 <out+0x1800>
    80001796:	00022617          	auipc	a2,0x22
    8000179a:	47a60613          	addi	a2,a2,1146 # 80023c10 <out+0x1c00>
    8000179e:	00022597          	auipc	a1,0x22
    800017a2:	07258593          	addi	a1,a1,114 # 80023810 <out+0x1800>
    800017a6:	fffff517          	auipc	a0,0xfffff
    800017aa:	76e50513          	addi	a0,a0,1902 # 80000f14 <strassen_add>
    800017ae:	fe1fe0ef          	jal	ra,8000078e <thread_create>
  thread_join();
    800017b2:	a56ff0ef          	jal	ra,80000a08 <thread_join>

  // Write back result
  k = 0;
    800017b6:	fc042a23          	sw	zero,-44(s0)
  for (int i = 0; i < SIZE/2; i++)
    800017ba:	fa042823          	sw	zero,-80(s0)
    800017be:	a899                	j	80001814 <main+0x6f2>
    for (int j = 0; j < SIZE/2; j++)
    800017c0:	fa042623          	sw	zero,-84(s0)
    800017c4:	a825                	j	800017fc <main+0x6da>
      matC[i][j] = out[0][k];
    800017c6:	00021717          	auipc	a4,0x21
    800017ca:	84a70713          	addi	a4,a4,-1974 # 80022010 <out>
    800017ce:	fd442783          	lw	a5,-44(s0)
    800017d2:	97ba                	add	a5,a5,a4
    800017d4:	0007c703          	lbu	a4,0(a5)
    800017d8:	77f5                	lui	a5,0xffffd
    800017da:	17c1                	addi	a5,a5,-16 # ffffffffffffcff0 <out+0xffffffff7ffdafe0>
    800017dc:	00878633          	add	a2,a5,s0
    800017e0:	fac42683          	lw	a3,-84(s0)
    800017e4:	fb042783          	lw	a5,-80(s0)
    800017e8:	079a                	slli	a5,a5,0x6
    800017ea:	97b2                	add	a5,a5,a2
    800017ec:	97b6                	add	a5,a5,a3
    800017ee:	f4e78c23          	sb	a4,-168(a5)
    for (int j = 0; j < SIZE/2; j++)
    800017f2:	fac42783          	lw	a5,-84(s0)
    800017f6:	2785                	addiw	a5,a5,1
    800017f8:	faf42623          	sw	a5,-84(s0)
    800017fc:	fac42783          	lw	a5,-84(s0)
    80001800:	0007871b          	sext.w	a4,a5
    80001804:	47fd                	li	a5,31
    80001806:	fce7d0e3          	bge	a5,a4,800017c6 <main+0x6a4>
  for (int i = 0; i < SIZE/2; i++)
    8000180a:	fb042783          	lw	a5,-80(s0)
    8000180e:	2785                	addiw	a5,a5,1
    80001810:	faf42823          	sw	a5,-80(s0)
    80001814:	fb042783          	lw	a5,-80(s0)
    80001818:	0007871b          	sext.w	a4,a5
    8000181c:	47fd                	li	a5,31
    8000181e:	fae7d1e3          	bge	a5,a4,800017c0 <main+0x69e>
  k = 0;
    80001822:	fc042a23          	sw	zero,-44(s0)
  for (int i = 0; i < SIZE/2; i++)
    80001826:	fa042423          	sw	zero,-88(s0)
    8000182a:	a08d                	j	8000188c <main+0x76a>
    for (int j = 0; j < SIZE/2; j++)
    8000182c:	fa042223          	sw	zero,-92(s0)
    80001830:	a091                	j	80001874 <main+0x752>
      matC[i][j+SIZE/2] = out[2][k];
    80001832:	fa442783          	lw	a5,-92(s0)
    80001836:	0207879b          	addiw	a5,a5,32
    8000183a:	0007869b          	sext.w	a3,a5
    8000183e:	00020717          	auipc	a4,0x20
    80001842:	7d270713          	addi	a4,a4,2002 # 80022010 <out>
    80001846:	fd442783          	lw	a5,-44(s0)
    8000184a:	97ba                	add	a5,a5,a4
    8000184c:	6705                	lui	a4,0x1
    8000184e:	97ba                	add	a5,a5,a4
    80001850:	8007c703          	lbu	a4,-2048(a5)
    80001854:	77f5                	lui	a5,0xffffd
    80001856:	17c1                	addi	a5,a5,-16 # ffffffffffffcff0 <out+0xffffffff7ffdafe0>
    80001858:	00878633          	add	a2,a5,s0
    8000185c:	fa842783          	lw	a5,-88(s0)
    80001860:	079a                	slli	a5,a5,0x6
    80001862:	97b2                	add	a5,a5,a2
    80001864:	97b6                	add	a5,a5,a3
    80001866:	f4e78c23          	sb	a4,-168(a5)
    for (int j = 0; j < SIZE/2; j++)
    8000186a:	fa442783          	lw	a5,-92(s0)
    8000186e:	2785                	addiw	a5,a5,1
    80001870:	faf42223          	sw	a5,-92(s0)
    80001874:	fa442783          	lw	a5,-92(s0)
    80001878:	0007871b          	sext.w	a4,a5
    8000187c:	47fd                	li	a5,31
    8000187e:	fae7dae3          	bge	a5,a4,80001832 <main+0x710>
  for (int i = 0; i < SIZE/2; i++)
    80001882:	fa842783          	lw	a5,-88(s0)
    80001886:	2785                	addiw	a5,a5,1
    80001888:	faf42423          	sw	a5,-88(s0)
    8000188c:	fa842783          	lw	a5,-88(s0)
    80001890:	0007871b          	sext.w	a4,a5
    80001894:	47fd                	li	a5,31
    80001896:	f8e7dbe3          	bge	a5,a4,8000182c <main+0x70a>
  k = 0;
    8000189a:	fc042a23          	sw	zero,-44(s0)
  for (int i = 0; i < SIZE/2; i++)
    8000189e:	fa042023          	sw	zero,-96(s0)
    800018a2:	a085                	j	80001902 <main+0x7e0>
    for (int j = 0; j < SIZE/2; j++)
    800018a4:	f8042e23          	sw	zero,-100(s0)
    800018a8:	a089                	j	800018ea <main+0x7c8>
      matC[i+SIZE/2][j] = out[4][k];      
    800018aa:	fa042783          	lw	a5,-96(s0)
    800018ae:	0207879b          	addiw	a5,a5,32
    800018b2:	2781                	sext.w	a5,a5
    800018b4:	00020697          	auipc	a3,0x20
    800018b8:	75c68693          	addi	a3,a3,1884 # 80022010 <out>
    800018bc:	fd442703          	lw	a4,-44(s0)
    800018c0:	9736                	add	a4,a4,a3
    800018c2:	6685                	lui	a3,0x1
    800018c4:	9736                	add	a4,a4,a3
    800018c6:	00074703          	lbu	a4,0(a4) # 1000 <_prog_start-0x7ffff000>
    800018ca:	76f5                	lui	a3,0xffffd
    800018cc:	16c1                	addi	a3,a3,-16 # ffffffffffffcff0 <out+0xffffffff7ffdafe0>
    800018ce:	00868633          	add	a2,a3,s0
    800018d2:	f9c42683          	lw	a3,-100(s0)
    800018d6:	079a                	slli	a5,a5,0x6
    800018d8:	97b2                	add	a5,a5,a2
    800018da:	97b6                	add	a5,a5,a3
    800018dc:	f4e78c23          	sb	a4,-168(a5)
    for (int j = 0; j < SIZE/2; j++)
    800018e0:	f9c42783          	lw	a5,-100(s0)
    800018e4:	2785                	addiw	a5,a5,1
    800018e6:	f8f42e23          	sw	a5,-100(s0)
    800018ea:	f9c42783          	lw	a5,-100(s0)
    800018ee:	0007871b          	sext.w	a4,a5
    800018f2:	47fd                	li	a5,31
    800018f4:	fae7dbe3          	bge	a5,a4,800018aa <main+0x788>
  for (int i = 0; i < SIZE/2; i++)
    800018f8:	fa042783          	lw	a5,-96(s0)
    800018fc:	2785                	addiw	a5,a5,1
    800018fe:	faf42023          	sw	a5,-96(s0)
    80001902:	fa042783          	lw	a5,-96(s0)
    80001906:	0007871b          	sext.w	a4,a5
    8000190a:	47fd                	li	a5,31
    8000190c:	f8e7dce3          	bge	a5,a4,800018a4 <main+0x782>
  k = 0;
    80001910:	fc042a23          	sw	zero,-44(s0)
  for (int i = 0; i < SIZE/2; i++)
    80001914:	f8042c23          	sw	zero,-104(s0)
    80001918:	a09d                	j	8000197e <main+0x85c>
    for (int j = 0; j < SIZE/2; j++)
    8000191a:	f8042a23          	sw	zero,-108(s0)
    8000191e:	a0a1                	j	80001966 <main+0x844>
      matC[i+SIZE/2][j+SIZE/2] = out[6][k];
    80001920:	f9842783          	lw	a5,-104(s0)
    80001924:	0207879b          	addiw	a5,a5,32
    80001928:	2781                	sext.w	a5,a5
    8000192a:	f9442703          	lw	a4,-108(s0)
    8000192e:	0207071b          	addiw	a4,a4,32
    80001932:	0007069b          	sext.w	a3,a4
    80001936:	00020617          	auipc	a2,0x20
    8000193a:	6da60613          	addi	a2,a2,1754 # 80022010 <out>
    8000193e:	fd442703          	lw	a4,-44(s0)
    80001942:	9732                	add	a4,a4,a2
    80001944:	6609                	lui	a2,0x2
    80001946:	9732                	add	a4,a4,a2
    80001948:	80074703          	lbu	a4,-2048(a4)
    8000194c:	7675                	lui	a2,0xffffd
    8000194e:	1641                	addi	a2,a2,-16 # ffffffffffffcff0 <out+0xffffffff7ffdafe0>
    80001950:	9622                	add	a2,a2,s0
    80001952:	079a                	slli	a5,a5,0x6
    80001954:	97b2                	add	a5,a5,a2
    80001956:	97b6                	add	a5,a5,a3
    80001958:	f4e78c23          	sb	a4,-168(a5)
    for (int j = 0; j < SIZE/2; j++)
    8000195c:	f9442783          	lw	a5,-108(s0)
    80001960:	2785                	addiw	a5,a5,1
    80001962:	f8f42a23          	sw	a5,-108(s0)
    80001966:	f9442783          	lw	a5,-108(s0)
    8000196a:	0007871b          	sext.w	a4,a5
    8000196e:	47fd                	li	a5,31
    80001970:	fae7d8e3          	bge	a5,a4,80001920 <main+0x7fe>
  for (int i = 0; i < SIZE/2; i++)
    80001974:	f9842783          	lw	a5,-104(s0)
    80001978:	2785                	addiw	a5,a5,1
    8000197a:	f8f42c23          	sw	a5,-104(s0)
    8000197e:	f9842783          	lw	a5,-104(s0)
    80001982:	0007871b          	sext.w	a4,a5
    80001986:	47fd                	li	a5,31
    80001988:	f8e7d9e3          	bge	a5,a4,8000191a <main+0x7f8>
      
  t_end = read_csr(mcycle);
    8000198c:	b00027f3          	csrr	a5,mcycle
    80001990:	f4f43823          	sd	a5,-176(s0)
    80001994:	f5043783          	ld	a5,-176(s0)
    80001998:	f6f43423          	sd	a5,-152(s0)
  tm_gap = t_end - t_start;
    8000199c:	f6843703          	ld	a4,-152(s0)
    800019a0:	f7843783          	ld	a5,-136(s0)
    800019a4:	40f707b3          	sub	a5,a4,a5
    800019a8:	f4f43423          	sd	a5,-184(s0)

  for (int i = 0; i < SIZE; i++) {
    800019ac:	f8042823          	sw	zero,-112(s0)
    800019b0:	a891                	j	80001a04 <main+0x8e2>
    for (int j = 0; j < SIZE; j++)
    800019b2:	f8042623          	sw	zero,-116(s0)
    800019b6:	a815                	j	800019ea <main+0x8c8>
      REG32(dump, 0) =  matC[i][j];
    800019b8:	00000797          	auipc	a5,0x0
    800019bc:	12878793          	addi	a5,a5,296 # 80001ae0 <dump>
    800019c0:	6398                	ld	a4,0(a5)
    800019c2:	77f5                	lui	a5,0xffffd
    800019c4:	17c1                	addi	a5,a5,-16 # ffffffffffffcff0 <out+0xffffffff7ffdafe0>
    800019c6:	00878633          	add	a2,a5,s0
    800019ca:	f8c42683          	lw	a3,-116(s0)
    800019ce:	f9042783          	lw	a5,-112(s0)
    800019d2:	079a                	slli	a5,a5,0x6
    800019d4:	97b2                	add	a5,a5,a2
    800019d6:	97b6                	add	a5,a5,a3
    800019d8:	f587c783          	lbu	a5,-168(a5)
    800019dc:	00f70023          	sb	a5,0(a4)
    for (int j = 0; j < SIZE; j++)
    800019e0:	f8c42783          	lw	a5,-116(s0)
    800019e4:	2785                	addiw	a5,a5,1
    800019e6:	f8f42623          	sw	a5,-116(s0)
    800019ea:	f8c42783          	lw	a5,-116(s0)
    800019ee:	0007871b          	sext.w	a4,a5
    800019f2:	03f00793          	li	a5,63
    800019f6:	fce7d1e3          	bge	a5,a4,800019b8 <main+0x896>
  for (int i = 0; i < SIZE; i++) {
    800019fa:	f9042783          	lw	a5,-112(s0)
    800019fe:	2785                	addiw	a5,a5,1
    80001a00:	f8f42823          	sw	a5,-112(s0)
    80001a04:	f9042783          	lw	a5,-112(s0)
    80001a08:	0007871b          	sext.w	a4,a5
    80001a0c:	03f00793          	li	a5,63
    80001a10:	fae7d1e3          	bge	a5,a4,800019b2 <main+0x890>
  }

kprintf("Multi core: %l(cycles) \r\n", tm_gap);
    80001a14:	f4843583          	ld	a1,-184(s0)
    80001a18:	00000517          	auipc	a0,0x0
    80001a1c:	14850513          	addi	a0,a0,328 # 80001b60 <dump+0x80>
    80001a20:	a49fe0ef          	jal	ra,80000468 <kprintf>
  kprintf("Complete\r\n\r\n");
    80001a24:	00000517          	auipc	a0,0x0
    80001a28:	15c50513          	addi	a0,a0,348 # 80001b80 <dump+0xa0>
    80001a2c:	a3dfe0ef          	jal	ra,80000468 <kprintf>
	
	return 0;
    80001a30:	4781                	li	a5,0
}
    80001a32:	853e                	mv	a0,a5
    80001a34:	628d                	lui	t0,0x3
    80001a36:	9116                	add	sp,sp,t0
    80001a38:	60ae                	ld	ra,200(sp)
    80001a3a:	640e                	ld	s0,192(sp)
    80001a3c:	6169                	addi	sp,sp,208
    80001a3e:	8082                	ret
	...

Disassembly of section .srodata:

0000000080001a80 <uart>:
static volatile uint32_t * const uart = (void *)(UART_CTRL_ADDR);
    80001a80:	0000                	unimp
    80001a82:	6400                	ld	s0,8(s0)
    80001a84:	0000                	unimp
	...

0000000080001a88 <uart>:
    80001a88:	0000                	unimp
    80001a8a:	6400                	ld	s0,8(s0)
    80001a8c:	0000                	unimp
	...

Disassembly of section .sdata:

0000000080001a90 <thread_queue>:
void **thread_queue = (void *)(THREAD_QUEUE_ADDR + 16);
    80001a90:	0010                	.2byte	0x10
    80001a92:	9000                	.2byte	0x9000
    80001a94:	0000                	unimp
	...

0000000080001a98 <msip>:
static volatile uint32_t *msip  = (uint32_t *)(CLINT_CTRL_ADDR);
    80001a98:	0000                	unimp
    80001a9a:	0200                	addi	s0,sp,256
    80001a9c:	0000                	unimp
	...

0000000080001aa0 <core0>:
static volatile uint32_t *core0 = (void *)(CLINT_CTRL_ADDR + CLINT_MSIP0);
    80001aa0:	0000                	unimp
    80001aa2:	0200                	addi	s0,sp,256
    80001aa4:	0000                	unimp
	...

0000000080001aa8 <core1>:
static volatile uint32_t *core1 = (void *)(CLINT_CTRL_ADDR + CLINT_MSIP1);
    80001aa8:	0004                	.2byte	0x4
    80001aaa:	0200                	addi	s0,sp,256
    80001aac:	0000                	unimp
	...

0000000080001ab0 <core2>:
static volatile uint32_t *core2 = (void *)(CLINT_CTRL_ADDR + CLINT_MSIP2);
    80001ab0:	0008                	.2byte	0x8
    80001ab2:	0200                	addi	s0,sp,256
    80001ab4:	0000                	unimp
	...

0000000080001ab8 <core3>:
static volatile uint32_t *core3 = (void *)(CLINT_CTRL_ADDR + CLINT_MSIP3);
    80001ab8:	000c                	.2byte	0xc
    80001aba:	0200                	addi	s0,sp,256
    80001abc:	0000                	unimp
	...

0000000080001ac0 <core4>:
static volatile uint32_t *core4 = (void *)(CLINT_CTRL_ADDR + CLINT_MSIP4);
    80001ac0:	0010                	.2byte	0x10
    80001ac2:	0200                	addi	s0,sp,256
    80001ac4:	0000                	unimp
	...

0000000080001ac8 <core5>:
static volatile uint32_t *core5 = (void *)(CLINT_CTRL_ADDR + CLINT_MSIP5);
    80001ac8:	0014                	.2byte	0x14
    80001aca:	0200                	addi	s0,sp,256
    80001acc:	0000                	unimp
	...

0000000080001ad0 <core6>:
static volatile uint32_t *core6 = (void *)(CLINT_CTRL_ADDR + CLINT_MSIP6);
    80001ad0:	0018                	.2byte	0x18
    80001ad2:	0200                	addi	s0,sp,256
    80001ad4:	0000                	unimp
	...

0000000080001ad8 <core7>:
static volatile uint32_t *core7 = (void *)(CLINT_CTRL_ADDR + CLINT_MSIP7);
    80001ad8:	001c                	.2byte	0x1c
    80001ada:	0200                	addi	s0,sp,256
    80001adc:	0000                	unimp
	...

0000000080001ae0 <dump>:
static volatile mat_t *dump  = (mat_t*)(THREAD_QUEUE_ADDR);
    80001ae0:	0000                	unimp
    80001ae2:	9000                	.2byte	0x9000
    80001ae4:	0000                	unimp
	...

Disassembly of section .rodata:

0000000080001ae8 <.rodata>:
    80001ae8:	ebba                	sd	a4,464(sp)
    80001aea:	ffff                	.2byte	0xffff
    80001aec:	ebd4                	sd	a3,144(a5)
    80001aee:	ffff                	.2byte	0xffff
    80001af0:	ebd4                	sd	a3,144(a5)
    80001af2:	ffff                	.2byte	0xffff
    80001af4:	ebd4                	sd	a3,144(a5)
    80001af6:	ffff                	.2byte	0xffff
    80001af8:	ebd4                	sd	a3,144(a5)
    80001afa:	ffff                	.2byte	0xffff
    80001afc:	eaee                	sd	s11,336(sp)
    80001afe:	ffff                	.2byte	0xffff
    80001b00:	ebd4                	sd	a3,144(a5)
    80001b02:	ffff                	.2byte	0xffff
    80001b04:	ebd4                	sd	a3,144(a5)
    80001b06:	ffff                	.2byte	0xffff
    80001b08:	ebd4                	sd	a3,144(a5)
    80001b0a:	ffff                	.2byte	0xffff
    80001b0c:	ea06                	sd	ra,272(sp)
    80001b0e:	ffff                	.2byte	0xffff
    80001b10:	ebd4                	sd	a3,144(a5)
    80001b12:	ffff                	.2byte	0xffff
    80001b14:	ebd4                	sd	a3,144(a5)
    80001b16:	ffff                	.2byte	0xffff
    80001b18:	ebd4                	sd	a3,144(a5)
    80001b1a:	ffff                	.2byte	0xffff
    80001b1c:	ebd4                	sd	a3,144(a5)
    80001b1e:	ffff                	.2byte	0xffff
    80001b20:	ebd4                	sd	a3,144(a5)
    80001b22:	ffff                	.2byte	0xffff
    80001b24:	ebd4                	sd	a3,144(a5)
    80001b26:	ffff                	.2byte	0xffff
    80001b28:	eba4                	sd	s1,80(a5)
    80001b2a:	ffff                	.2byte	0xffff
    80001b2c:	ebd4                	sd	a3,144(a5)
    80001b2e:	ffff                	.2byte	0xffff
    80001b30:	ebd4                	sd	a3,144(a5)
    80001b32:	ffff                	.2byte	0xffff
    80001b34:	ebd4                	sd	a3,144(a5)
    80001b36:	ffff                	.2byte	0xffff
    80001b38:	ebd4                	sd	a3,144(a5)
    80001b3a:	ffff                	.2byte	0xffff
    80001b3c:	eaf6                	sd	t4,336(sp)
    80001b3e:	ffff                	.2byte	0xffff
    80001b40:	676e6953          	.4byte	0x676e6953
    80001b44:	656c                	ld	a1,200(a0)
    80001b46:	6320                	ld	s0,64(a4)
    80001b48:	3a65726f          	jal	tp,80058eee <out+0x36ede>
    80001b4c:	2520                	.2byte	0x2520
    80001b4e:	286c                	.2byte	0x286c
    80001b50:	6c637963          	bgeu	t1,t1,80002222 <dump+0x742>
    80001b54:	7365                	lui	t1,0xffff9
    80001b56:	2029                	.2byte	0x2029
    80001b58:	0a0d                	addi	s4,s4,3
    80001b5a:	0000                	unimp
    80001b5c:	0000                	unimp
    80001b5e:	0000                	unimp
    80001b60:	754d                	lui	a0,0xffff3
    80001b62:	746c                	ld	a1,232(s0)
    80001b64:	2069                	.2byte	0x2069
    80001b66:	65726f63          	bltu	tp,s7,800021c4 <dump+0x6e4>
    80001b6a:	203a                	.2byte	0x203a
    80001b6c:	6c25                	lui	s8,0x9
    80001b6e:	6328                	ld	a0,64(a4)
    80001b70:	6379                	lui	t1,0x1e
    80001b72:	656c                	ld	a1,200(a0)
    80001b74:	0d202973          	csrr	s2,0xd2
    80001b78:	000a                	c.slli	zero,0x2
    80001b7a:	0000                	unimp
    80001b7c:	0000                	unimp
    80001b7e:	0000                	unimp
    80001b80:	706d6f43          	.4byte	0x706d6f43
    80001b84:	656c                	ld	a1,200(a0)
    80001b86:	6574                	ld	a3,200(a0)
    80001b88:	0a0d                	addi	s4,s4,3
    80001b8a:	0a0d                	addi	s4,s4,3
	...

Disassembly of section .bss:

0000000080020000 <thread_widx>:
volatile uint32_t thread_widx = 0;
    80020000:	0000                	unimp
	...

0000000080020004 <thread_ridx>:
volatile uint32_t thread_ridx = 0;
    80020004:	0000                	unimp
	...

0000000080020008 <thread_cnt>:
	...

0000000080020010 <in0>:
	...

0000000080021010 <in1>:
	...

0000000080022010 <out>:
	...

Disassembly of section .riscv.attributes:

0000000000000000 <.riscv.attributes>:
   0:	2e41                	addiw	t3,t3,16
   2:	0000                	unimp
   4:	7200                	ld	s0,32(a2)
   6:	7369                	lui	t1,0xffffa
   8:	01007663          	bgeu	zero,a6,14 <_prog_start-0x7fffffec>
   c:	0024                	addi	s1,sp,8
   e:	0000                	unimp
  10:	1004                	addi	s1,sp,32
  12:	7205                	lui	tp,0xfffe1
  14:	3676                	.2byte	0x3676
  16:	6934                	ld	a3,80(a0)
  18:	7032                	.2byte	0x7032
  1a:	5f30                	lw	a2,120(a4)
  1c:	326d                	addiw	tp,tp,-5 # fffffffffffe0ffb <out+0xffffffff7ffbefeb>
  1e:	3070                	.2byte	0x3070
  20:	615f 7032 5f30      	.byte	0x5f, 0x61, 0x32, 0x70, 0x30, 0x5f
  26:	30703263          	.4byte	0x30703263
  2a:	0800                	addi	s0,sp,16
  2c:	0a01                	addi	s4,s4,0
  2e:	0b              	Address 0x000000000000002e is out of bounds.


Disassembly of section .comment:

0000000000000000 <.comment>:
   0:	3a434347          	.4byte	0x3a434347
   4:	2820                	.2byte	0x2820
   6:	65653267          	.4byte	0x65653267
   a:	6535                	lui	a0,0xd
   c:	3334                	.2byte	0x3334
   e:	3030                	.2byte	0x3030
  10:	3831                	addiw	a6,a6,-20
  12:	2029                	.2byte	0x2029
  14:	3231                	addiw	tp,tp,-20 # ffffffffffffffec <out+0xffffffff7ffddfdc>
  16:	322e                	.2byte	0x322e
  18:	302e                	.2byte	0x302e
	...

Disassembly of section .debug_line:

0000000000000000 <.debug_line>:
       0:	0374                	addi	a3,sp,396
       2:	0000                	unimp
       4:	0005                	c.nop	1
       6:	0008                	.2byte	0x8
       8:	002e                	c.slli	zero,0xb
       a:	0000                	unimp
       c:	0101                	addi	sp,sp,0
       e:	fb01                	bnez	a4,ffffffffffffff1e <out+0xffffffff7ffddf0e>
      10:	0d0e                	slli	s10,s10,0x3
      12:	0100                	addi	s0,sp,128
      14:	0101                	addi	sp,sp,0
      16:	0001                	nop
      18:	0000                	unimp
      1a:	0001                	nop
      1c:	0100                	addi	s0,sp,128
      1e:	0101                	addi	sp,sp,0
      20:	021f 0000 0000      	.byte	0x1f, 0x02, 0x00, 0x00, 0x00, 0x00
      26:	0055                	c.nop	21
      28:	0000                	unimp
      2a:	0102                	c.slli64	sp
      2c:	021f 020f 00ae      	.byte	0x1f, 0x02, 0x0f, 0x02, 0xae, 0x00
      32:	0000                	unimp
      34:	ae01                	j	344 <_prog_start-0x7ffffcbc>
      36:	0000                	unimp
      38:	0100                	addi	s0,sp,128
      3a:	0900                	addi	s0,sp,144
      3c:	0002                	c.slli64	zero
      3e:	0000                	unimp
      40:	0080                	addi	s0,sp,64
      42:	0000                	unimp
      44:	0300                	addi	s0,sp,384
      46:	010c                	addi	a1,sp,128
      48:	08090103          	lb	sp,128(s2)
      4c:	0100                	addi	s0,sp,128
      4e:	04090103          	lb	sp,64(s2)
      52:	0100                	addi	s0,sp,128
      54:	04090103          	lb	sp,64(s2)
      58:	0100                	addi	s0,sp,128
      5a:	04090103          	lb	sp,64(s2)
      5e:	0100                	addi	s0,sp,128
      60:	04090103          	lb	sp,64(s2)
      64:	0100                	addi	s0,sp,128
      66:	04090203          	lb	tp,64(s2)
      6a:	0100                	addi	s0,sp,128
      6c:	04090603          	lb	a2,64(s2)
      70:	0100                	addi	s0,sp,128
      72:	04090103          	lb	sp,64(s2)
      76:	0100                	addi	s0,sp,128
      78:	04090103          	lb	sp,64(s2)
      7c:	0100                	addi	s0,sp,128
      7e:	08090103          	lb	sp,128(s2)
      82:	0100                	addi	s0,sp,128
      84:	04090103          	lb	sp,64(s2)
      88:	0100                	addi	s0,sp,128
      8a:	04090203          	lb	tp,64(s2)
      8e:	0100                	addi	s0,sp,128
      90:	04090103          	lb	sp,64(s2)
      94:	0100                	addi	s0,sp,128
      96:	04090103          	lb	sp,64(s2)
      9a:	0100                	addi	s0,sp,128
      9c:	08090103          	lb	sp,128(s2)
      a0:	0100                	addi	s0,sp,128
      a2:	04090103          	lb	sp,64(s2)
      a6:	0100                	addi	s0,sp,128
      a8:	04090203          	lb	tp,64(s2)
      ac:	0100                	addi	s0,sp,128
      ae:	04090103          	lb	sp,64(s2)
      b2:	0100                	addi	s0,sp,128
      b4:	04090103          	lb	sp,64(s2)
      b8:	0100                	addi	s0,sp,128
      ba:	08090103          	lb	sp,128(s2)
      be:	0100                	addi	s0,sp,128
      c0:	04090103          	lb	sp,64(s2)
      c4:	0100                	addi	s0,sp,128
      c6:	04090203          	lb	tp,64(s2)
      ca:	0100                	addi	s0,sp,128
      cc:	04090103          	lb	sp,64(s2)
      d0:	0100                	addi	s0,sp,128
      d2:	04090103          	lb	sp,64(s2)
      d6:	0100                	addi	s0,sp,128
      d8:	08090103          	lb	sp,128(s2)
      dc:	0100                	addi	s0,sp,128
      de:	04090103          	lb	sp,64(s2)
      e2:	0100                	addi	s0,sp,128
      e4:	04090203          	lb	tp,64(s2)
      e8:	0100                	addi	s0,sp,128
      ea:	04090103          	lb	sp,64(s2)
      ee:	0100                	addi	s0,sp,128
      f0:	04090103          	lb	sp,64(s2)
      f4:	0100                	addi	s0,sp,128
      f6:	08090103          	lb	sp,128(s2)
      fa:	0100                	addi	s0,sp,128
      fc:	04090103          	lb	sp,64(s2)
     100:	0100                	addi	s0,sp,128
     102:	04090203          	lb	tp,64(s2)
     106:	0100                	addi	s0,sp,128
     108:	04090103          	lb	sp,64(s2)
     10c:	0100                	addi	s0,sp,128
     10e:	04090103          	lb	sp,64(s2)
     112:	0100                	addi	s0,sp,128
     114:	08090103          	lb	sp,128(s2)
     118:	0100                	addi	s0,sp,128
     11a:	04090103          	lb	sp,64(s2)
     11e:	0100                	addi	s0,sp,128
     120:	04090203          	lb	tp,64(s2)
     124:	0100                	addi	s0,sp,128
     126:	08090103          	lb	sp,128(s2)
     12a:	0100                	addi	s0,sp,128
     12c:	04090203          	lb	tp,64(s2)
     130:	0100                	addi	s0,sp,128
     132:	04090103          	lb	sp,64(s2)
     136:	0100                	addi	s0,sp,128
     138:	04090103          	lb	sp,64(s2)
     13c:	0100                	addi	s0,sp,128
     13e:	04090103          	lb	sp,64(s2)
     142:	0100                	addi	s0,sp,128
     144:	04090103          	lb	sp,64(s2)
     148:	0100                	addi	s0,sp,128
     14a:	04090103          	lb	sp,64(s2)
     14e:	0100                	addi	s0,sp,128
     150:	04090303          	lb	t1,64(s2)
     154:	0100                	addi	s0,sp,128
     156:	04090103          	lb	sp,64(s2)
     15a:	0100                	addi	s0,sp,128
     15c:	04090103          	lb	sp,64(s2)
     160:	0100                	addi	s0,sp,128
     162:	04090103          	lb	sp,64(s2)
     166:	0100                	addi	s0,sp,128
     168:	04090103          	lb	sp,64(s2)
     16c:	0100                	addi	s0,sp,128
     16e:	04090103          	lb	sp,64(s2)
     172:	0100                	addi	s0,sp,128
     174:	04090103          	lb	sp,64(s2)
     178:	0100                	addi	s0,sp,128
     17a:	04090103          	lb	sp,64(s2)
     17e:	0100                	addi	s0,sp,128
     180:	04090103          	lb	sp,64(s2)
     184:	0100                	addi	s0,sp,128
     186:	04090103          	lb	sp,64(s2)
     18a:	0100                	addi	s0,sp,128
     18c:	04090103          	lb	sp,64(s2)
     190:	0100                	addi	s0,sp,128
     192:	04090103          	lb	sp,64(s2)
     196:	0100                	addi	s0,sp,128
     198:	04090103          	lb	sp,64(s2)
     19c:	0100                	addi	s0,sp,128
     19e:	04090103          	lb	sp,64(s2)
     1a2:	0100                	addi	s0,sp,128
     1a4:	04090103          	lb	sp,64(s2)
     1a8:	0100                	addi	s0,sp,128
     1aa:	04090103          	lb	sp,64(s2)
     1ae:	0100                	addi	s0,sp,128
     1b0:	04090103          	lb	sp,64(s2)
     1b4:	0100                	addi	s0,sp,128
     1b6:	04090103          	lb	sp,64(s2)
     1ba:	0100                	addi	s0,sp,128
     1bc:	04090103          	lb	sp,64(s2)
     1c0:	0100                	addi	s0,sp,128
     1c2:	04090103          	lb	sp,64(s2)
     1c6:	0100                	addi	s0,sp,128
     1c8:	04090103          	lb	sp,64(s2)
     1cc:	0100                	addi	s0,sp,128
     1ce:	04090103          	lb	sp,64(s2)
     1d2:	0100                	addi	s0,sp,128
     1d4:	04090103          	lb	sp,64(s2)
     1d8:	0100                	addi	s0,sp,128
     1da:	04090103          	lb	sp,64(s2)
     1de:	0100                	addi	s0,sp,128
     1e0:	04090103          	lb	sp,64(s2)
     1e4:	0100                	addi	s0,sp,128
     1e6:	04090103          	lb	sp,64(s2)
     1ea:	0100                	addi	s0,sp,128
     1ec:	04090103          	lb	sp,64(s2)
     1f0:	0100                	addi	s0,sp,128
     1f2:	04090103          	lb	sp,64(s2)
     1f6:	0100                	addi	s0,sp,128
     1f8:	04090103          	lb	sp,64(s2)
     1fc:	0100                	addi	s0,sp,128
     1fe:	04090103          	lb	sp,64(s2)
     202:	0100                	addi	s0,sp,128
     204:	04090103          	lb	sp,64(s2)
     208:	0100                	addi	s0,sp,128
     20a:	04090103          	lb	sp,64(s2)
     20e:	0100                	addi	s0,sp,128
     210:	04090103          	lb	sp,64(s2)
     214:	0100                	addi	s0,sp,128
     216:	04090203          	lb	tp,64(s2)
     21a:	0100                	addi	s0,sp,128
     21c:	08090103          	lb	sp,128(s2)
     220:	0100                	addi	s0,sp,128
     222:	04090103          	lb	sp,64(s2)
     226:	0100                	addi	s0,sp,128
     228:	08090103          	lb	sp,128(s2)
     22c:	0100                	addi	s0,sp,128
     22e:	04090203          	lb	tp,64(s2)
     232:	0100                	addi	s0,sp,128
     234:	04090103          	lb	sp,64(s2)
     238:	0100                	addi	s0,sp,128
     23a:	04090203          	lb	tp,64(s2)
     23e:	0100                	addi	s0,sp,128
     240:	04090103          	lb	sp,64(s2)
     244:	0100                	addi	s0,sp,128
     246:	04090303          	lb	t1,64(s2)
     24a:	0100                	addi	s0,sp,128
     24c:	08090103          	lb	sp,128(s2)
     250:	0100                	addi	s0,sp,128
     252:	04090103          	lb	sp,64(s2)
     256:	0100                	addi	s0,sp,128
     258:	04090103          	lb	sp,64(s2)
     25c:	0100                	addi	s0,sp,128
     25e:	04090103          	lb	sp,64(s2)
     262:	0100                	addi	s0,sp,128
     264:	04090103          	lb	sp,64(s2)
     268:	0100                	addi	s0,sp,128
     26a:	04090103          	lb	sp,64(s2)
     26e:	0100                	addi	s0,sp,128
     270:	04090103          	lb	sp,64(s2)
     274:	0100                	addi	s0,sp,128
     276:	04090103          	lb	sp,64(s2)
     27a:	0100                	addi	s0,sp,128
     27c:	04090103          	lb	sp,64(s2)
     280:	0100                	addi	s0,sp,128
     282:	04090103          	lb	sp,64(s2)
     286:	0100                	addi	s0,sp,128
     288:	04090103          	lb	sp,64(s2)
     28c:	0100                	addi	s0,sp,128
     28e:	04090103          	lb	sp,64(s2)
     292:	0100                	addi	s0,sp,128
     294:	04090103          	lb	sp,64(s2)
     298:	0100                	addi	s0,sp,128
     29a:	04090103          	lb	sp,64(s2)
     29e:	0100                	addi	s0,sp,128
     2a0:	04090103          	lb	sp,64(s2)
     2a4:	0100                	addi	s0,sp,128
     2a6:	04090103          	lb	sp,64(s2)
     2aa:	0100                	addi	s0,sp,128
     2ac:	04090103          	lb	sp,64(s2)
     2b0:	0100                	addi	s0,sp,128
     2b2:	04090103          	lb	sp,64(s2)
     2b6:	0100                	addi	s0,sp,128
     2b8:	04090103          	lb	sp,64(s2)
     2bc:	0100                	addi	s0,sp,128
     2be:	04090103          	lb	sp,64(s2)
     2c2:	0100                	addi	s0,sp,128
     2c4:	04090103          	lb	sp,64(s2)
     2c8:	0100                	addi	s0,sp,128
     2ca:	04090103          	lb	sp,64(s2)
     2ce:	0100                	addi	s0,sp,128
     2d0:	04090103          	lb	sp,64(s2)
     2d4:	0100                	addi	s0,sp,128
     2d6:	04090103          	lb	sp,64(s2)
     2da:	0100                	addi	s0,sp,128
     2dc:	04090103          	lb	sp,64(s2)
     2e0:	0100                	addi	s0,sp,128
     2e2:	04090103          	lb	sp,64(s2)
     2e6:	0100                	addi	s0,sp,128
     2e8:	04090103          	lb	sp,64(s2)
     2ec:	0100                	addi	s0,sp,128
     2ee:	04090103          	lb	sp,64(s2)
     2f2:	0100                	addi	s0,sp,128
     2f4:	04090103          	lb	sp,64(s2)
     2f8:	0100                	addi	s0,sp,128
     2fa:	04090103          	lb	sp,64(s2)
     2fe:	0100                	addi	s0,sp,128
     300:	04090103          	lb	sp,64(s2)
     304:	0100                	addi	s0,sp,128
     306:	04090103          	lb	sp,64(s2)
     30a:	0100                	addi	s0,sp,128
     30c:	04090103          	lb	sp,64(s2)
     310:	0100                	addi	s0,sp,128
     312:	04090103          	lb	sp,64(s2)
     316:	0100                	addi	s0,sp,128
     318:	04090203          	lb	tp,64(s2)
     31c:	0100                	addi	s0,sp,128
     31e:	04090103          	lb	sp,64(s2)
     322:	0100                	addi	s0,sp,128
     324:	04090103          	lb	sp,64(s2)
     328:	0100                	addi	s0,sp,128
     32a:	04090103          	lb	sp,64(s2)
     32e:	0100                	addi	s0,sp,128
     330:	04090103          	lb	sp,64(s2)
     334:	0100                	addi	s0,sp,128
     336:	04090103          	lb	sp,64(s2)
     33a:	0100                	addi	s0,sp,128
     33c:	08090103          	lb	sp,128(s2)
     340:	0100                	addi	s0,sp,128
     342:	04090103          	lb	sp,64(s2)
     346:	0100                	addi	s0,sp,128
     348:	04090103          	lb	sp,64(s2)
     34c:	0100                	addi	s0,sp,128
     34e:	04090203          	lb	tp,64(s2)
     352:	0100                	addi	s0,sp,128
     354:	04090103          	lb	sp,64(s2)
     358:	0100                	addi	s0,sp,128
     35a:	04090103          	lb	sp,64(s2)
     35e:	0100                	addi	s0,sp,128
     360:	10090103          	lb	sp,256(s2)
     364:	0100                	addi	s0,sp,128
     366:	04090203          	lb	tp,64(s2)
     36a:	0100                	addi	s0,sp,128
     36c:	04090103          	lb	sp,64(s2)
     370:	0100                	addi	s0,sp,128
     372:	0409                	addi	s0,s0,2
     374:	0000                	unimp
     376:	0101                	addi	sp,sp,0
     378:	021e                	slli	tp,tp,0x7
     37a:	0000                	unimp
     37c:	0005                	c.nop	1
     37e:	0008                	.2byte	0x8
     380:	002e                	c.slli	zero,0xb
     382:	0000                	unimp
     384:	0101                	addi	sp,sp,0
     386:	fb01                	bnez	a4,296 <_prog_start-0x7ffffd6a>
     388:	0d0e                	slli	s10,s10,0x3
     38a:	0100                	addi	s0,sp,128
     38c:	0101                	addi	sp,sp,0
     38e:	0001                	nop
     390:	0000                	unimp
     392:	0001                	nop
     394:	0100                	addi	s0,sp,128
     396:	0101                	addi	sp,sp,0
     398:	021f 0000 0000      	.byte	0x1f, 0x02, 0x00, 0x00, 0x00, 0x00
     39e:	0055                	c.nop	21
     3a0:	0000                	unimp
     3a2:	0102                	c.slli64	sp
     3a4:	021f 020f 00b5      	.byte	0x1f, 0x02, 0x0f, 0x02, 0xb5, 0x00
     3aa:	0000                	unimp
     3ac:	b501                	j	1ac <_prog_start-0x7ffffe54>
     3ae:	0000                	unimp
     3b0:	0100                	addi	s0,sp,128
     3b2:	0900                	addi	s0,sp,144
     3b4:	5c02                	lw	s8,32(sp)
     3b6:	0002                	c.slli64	zero
     3b8:	0080                	addi	s0,sp,64
     3ba:	0000                	unimp
     3bc:	0300                	addi	s0,sp,384
     3be:	0116                	slli	sp,sp,0x5
     3c0:	04090103          	lb	sp,64(s2)
     3c4:	0100                	addi	s0,sp,128
     3c6:	04090103          	lb	sp,64(s2)
     3ca:	0100                	addi	s0,sp,128
     3cc:	04090103          	lb	sp,64(s2)
     3d0:	0100                	addi	s0,sp,128
     3d2:	04090103          	lb	sp,64(s2)
     3d6:	0100                	addi	s0,sp,128
     3d8:	04090103          	lb	sp,64(s2)
     3dc:	0100                	addi	s0,sp,128
     3de:	08090203          	lb	tp,128(s2)
     3e2:	0100                	addi	s0,sp,128
     3e4:	04090103          	lb	sp,64(s2)
     3e8:	0100                	addi	s0,sp,128
     3ea:	04090103          	lb	sp,64(s2)
     3ee:	0100                	addi	s0,sp,128
     3f0:	04090103          	lb	sp,64(s2)
     3f4:	0100                	addi	s0,sp,128
     3f6:	04090103          	lb	sp,64(s2)
     3fa:	0100                	addi	s0,sp,128
     3fc:	04090103          	lb	sp,64(s2)
     400:	0100                	addi	s0,sp,128
     402:	04090103          	lb	sp,64(s2)
     406:	0100                	addi	s0,sp,128
     408:	04090103          	lb	sp,64(s2)
     40c:	0100                	addi	s0,sp,128
     40e:	04090103          	lb	sp,64(s2)
     412:	0100                	addi	s0,sp,128
     414:	04090403          	lb	s0,64(s2)
     418:	0100                	addi	s0,sp,128
     41a:	04090103          	lb	sp,64(s2)
     41e:	0100                	addi	s0,sp,128
     420:	04090103          	lb	sp,64(s2)
     424:	0100                	addi	s0,sp,128
     426:	04090103          	lb	sp,64(s2)
     42a:	0100                	addi	s0,sp,128
     42c:	04090103          	lb	sp,64(s2)
     430:	0100                	addi	s0,sp,128
     432:	08090103          	lb	sp,128(s2)
     436:	0100                	addi	s0,sp,128
     438:	04090103          	lb	sp,64(s2)
     43c:	0100                	addi	s0,sp,128
     43e:	04090103          	lb	sp,64(s2)
     442:	0100                	addi	s0,sp,128
     444:	04090203          	lb	tp,64(s2)
     448:	0100                	addi	s0,sp,128
     44a:	04090103          	lb	sp,64(s2)
     44e:	0100                	addi	s0,sp,128
     450:	04090103          	lb	sp,64(s2)
     454:	0100                	addi	s0,sp,128
     456:	04090103          	lb	sp,64(s2)
     45a:	0100                	addi	s0,sp,128
     45c:	04090403          	lb	s0,64(s2)
     460:	0100                	addi	s0,sp,128
     462:	04090103          	lb	sp,64(s2)
     466:	0100                	addi	s0,sp,128
     468:	04090403          	lb	s0,64(s2)
     46c:	0100                	addi	s0,sp,128
     46e:	04090103          	lb	sp,64(s2)
     472:	0100                	addi	s0,sp,128
     474:	04090103          	lb	sp,64(s2)
     478:	0100                	addi	s0,sp,128
     47a:	04090103          	lb	sp,64(s2)
     47e:	0100                	addi	s0,sp,128
     480:	04090103          	lb	sp,64(s2)
     484:	0100                	addi	s0,sp,128
     486:	04090103          	lb	sp,64(s2)
     48a:	0100                	addi	s0,sp,128
     48c:	04090403          	lb	s0,64(s2)
     490:	0100                	addi	s0,sp,128
     492:	04090103          	lb	sp,64(s2)
     496:	0100                	addi	s0,sp,128
     498:	04090103          	lb	sp,64(s2)
     49c:	0100                	addi	s0,sp,128
     49e:	04090103          	lb	sp,64(s2)
     4a2:	0100                	addi	s0,sp,128
     4a4:	04090103          	lb	sp,64(s2)
     4a8:	0100                	addi	s0,sp,128
     4aa:	04090103          	lb	sp,64(s2)
     4ae:	0100                	addi	s0,sp,128
     4b0:	04090103          	lb	sp,64(s2)
     4b4:	0100                	addi	s0,sp,128
     4b6:	04090103          	lb	sp,64(s2)
     4ba:	0100                	addi	s0,sp,128
     4bc:	04090103          	lb	sp,64(s2)
     4c0:	0100                	addi	s0,sp,128
     4c2:	04090103          	lb	sp,64(s2)
     4c6:	0100                	addi	s0,sp,128
     4c8:	04090103          	lb	sp,64(s2)
     4cc:	0100                	addi	s0,sp,128
     4ce:	04090103          	lb	sp,64(s2)
     4d2:	0100                	addi	s0,sp,128
     4d4:	04090103          	lb	sp,64(s2)
     4d8:	0100                	addi	s0,sp,128
     4da:	04090403          	lb	s0,64(s2)
     4de:	0100                	addi	s0,sp,128
     4e0:	04090103          	lb	sp,64(s2)
     4e4:	0100                	addi	s0,sp,128
     4e6:	04090103          	lb	sp,64(s2)
     4ea:	0100                	addi	s0,sp,128
     4ec:	04090103          	lb	sp,64(s2)
     4f0:	0100                	addi	s0,sp,128
     4f2:	04090103          	lb	sp,64(s2)
     4f6:	0100                	addi	s0,sp,128
     4f8:	04090103          	lb	sp,64(s2)
     4fc:	0100                	addi	s0,sp,128
     4fe:	04090103          	lb	sp,64(s2)
     502:	0100                	addi	s0,sp,128
     504:	04090403          	lb	s0,64(s2)
     508:	0100                	addi	s0,sp,128
     50a:	04090103          	lb	sp,64(s2)
     50e:	0100                	addi	s0,sp,128
     510:	04090103          	lb	sp,64(s2)
     514:	0100                	addi	s0,sp,128
     516:	04090203          	lb	tp,64(s2)
     51a:	0100                	addi	s0,sp,128
     51c:	08090103          	lb	sp,128(s2)
     520:	0100                	addi	s0,sp,128
     522:	04090103          	lb	sp,64(s2)
     526:	0100                	addi	s0,sp,128
     528:	04090203          	lb	tp,64(s2)
     52c:	0100                	addi	s0,sp,128
     52e:	08090103          	lb	sp,128(s2)
     532:	0100                	addi	s0,sp,128
     534:	04090103          	lb	sp,64(s2)
     538:	0100                	addi	s0,sp,128
     53a:	04090203          	lb	tp,64(s2)
     53e:	0100                	addi	s0,sp,128
     540:	08090103          	lb	sp,128(s2)
     544:	0100                	addi	s0,sp,128
     546:	04090103          	lb	sp,64(s2)
     54a:	0100                	addi	s0,sp,128
     54c:	04090203          	lb	tp,64(s2)
     550:	0100                	addi	s0,sp,128
     552:	08090103          	lb	sp,128(s2)
     556:	0100                	addi	s0,sp,128
     558:	04090103          	lb	sp,64(s2)
     55c:	0100                	addi	s0,sp,128
     55e:	04090203          	lb	tp,64(s2)
     562:	0100                	addi	s0,sp,128
     564:	08090103          	lb	sp,128(s2)
     568:	0100                	addi	s0,sp,128
     56a:	04090103          	lb	sp,64(s2)
     56e:	0100                	addi	s0,sp,128
     570:	04090203          	lb	tp,64(s2)
     574:	0100                	addi	s0,sp,128
     576:	08090103          	lb	sp,128(s2)
     57a:	0100                	addi	s0,sp,128
     57c:	04090103          	lb	sp,64(s2)
     580:	0100                	addi	s0,sp,128
     582:	04090203          	lb	tp,64(s2)
     586:	0100                	addi	s0,sp,128
     588:	08090103          	lb	sp,128(s2)
     58c:	0100                	addi	s0,sp,128
     58e:	04090103          	lb	sp,64(s2)
     592:	0100                	addi	s0,sp,128
     594:	0409                	addi	s0,s0,2
     596:	0000                	unimp
     598:	0101                	addi	sp,sp,0
     59a:	0396                	slli	t2,t2,0x5
     59c:	0000                	unimp
     59e:	0005                	c.nop	1
     5a0:	0008                	.2byte	0x8
     5a2:	0052                	c.slli	zero,0x14
     5a4:	0000                	unimp
     5a6:	0101                	addi	sp,sp,0
     5a8:	fb01                	bnez	a4,4b8 <_prog_start-0x7ffffb48>
     5aa:	0d0e                	slli	s10,s10,0x3
     5ac:	0100                	addi	s0,sp,128
     5ae:	0101                	addi	sp,sp,0
     5b0:	0001                	nop
     5b2:	0000                	unimp
     5b4:	0001                	nop
     5b6:	0100                	addi	s0,sp,128
     5b8:	0101                	addi	sp,sp,0
     5ba:	061f 0000 0000      	.byte	0x1f, 0x06, 0x00, 0x00, 0x00, 0x00
     5c0:	0055                	c.nop	21
     5c2:	0000                	unimp
     5c4:	0121                	addi	sp,sp,8
     5c6:	0000                	unimp
     5c8:	017e                	slli	sp,sp,0x1f
     5ca:	0000                	unimp
     5cc:	01f2                	slli	gp,gp,0x1c
     5ce:	0000                	unimp
     5d0:	025f 0000 0102      	.byte	0x5f, 0x02, 0x00, 0x00, 0x02, 0x01
     5d6:	021f 060f 0117      	.byte	0x1f, 0x02, 0x0f, 0x06, 0x17, 0x01
     5dc:	0000                	unimp
     5de:	c801                	beqz	s0,5ee <_prog_start-0x7ffffa12>
     5e0:	0002                	c.slli64	zero
     5e2:	0200                	addi	s0,sp,256
     5e4:	00000117          	auipc	sp,0x0
     5e8:	d201                	beqz	a2,4e8 <_prog_start-0x7ffffb18>
     5ea:	0002                	c.slli64	zero
     5ec:	0300                	addi	s0,sp,384
     5ee:	000002db          	.4byte	0x2db
     5f2:	ec04                	sd	s1,24(s0)
     5f4:	0002                	c.slli64	zero
     5f6:	0500                	addi	s0,sp,640
     5f8:	0105                	addi	sp,sp,1 # 5e5 <_prog_start-0x7ffffa1b>
     5fa:	0900                	addi	s0,sp,144
     5fc:	bc02                	.2byte	0xbc02
     5fe:	00800003          	lb	zero,8(zero) # 8 <_prog_start-0x7ffffff8>
     602:	0000                	unimp
     604:	0300                	addi	s0,sp,384
     606:	0115                	addi	sp,sp,5
     608:	1505                	addi	a0,a0,-31 # cfe1 <_prog_start-0x7fff301f>
     60a:	0c090103          	lb	sp,192(s2)
     60e:	0100                	addi	s0,sp,128
     610:	0305                	addi	t1,t1,1 # ffffffffffffa001 <out+0xffffffff7ffd7ff1>
     612:	0200                	addi	s0,sp,256
     614:	0104                	addi	s1,sp,128
     616:	08090403          	lb	s0,128(s2)
     61a:	0100                	addi	s0,sp,128
     61c:	0d05                	addi	s10,s10,1
     61e:	0200                	addi	s0,sp,256
     620:	0104                	addi	s1,sp,128
     622:	16090403          	lb	s0,352(s2)
     626:	0100                	addi	s0,sp,128
     628:	0105                	addi	sp,sp,1
     62a:	0a090503          	lb	a0,160(s2)
     62e:	0100                	addi	s0,sp,128
     630:	0204                	addi	s1,sp,256
     632:	0a096503          	lwu	a0,160(s2)
     636:	0100                	addi	s0,sp,128
     638:	0205                	addi	tp,tp,1 # 1 <_prog_start-0x7fffffff>
     63a:	0c090203          	lb	tp,192(s2)
     63e:	0100                	addi	s0,sp,128
     640:	0305                	addi	t1,t1,1
     642:	0200                	addi	s0,sp,256
     644:	0204                	addi	s1,sp,256
     646:	02090103          	lb	sp,32(s2)
     64a:	0100                	addi	s0,sp,128
     64c:	1c05                	addi	s8,s8,-31 # 8fe1 <_prog_start-0x7fff701f>
     64e:	0200                	addi	s0,sp,256
     650:	0204                	addi	s1,sp,256
     652:	0a097f03          	.4byte	0xa097f03
     656:	0100                	addi	s0,sp,128
     658:	0c05                	addi	s8,s8,1
     65a:	0200                	addi	s0,sp,256
     65c:	0104                	addi	s1,sp,128
     65e:	0a090003          	lb	zero,160(s2)
     662:	0100                	addi	s0,sp,128
     664:	1205                	addi	tp,tp,-31 # ffffffffffffffe1 <out+0xffffffff7ffddfd1>
     666:	0200                	addi	s0,sp,256
     668:	0104                	addi	s1,sp,128
     66a:	0c090003          	lb	zero,192(s2)
     66e:	0100                	addi	s0,sp,128
     670:	0105                	addi	sp,sp,1
     672:	0a090203          	lb	tp,160(s2)
     676:	0100                	addi	s0,sp,128
     678:	0c090303          	lb	t1,192(s2)
     67c:	0100                	addi	s0,sp,128
     67e:	0205                	addi	tp,tp,1 # 1 <_prog_start-0x7fffffff>
     680:	0c090103          	lb	sp,192(s2)
     684:	0100                	addi	s0,sp,128
     686:	08090103          	lb	sp,128(s2)
     68a:	0100                	addi	s0,sp,128
     68c:	06090103          	lb	sp,96(s2)
     690:	0100                	addi	s0,sp,128
     692:	0105                	addi	sp,sp,1
     694:	06090103          	lb	sp,96(s2)
     698:	0100                	addi	s0,sp,128
     69a:	0a090303          	lb	t1,160(s2)
     69e:	0100                	addi	s0,sp,128
     6a0:	0205                	addi	tp,tp,1 # 1 <_prog_start-0x7fffffff>
     6a2:	1e090503          	lb	a0,480(s2)
     6a6:	0100                	addi	s0,sp,128
     6a8:	0c05                	addi	s8,s8,1
     6aa:	14090103          	lb	sp,320(s2)
     6ae:	0100                	addi	s0,sp,128
     6b0:	0a05                	addi	s4,s4,1
     6b2:	04090103          	lb	sp,64(s2)
     6b6:	0100                	addi	s0,sp,128
     6b8:	04090103          	lb	sp,64(s2)
     6bc:	0100                	addi	s0,sp,128
     6be:	0805                	addi	a6,a6,1
     6c0:	04090103          	lb	sp,64(s2)
     6c4:	0100                	addi	s0,sp,128
     6c6:	0605                	addi	a2,a2,1
     6c8:	02090103          	lb	sp,32(s2)
     6cc:	0100                	addi	s0,sp,128
     6ce:	0405                	addi	s0,s0,1
     6d0:	0c090103          	lb	sp,192(s2)
     6d4:	0100                	addi	s0,sp,128
     6d6:	0705                	addi	a4,a4,1
     6d8:	3a090303          	lb	t1,928(s2)
     6dc:	0100                	addi	s0,sp,128
     6de:	0e05                	addi	t3,t3,1
     6e0:	12090203          	lb	tp,288(s2)
     6e4:	0100                	addi	s0,sp,128
     6e6:	0505                	addi	a0,a0,1
     6e8:	04090003          	lb	zero,64(s2)
     6ec:	0100                	addi	s0,sp,128
     6ee:	2805                	addiw	a6,a6,1
     6f0:	0200                	addi	s0,sp,256
     6f2:	0304                	addi	s1,sp,384
     6f4:	02090003          	lb	zero,32(s2)
     6f8:	0100                	addi	s0,sp,128
     6fa:	1f05                	addi	t5,t5,-31
     6fc:	0200                	addi	s0,sp,256
     6fe:	0304                	addi	s1,sp,384
     700:	0c090003          	lb	zero,192(s2)
     704:	0100                	addi	s0,sp,128
     706:	1705                	addi	a4,a4,-31
     708:	0200                	addi	s0,sp,256
     70a:	0104                	addi	s1,sp,128
     70c:	0a090003          	lb	zero,160(s2)
     710:	0100                	addi	s0,sp,128
     712:	0805                	addi	a6,a6,1
     714:	10090103          	lb	sp,256(s2)
     718:	0100                	addi	s0,sp,128
     71a:	0605                	addi	a2,a2,1
     71c:	06090103          	lb	sp,96(s2)
     720:	0100                	addi	s0,sp,128
     722:	08090103          	lb	sp,128(s2)
     726:	0100                	addi	s0,sp,128
     728:	0f05                	addi	t5,t5,1
     72a:	02090303          	lb	t1,32(s2)
     72e:	0100                	addi	s0,sp,128
     730:	0605                	addi	a2,a2,1
     732:	08090003          	lb	zero,128(s2)
     736:	0100                	addi	s0,sp,128
     738:	2d05                	addiw	s10,s10,1
     73a:	0200                	addi	s0,sp,256
     73c:	0304                	addi	s1,sp,384
     73e:	02090003          	lb	zero,32(s2)
     742:	0100                	addi	s0,sp,128
     744:	2b05                	addiw	s6,s6,1
     746:	0200                	addi	s0,sp,256
     748:	0304                	addi	s1,sp,384
     74a:	08090003          	lb	zero,128(s2)
     74e:	0100                	addi	s0,sp,128
     750:	2805                	addiw	a6,a6,1
     752:	0200                	addi	s0,sp,256
     754:	0304                	addi	s1,sp,384
     756:	08090003          	lb	zero,128(s2)
     75a:	0100                	addi	s0,sp,128
     75c:	1f05                	addi	t5,t5,-31
     75e:	0200                	addi	s0,sp,256
     760:	0304                	addi	s1,sp,384
     762:	0c090003          	lb	zero,192(s2)
     766:	0100                	addi	s0,sp,128
     768:	1905                	addi	s2,s2,-31
     76a:	0200                	addi	s0,sp,256
     76c:	0104                	addi	s1,sp,128
     76e:	0a090003          	lb	zero,160(s2)
     772:	0100                	addi	s0,sp,128
     774:	1505                	addi	a0,a0,-31
     776:	0a090103          	lb	sp,160(s2)
     77a:	0100                	addi	s0,sp,128
     77c:	1105                	addi	sp,sp,-31
     77e:	0a090003          	lb	zero,160(s2)
     782:	0100                	addi	s0,sp,128
     784:	0b05                	addi	s6,s6,1
     786:	0c090003          	lb	zero,192(s2)
     78a:	0100                	addi	s0,sp,128
     78c:	0805                	addi	a6,a6,1
     78e:	04090103          	lb	sp,64(s2)
     792:	0100                	addi	s0,sp,128
     794:	0d05                	addi	s10,s10,1
     796:	0e097d03          	.4byte	0xe097d03
     79a:	0100                	addi	s0,sp,128
     79c:	0e05                	addi	t3,t3,1
     79e:	06090503          	lb	a0,96(s2)
     7a2:	0100                	addi	s0,sp,128
     7a4:	0505                	addi	a0,a0,1
     7a6:	04090003          	lb	zero,64(s2)
     7aa:	0100                	addi	s0,sp,128
     7ac:	2505                	addiw	a0,a0,1
     7ae:	0200                	addi	s0,sp,256
     7b0:	0304                	addi	s1,sp,384
     7b2:	02090003          	lb	zero,32(s2)
     7b6:	0100                	addi	s0,sp,128
     7b8:	2105                	addiw	sp,sp,1
     7ba:	0200                	addi	s0,sp,256
     7bc:	0304                	addi	s1,sp,384
     7be:	12090003          	lb	zero,288(s2)
     7c2:	0100                	addi	s0,sp,128
     7c4:	1605                	addi	a2,a2,-31
     7c6:	0200                	addi	s0,sp,256
     7c8:	0104                	addi	s1,sp,128
     7ca:	0a090003          	lb	zero,160(s2)
     7ce:	0100                	addi	s0,sp,128
     7d0:	1a05                	addi	s4,s4,-31
     7d2:	0200                	addi	s0,sp,256
     7d4:	0104                	addi	s1,sp,128
     7d6:	0c090003          	lb	zero,192(s2)
     7da:	0100                	addi	s0,sp,128
     7dc:	0505                	addi	a0,a0,1
     7de:	02090103          	lb	sp,32(s2)
     7e2:	0100                	addi	s0,sp,128
     7e4:	0d05                	addi	s10,s10,1
     7e6:	0200                	addi	s0,sp,256
     7e8:	0104                	addi	s1,sp,128
     7ea:	02090203          	lb	tp,32(s2)
     7ee:	0100                	addi	s0,sp,128
     7f0:	0805                	addi	a6,a6,1
     7f2:	08090503          	lb	a0,128(s2)
     7f6:	0100                	addi	s0,sp,128
     7f8:	0a090103          	lb	sp,160(s2)
     7fc:	0100                	addi	s0,sp,128
     7fe:	12090103          	lb	sp,288(s2)
     802:	0100                	addi	s0,sp,128
     804:	0a05                	addi	s4,s4,1
     806:	0a090203          	lb	tp,160(s2)
     80a:	0100                	addi	s0,sp,128
     80c:	0805                	addi	a6,a6,1
     80e:	0e090003          	lb	zero,224(s2)
     812:	0100                	addi	s0,sp,128
     814:	1605                	addi	a2,a2,-31
     816:	08090103          	lb	sp,128(s2)
     81a:	0100                	addi	s0,sp,128
     81c:	0200                	addi	s0,sp,256
     81e:	0104                	addi	s1,sp,128
     820:	0306                	slli	t1,t1,0x1
     822:	0900                	addi	s0,sp,144
     824:	000a                	c.slli	zero,0x2
     826:	0001                	nop
     828:	0402                	c.slli64	s0
     82a:	0302                	c.slli64	t1
     82c:	0900                	addi	s0,sp,144
     82e:	0004                	.2byte	0x4
     830:	0501                	addi	a0,a0,0
     832:	0008                	.2byte	0x8
     834:	0402                	c.slli64	s0
     836:	0604                	addi	s1,sp,768
     838:	02090003          	lb	zero,32(s2)
     83c:	0100                	addi	s0,sp,128
     83e:	0505                	addi	a0,a0,1
     840:	0200                	addi	s0,sp,256
     842:	0404                	addi	s1,sp,512
     844:	04090203          	lb	tp,64(s2)
     848:	0100                	addi	s0,sp,128
     84a:	0d05                	addi	s10,s10,1
     84c:	02090203          	lb	tp,32(s2)
     850:	0100                	addi	s0,sp,128
     852:	0805                	addi	a6,a6,1
     854:	10090003          	lb	zero,256(s2)
     858:	0100                	addi	s0,sp,128
     85a:	0605                	addi	a2,a2,1
     85c:	06090103          	lb	sp,96(s2)
     860:	0100                	addi	s0,sp,128
     862:	1905                	addi	s2,s2,-31
     864:	0200                	addi	s0,sp,256
     866:	0104                	addi	s1,sp,128
     868:	0a090003          	lb	zero,160(s2)
     86c:	0100                	addi	s0,sp,128
     86e:	0605                	addi	a2,a2,1
     870:	0200                	addi	s0,sp,256
     872:	0104                	addi	s1,sp,128
     874:	08090003          	lb	zero,128(s2)
     878:	0100                	addi	s0,sp,128
     87a:	2705                	addiw	a4,a4,1
     87c:	0200                	addi	s0,sp,256
     87e:	0204                	addi	s1,sp,256
     880:	0a090003          	lb	zero,160(s2)
     884:	0100                	addi	s0,sp,128
     886:	0605                	addi	a2,a2,1
     888:	0200                	addi	s0,sp,256
     88a:	0204                	addi	s1,sp,256
     88c:	08090003          	lb	zero,128(s2)
     890:	0100                	addi	s0,sp,128
     892:	0200                	addi	s0,sp,256
     894:	0404                	addi	s1,sp,512
     896:	0306                	slli	t1,t1,0x1
     898:	0900                	addi	s0,sp,144
     89a:	0008                	.2byte	0x8
     89c:	0501                	addi	a0,a0,0
     89e:	0016                	c.slli	zero,0x5
     8a0:	0402                	c.slli64	s0
     8a2:	0604                	addi	s1,sp,768
     8a4:	06097d03          	.4byte	0x6097d03
     8a8:	0100                	addi	s0,sp,128
     8aa:	0e05                	addi	t3,t3,1
     8ac:	0200                	addi	s0,sp,256
     8ae:	0104                	addi	s1,sp,128
     8b0:	0a090003          	lb	zero,160(s2)
     8b4:	0100                	addi	s0,sp,128
     8b6:	0505                	addi	a0,a0,1
     8b8:	08090503          	lb	a0,128(s2)
     8bc:	0100                	addi	s0,sp,128
     8be:	02090303          	lb	t1,32(s2)
     8c2:	0100                	addi	s0,sp,128
     8c4:	14090103          	lb	sp,320(s2)
     8c8:	0100                	addi	s0,sp,128
     8ca:	0b05                	addi	s6,s6,1
     8cc:	02090203          	lb	tp,32(s2)
     8d0:	0100                	addi	s0,sp,128
     8d2:	0505                	addi	a0,a0,1
     8d4:	0e090003          	lb	zero,224(s2)
     8d8:	0100                	addi	s0,sp,128
     8da:	0a090103          	lb	sp,160(s2)
     8de:	0100                	addi	s0,sp,128
     8e0:	0e05                	addi	t3,t3,1
     8e2:	02090203          	lb	tp,32(s2)
     8e6:	0100                	addi	s0,sp,128
     8e8:	0c05                	addi	s8,s8,1
     8ea:	04090103          	lb	sp,64(s2)
     8ee:	0100                	addi	s0,sp,128
     8f0:	04090103          	lb	sp,64(s2)
     8f4:	0100                	addi	s0,sp,128
     8f6:	0d05                	addi	s10,s10,1
     8f8:	06090103          	lb	sp,96(s2)
     8fc:	0100                	addi	s0,sp,128
     8fe:	0e05                	addi	t3,t3,1
     900:	10090103          	lb	sp,256(s2)
     904:	0100                	addi	s0,sp,128
     906:	0405                	addi	s0,s0,1
     908:	08090203          	lb	tp,128(s2)
     90c:	0100                	addi	s0,sp,128
     90e:	1205                	addi	tp,tp,-31 # ffffffffffffffe1 <out+0xffffffff7ffddfd1>
     910:	0a094c03          	lbu	s8,160(s2)
     914:	0100                	addi	s0,sp,128
     916:	0c05                	addi	s8,s8,1
     918:	0c090003          	lb	zero,192(s2)
     91c:	0100                	addi	s0,sp,128
     91e:	1605                	addi	a2,a2,-31
     920:	08090003          	lb	zero,128(s2)
     924:	0100                	addi	s0,sp,128
     926:	0105                	addi	sp,sp,1
     928:	0c093803          	ld	a6,192(s2)
     92c:	0100                	addi	s0,sp,128
     92e:	0c09                	addi	s8,s8,2
     930:	0000                	unimp
     932:	0101                	addi	sp,sp,0
     934:	1029                	c.nop	-22
     936:	0000                	unimp
     938:	0005                	c.nop	1
     93a:	0008                	.2byte	0x8
     93c:	004e                	c.slli	zero,0x13
     93e:	0000                	unimp
     940:	0101                	addi	sp,sp,0
     942:	fb01                	bnez	a4,852 <_prog_start-0x7ffff7ae>
     944:	0d0e                	slli	s10,s10,0x3
     946:	0100                	addi	s0,sp,128
     948:	0101                	addi	sp,sp,0
     94a:	0001                	nop
     94c:	0000                	unimp
     94e:	0001                	nop
     950:	0100                	addi	s0,sp,128
     952:	0101                	addi	sp,sp,0
     954:	051f 0000 0000      	.byte	0x1f, 0x05, 0x00, 0x00, 0x00, 0x00
     95a:	0055                	c.nop	21
     95c:	0000                	unimp
     95e:	0121                	addi	sp,sp,8
     960:	0000                	unimp
     962:	01f2                	slli	gp,gp,0x1c
     964:	0000                	unimp
     966:	025f 0000 0102      	.byte	0x5f, 0x02, 0x00, 0x00, 0x02, 0x01
     96c:	021f 060f 034f      	.byte	0x1f, 0x02, 0x0f, 0x06, 0x4f, 0x03
     972:	0000                	unimp
     974:	5601                	li	a2,-32
     976:	02000003          	lb	zero,32(zero) # 20 <_prog_start-0x7fffffe0>
     97a:	0000034f          	.4byte	0x34f
     97e:	db01                	beqz	a4,88e <_prog_start-0x7ffff772>
     980:	0002                	c.slli64	zero
     982:	0300                	addi	s0,sp,384
     984:	02ec                	addi	a1,sp,332
     986:	0000                	unimp
     988:	c804                	sw	s1,16(s0)
     98a:	0002                	c.slli64	zero
     98c:	0200                	addi	s0,sp,256
     98e:	2905                	addiw	s2,s2,1
     990:	0900                	addi	s0,sp,144
     992:	1802                	slli	a6,a6,0x20
     994:	00800007          	.4byte	0x800007
     998:	0000                	unimp
     99a:	0300                	addi	s0,sp,384
     99c:	0129                	addi	sp,sp,10
     99e:	0505                	addi	a0,a0,1
     9a0:	0e090103          	lb	sp,224(s2)
     9a4:	0100                	addi	s0,sp,128
     9a6:	1005                	c.nop	-31
     9a8:	04090103          	lb	sp,64(s2)
     9ac:	0100                	addi	s0,sp,128
     9ae:	1105                	addi	sp,sp,-31
     9b0:	0e090103          	lb	sp,224(s2)
     9b4:	0100                	addi	s0,sp,128
     9b6:	0c090103          	lb	sp,192(s2)
     9ba:	0100                	addi	s0,sp,128
     9bc:	0505                	addi	a0,a0,1
     9be:	0c090103          	lb	sp,192(s2)
     9c2:	0100                	addi	s0,sp,128
     9c4:	04090203          	lb	tp,64(s2)
     9c8:	0100                	addi	s0,sp,128
     9ca:	1e05                	addi	t3,t3,-31
     9cc:	0c090003          	lb	zero,192(s2)
     9d0:	0100                	addi	s0,sp,128
     9d2:	0505                	addi	a0,a0,1
     9d4:	04090103          	lb	sp,64(s2)
     9d8:	0100                	addi	s0,sp,128
     9da:	1e05                	addi	t3,t3,-31
     9dc:	0c090003          	lb	zero,192(s2)
     9e0:	0100                	addi	s0,sp,128
     9e2:	0505                	addi	a0,a0,1
     9e4:	04090103          	lb	sp,64(s2)
     9e8:	0100                	addi	s0,sp,128
     9ea:	1e05                	addi	t3,t3,-31
     9ec:	0c090003          	lb	zero,192(s2)
     9f0:	0100                	addi	s0,sp,128
     9f2:	0105                	addi	sp,sp,1
     9f4:	04090503          	lb	a0,64(s2)
     9f8:	0100                	addi	s0,sp,128
     9fa:	4505                	li	a0,1
     9fc:	0a090203          	lb	tp,160(s2)
     a00:	0100                	addi	s0,sp,128
     a02:	0505                	addi	a0,a0,1
     a04:	18090103          	lb	sp,384(s2)
     a08:	0100                	addi	s0,sp,128
     a0a:	1105                	addi	sp,sp,-31
     a0c:	04090103          	lb	sp,64(s2)
     a10:	0100                	addi	s0,sp,128
     a12:	1d05                	addi	s10,s10,-31
     a14:	0a090003          	lb	zero,160(s2)
     a18:	0100                	addi	s0,sp,128
     a1a:	1105                	addi	sp,sp,-31
     a1c:	24090003          	lb	zero,576(s2)
     a20:	0100                	addi	s0,sp,128
     a22:	2105                	addiw	sp,sp,1
     a24:	04090003          	lb	zero,64(s2)
     a28:	0100                	addi	s0,sp,128
     a2a:	1105                	addi	sp,sp,-31
     a2c:	06090103          	lb	sp,96(s2)
     a30:	0100                	addi	s0,sp,128
     a32:	1d05                	addi	s10,s10,-31
     a34:	0a090003          	lb	zero,160(s2)
     a38:	0100                	addi	s0,sp,128
     a3a:	1105                	addi	sp,sp,-31
     a3c:	24090003          	lb	zero,576(s2)
     a40:	0100                	addi	s0,sp,128
     a42:	2105                	addiw	sp,sp,1
     a44:	04090003          	lb	zero,64(s2)
     a48:	0100                	addi	s0,sp,128
     a4a:	1105                	addi	sp,sp,-31
     a4c:	06090103          	lb	sp,96(s2)
     a50:	0100                	addi	s0,sp,128
     a52:	1d05                	addi	s10,s10,-31
     a54:	0a090003          	lb	zero,160(s2)
     a58:	0100                	addi	s0,sp,128
     a5a:	1105                	addi	sp,sp,-31
     a5c:	24090003          	lb	zero,576(s2)
     a60:	0100                	addi	s0,sp,128
     a62:	2105                	addiw	sp,sp,1
     a64:	04090003          	lb	zero,64(s2)
     a68:	0100                	addi	s0,sp,128
     a6a:	1105                	addi	sp,sp,-31
     a6c:	06090103          	lb	sp,96(s2)
     a70:	0100                	addi	s0,sp,128
     a72:	1d05                	addi	s10,s10,-31
     a74:	0a090003          	lb	zero,160(s2)
     a78:	0100                	addi	s0,sp,128
     a7a:	1105                	addi	sp,sp,-31
     a7c:	24090003          	lb	zero,576(s2)
     a80:	0100                	addi	s0,sp,128
     a82:	2105                	addiw	sp,sp,1
     a84:	04090003          	lb	zero,64(s2)
     a88:	0100                	addi	s0,sp,128
     a8a:	0505                	addi	a0,a0,1
     a8c:	06090103          	lb	sp,96(s2)
     a90:	0100                	addi	s0,sp,128
     a92:	0105                	addi	sp,sp,1
     a94:	04090103          	lb	sp,64(s2)
     a98:	0100                	addi	s0,sp,128
     a9a:	1305                	addi	t1,t1,-31
     a9c:	0a090203          	lb	tp,160(s2)
     aa0:	0100                	addi	s0,sp,128
     aa2:	0905                	addi	s2,s2,1
     aa4:	08090203          	lb	tp,128(s2)
     aa8:	0100                	addi	s0,sp,128
     aaa:	1a05                	addi	s4,s4,-31
     aac:	04090103          	lb	sp,64(s2)
     ab0:	0100                	addi	s0,sp,128
     ab2:	0c05                	addi	s8,s8,1
     ab4:	1a090003          	lb	zero,416(s2)
     ab8:	0100                	addi	s0,sp,128
     aba:	3805                	addiw	a6,a6,-31
     abc:	0200                	addi	s0,sp,256
     abe:	0104                	addi	s1,sp,128
     ac0:	04090003          	lb	zero,64(s2)
     ac4:	0100                	addi	s0,sp,128
     ac6:	2905                	addiw	s2,s2,1
     ac8:	0200                	addi	s0,sp,256
     aca:	0104                	addi	s1,sp,128
     acc:	0c090003          	lb	zero,192(s2)
     ad0:	0100                	addi	s0,sp,128
     ad2:	2105                	addiw	sp,sp,1
     ad4:	04090203          	lb	tp,64(s2)
     ad8:	0100                	addi	s0,sp,128
     ada:	2d05                	addiw	s10,s10,1
     adc:	0a090003          	lb	zero,160(s2)
     ae0:	0100                	addi	s0,sp,128
     ae2:	2105                	addiw	sp,sp,1
     ae4:	24090003          	lb	zero,576(s2)
     ae8:	0100                	addi	s0,sp,128
     aea:	1305                	addi	t1,t1,-31
     aec:	06090003          	lb	zero,96(s2)
     af0:	0100                	addi	s0,sp,128
     af2:	2605                	addiw	a2,a2,1
     af4:	04090103          	lb	sp,64(s2)
     af8:	0100                	addi	s0,sp,128
     afa:	3205                	addiw	tp,tp,-31 # ffffffffffffffe1 <out+0xffffffff7ffddfd1>
     afc:	0a090003          	lb	zero,160(s2)
     b00:	0100                	addi	s0,sp,128
     b02:	2605                	addiw	a2,a2,1
     b04:	24090003          	lb	zero,576(s2)
     b08:	0100                	addi	s0,sp,128
     b0a:	1305                	addi	t1,t1,-31
     b0c:	04090003          	lb	zero,64(s2)
     b10:	0100                	addi	s0,sp,128
     b12:	2605                	addiw	a2,a2,1
     b14:	06090103          	lb	sp,96(s2)
     b18:	0100                	addi	s0,sp,128
     b1a:	3205                	addiw	tp,tp,-31 # ffffffffffffffe1 <out+0xffffffff7ffddfd1>
     b1c:	0a090003          	lb	zero,160(s2)
     b20:	0100                	addi	s0,sp,128
     b22:	2605                	addiw	a2,a2,1
     b24:	24090003          	lb	zero,576(s2)
     b28:	0100                	addi	s0,sp,128
     b2a:	1305                	addi	t1,t1,-31
     b2c:	04090003          	lb	zero,64(s2)
     b30:	0100                	addi	s0,sp,128
     b32:	2605                	addiw	a2,a2,1
     b34:	06090103          	lb	sp,96(s2)
     b38:	0100                	addi	s0,sp,128
     b3a:	3205                	addiw	tp,tp,-31 # ffffffffffffffe1 <out+0xffffffff7ffddfd1>
     b3c:	0a090003          	lb	zero,160(s2)
     b40:	0100                	addi	s0,sp,128
     b42:	2605                	addiw	a2,a2,1
     b44:	24090003          	lb	zero,576(s2)
     b48:	0100                	addi	s0,sp,128
     b4a:	1305                	addi	t1,t1,-31
     b4c:	04090003          	lb	zero,64(s2)
     b50:	0100                	addi	s0,sp,128
     b52:	1705                	addi	a4,a4,-31
     b54:	06090103          	lb	sp,96(s2)
     b58:	0100                	addi	s0,sp,128
     b5a:	0d05                	addi	s10,s10,1
     b5c:	1c090103          	lb	sp,448(s2)
     b60:	0100                	addi	s0,sp,128
     b62:	04090103          	lb	sp,64(s2)
     b66:	0100                	addi	s0,sp,128
     b68:	12090103          	lb	sp,288(s2)
     b6c:	0100                	addi	s0,sp,128
     b6e:	1d05                	addi	s10,s10,-31
     b70:	02090203          	lb	tp,32(s2)
     b74:	0100                	addi	s0,sp,128
     b76:	1105                	addi	sp,sp,-31
     b78:	0c090003          	lb	zero,192(s2)
     b7c:	0100                	addi	s0,sp,128
     b7e:	0d05                	addi	s10,s10,1
     b80:	02090103          	lb	sp,32(s2)
     b84:	0100                	addi	s0,sp,128
     b86:	06090303          	lb	t1,96(s2)
     b8a:	0100                	addi	s0,sp,128
     b8c:	0505                	addi	a0,a0,1
     b8e:	04090403          	lb	s0,64(s2)
     b92:	0100                	addi	s0,sp,128
     b94:	0105                	addi	sp,sp,1
     b96:	02090103          	lb	sp,32(s2)
     b9a:	0100                	addi	s0,sp,128
     b9c:	1405                	addi	s0,s0,-31
     b9e:	08090203          	lb	tp,128(s2)
     ba2:	0100                	addi	s0,sp,128
     ba4:	0505                	addi	a0,a0,1
     ba6:	08090103          	lb	sp,128(s2)
     baa:	0100                	addi	s0,sp,128
     bac:	0e05                	addi	t3,t3,1
     bae:	04090203          	lb	tp,64(s2)
     bb2:	0100                	addi	s0,sp,128
     bb4:	1505                	addi	a0,a0,-31
     bb6:	04090303          	lb	t1,64(s2)
     bba:	0100                	addi	s0,sp,128
     bbc:	1805                	addi	a6,a6,-31
     bbe:	04090103          	lb	sp,64(s2)
     bc2:	0100                	addi	s0,sp,128
     bc4:	1505                	addi	a0,a0,-31
     bc6:	08090003          	lb	zero,128(s2)
     bca:	0100                	addi	s0,sp,128
     bcc:	1805                	addi	a6,a6,-31
     bce:	0a090103          	lb	sp,160(s2)
     bd2:	0100                	addi	s0,sp,128
     bd4:	1505                	addi	a0,a0,-31
     bd6:	08090003          	lb	zero,128(s2)
     bda:	0100                	addi	s0,sp,128
     bdc:	1805                	addi	a6,a6,-31
     bde:	0a090103          	lb	sp,160(s2)
     be2:	0100                	addi	s0,sp,128
     be4:	1505                	addi	a0,a0,-31
     be6:	08090003          	lb	zero,128(s2)
     bea:	0100                	addi	s0,sp,128
     bec:	1805                	addi	a6,a6,-31
     bee:	0a090103          	lb	sp,160(s2)
     bf2:	0100                	addi	s0,sp,128
     bf4:	1505                	addi	a0,a0,-31
     bf6:	08090003          	lb	zero,128(s2)
     bfa:	0100                	addi	s0,sp,128
     bfc:	0c05                	addi	s8,s8,1
     bfe:	0a090503          	lb	a0,160(s2)
     c02:	0100                	addi	s0,sp,128
     c04:	1505                	addi	a0,a0,-31
     c06:	08097703          	.4byte	0x8097703
     c0a:	0100                	addi	s0,sp,128
     c0c:	1f05                	addi	t5,t5,-31
     c0e:	02090903          	lb	s2,32(s2)
     c12:	0100                	addi	s0,sp,128
     c14:	0105                	addi	sp,sp,1
     c16:	02090203          	lb	tp,32(s2)
     c1a:	0100                	addi	s0,sp,128
     c1c:	0204                	addi	s1,sp,256
     c1e:	2405                	addiw	s0,s0,1
     c20:	097fab03          	lw	s6,151(t6)
     c24:	000a                	c.slli	zero,0x2
     c26:	0501                	addi	a0,a0,0
     c28:	030a                	slli	t1,t1,0x2
     c2a:	0905                	addi	s2,s2,1
     c2c:	0020                	addi	s0,sp,8
     c2e:	0501                	addi	a0,a0,0
     c30:	030c                	addi	a1,sp,384
     c32:	000e0903          	lb	s2,0(t3)
     c36:	0501                	addi	a0,a0,0
     c38:	09000303          	lb	t1,144(zero) # 90 <_prog_start-0x7fffff70>
     c3c:	0004                	.2byte	0x4
     c3e:	0501                	addi	a0,a0,0
     c40:	030e                	slli	t1,t1,0x3
     c42:	0901                	addi	s2,s2,0
     c44:	0002                	c.slli64	zero
     c46:	0501                	addi	a0,a0,0
     c48:	0305                	addi	t1,t1,1
     c4a:	0900                	addi	s0,sp,144
     c4c:	0004                	.2byte	0x4
     c4e:	0501                	addi	a0,a0,0
     c50:	0402001b          	addiw	zero,tp,64 # 40 <_prog_start-0x7fffffc0>
     c54:	09010303          	lb	t1,144(sp)
     c58:	0002                	c.slli64	zero
     c5a:	0501                	addi	a0,a0,0
     c5c:	0012                	c.slli	zero,0x4
     c5e:	0402                	c.slli64	s0
     c60:	09000303          	lb	t1,144(zero) # 90 <_prog_start-0x7fffff70>
     c64:	001e                	c.slli	zero,0x7
     c66:	0501                	addi	a0,a0,0
     c68:	0402001b          	addiw	zero,tp,64 # 40 <_prog_start-0x7fffffc0>
     c6c:	09010303          	lb	t1,144(sp)
     c70:	001a                	c.slli	zero,0x6
     c72:	0501                	addi	a0,a0,0
     c74:	0012                	c.slli	zero,0x4
     c76:	0402                	c.slli64	s0
     c78:	09000303          	lb	t1,144(zero) # 90 <_prog_start-0x7fffff70>
     c7c:	001e                	c.slli	zero,0x7
     c7e:	0001                	nop
     c80:	0402                	c.slli64	s0
     c82:	09010303          	lb	t1,144(sp)
     c86:	001a                	c.slli	zero,0x6
     c88:	0501                	addi	a0,a0,0
     c8a:	0021                	c.nop	8
     c8c:	0402                	c.slli64	s0
     c8e:	097d0303          	lb	t1,151(s10)
     c92:	001a                	c.slli	zero,0x6
     c94:	0501                	addi	a0,a0,0
     c96:	0018                	.2byte	0x18
     c98:	0402                	c.slli64	s0
     c9a:	0301                	addi	t1,t1,0
     c9c:	0900                	addi	s0,sp,144
     c9e:	000a                	c.slli	zero,0x2
     ca0:	0501                	addi	a0,a0,0
     ca2:	001e                	c.slli	zero,0x7
     ca4:	0402                	c.slli64	s0
     ca6:	0302                	c.slli64	t1
     ca8:	097f                	.2byte	0x97f
     caa:	0010                	.2byte	0x10
     cac:	0501                	addi	a0,a0,0
     cae:	0015                	c.nop	5
     cb0:	0402                	c.slli64	s0
     cb2:	0301                	addi	t1,t1,0
     cb4:	0900                	addi	s0,sp,144
     cb6:	000a                	c.slli	zero,0x2
     cb8:	0501                	addi	a0,a0,0
     cba:	030c                	addi	a1,sp,384
     cbc:	0908                	addi	a0,sp,144
     cbe:	0010                	.2byte	0x10
     cc0:	0501                	addi	a0,a0,0
     cc2:	09000303          	lb	t1,144(zero) # 90 <_prog_start-0x7fffff70>
     cc6:	0004                	.2byte	0x4
     cc8:	0501                	addi	a0,a0,0
     cca:	030e                	slli	t1,t1,0x3
     ccc:	0901                	addi	s2,s2,0
     cce:	0002                	c.slli64	zero
     cd0:	0501                	addi	a0,a0,0
     cd2:	0305                	addi	t1,t1,1
     cd4:	0900                	addi	s0,sp,144
     cd6:	0004                	.2byte	0x4
     cd8:	0501                	addi	a0,a0,0
     cda:	030d                	addi	t1,t1,3
     cdc:	0901                	addi	s2,s2,0
     cde:	0002                	c.slli64	zero
     ce0:	0501                	addi	a0,a0,0
     ce2:	0310                	addi	a2,sp,384
     ce4:	0901                	addi	s2,s2,0
     ce6:	0004                	.2byte	0x4
     ce8:	0501                	addi	a0,a0,0
     cea:	09000307          	.4byte	0x9000307
     cee:	0004                	.2byte	0x4
     cf0:	0501                	addi	a0,a0,0
     cf2:	04020017          	auipc	zero,0x4020
     cf6:	09010303          	lb	t1,144(sp)
     cfa:	0002                	c.slli64	zero
     cfc:	0501                	addi	a0,a0,0
     cfe:	0022                	c.slli	zero,0x8
     d00:	0402                	c.slli64	s0
     d02:	09000303          	lb	t1,144(zero) # 90 <_prog_start-0x7fffff70>
     d06:	001a                	c.slli	zero,0x6
     d08:	0501                	addi	a0,a0,0
     d0a:	001a                	c.slli	zero,0x6
     d0c:	0402                	c.slli64	s0
     d0e:	09000303          	lb	t1,144(zero) # 90 <_prog_start-0x7fffff70>
     d12:	001a                	c.slli	zero,0x6
     d14:	0501                	addi	a0,a0,0
     d16:	000d                	c.nop	3
     d18:	0402                	c.slli64	s0
     d1a:	09000303          	lb	t1,144(zero) # 90 <_prog_start-0x7fffff70>
     d1e:	0008                	.2byte	0x8
     d20:	0501                	addi	a0,a0,0
     d22:	0022                	c.slli	zero,0x8
     d24:	0402                	c.slli64	s0
     d26:	097f0303          	lb	t1,151(t5)
     d2a:	000a                	c.slli	zero,0x2
     d2c:	0501                	addi	a0,a0,0
     d2e:	0019                	c.nop	6
     d30:	0402                	c.slli64	s0
     d32:	0301                	addi	t1,t1,0
     d34:	0900                	addi	s0,sp,144
     d36:	000a                	c.slli	zero,0x2
     d38:	0501                	addi	a0,a0,0
     d3a:	0012                	c.slli	zero,0x4
     d3c:	0402                	c.slli64	s0
     d3e:	0302                	c.slli64	t1
     d40:	00100903          	lb	s2,1(zero) # 1 <_prog_start-0x7fffffff>
     d44:	0501                	addi	a0,a0,0
     d46:	0021                	c.nop	8
     d48:	0402                	c.slli64	s0
     d4a:	0302                	c.slli64	t1
     d4c:	001e097b          	.4byte	0x1e097b
     d50:	0501                	addi	a0,a0,0
     d52:	0018                	.2byte	0x18
     d54:	0402                	c.slli64	s0
     d56:	0301                	addi	t1,t1,0
     d58:	0900                	addi	s0,sp,144
     d5a:	000a                	c.slli	zero,0x2
     d5c:	0501                	addi	a0,a0,0
     d5e:	001e                	c.slli	zero,0x7
     d60:	0402                	c.slli64	s0
     d62:	0302                	c.slli64	t1
     d64:	097f                	.2byte	0x97f
     d66:	0010                	.2byte	0x10
     d68:	0501                	addi	a0,a0,0
     d6a:	0015                	c.nop	5
     d6c:	0402                	c.slli64	s0
     d6e:	0301                	addi	t1,t1,0
     d70:	0900                	addi	s0,sp,144
     d72:	000a                	c.slli	zero,0x2
     d74:	0501                	addi	a0,a0,0
     d76:	030c                	addi	a1,sp,384
     d78:	090a                	slli	s2,s2,0x2
     d7a:	0010                	.2byte	0x10
     d7c:	0501                	addi	a0,a0,0
     d7e:	09000303          	lb	t1,144(zero) # 90 <_prog_start-0x7fffff70>
     d82:	0004                	.2byte	0x4
     d84:	0501                	addi	a0,a0,0
     d86:	030e                	slli	t1,t1,0x3
     d88:	0901                	addi	s2,s2,0
     d8a:	0002                	c.slli64	zero
     d8c:	0501                	addi	a0,a0,0
     d8e:	0305                	addi	t1,t1,1
     d90:	0900                	addi	s0,sp,144
     d92:	0004                	.2byte	0x4
     d94:	0501                	addi	a0,a0,0
     d96:	0402000f          	.4byte	0x402000f
     d9a:	09010303          	lb	t1,144(sp)
     d9e:	0002                	c.slli64	zero
     da0:	0501                	addi	a0,a0,0
     da2:	0015                	c.nop	5
     da4:	0402                	c.slli64	s0
     da6:	09000303          	lb	t1,144(zero) # 90 <_prog_start-0x7fffff70>
     daa:	000a                	c.slli	zero,0x2
     dac:	0501                	addi	a0,a0,0
     dae:	000d                	c.nop	3
     db0:	0402                	c.slli64	s0
     db2:	09000303          	lb	t1,144(zero) # 90 <_prog_start-0x7fffff70>
     db6:	000a                	c.slli	zero,0x2
     db8:	0501                	addi	a0,a0,0
     dba:	04020023          	sb	zero,64(tp) # 40 <_prog_start-0x7fffffc0>
     dbe:	09000303          	lb	t1,144(zero) # 90 <_prog_start-0x7fffff70>
     dc2:	0006                	c.slli	zero,0x1
     dc4:	0501                	addi	a0,a0,0
     dc6:	001a                	c.slli	zero,0x6
     dc8:	0402                	c.slli64	s0
     dca:	09000303          	lb	t1,144(zero) # 90 <_prog_start-0x7fffff70>
     dce:	001a                	c.slli	zero,0x6
     dd0:	0501                	addi	a0,a0,0
     dd2:	0021                	c.nop	8
     dd4:	0402                	c.slli64	s0
     dd6:	097f0303          	lb	t1,151(t5)
     dda:	0004                	.2byte	0x4
     ddc:	0501                	addi	a0,a0,0
     dde:	0018                	.2byte	0x18
     de0:	0402                	c.slli64	s0
     de2:	0301                	addi	t1,t1,0
     de4:	0900                	addi	s0,sp,144
     de6:	000a                	c.slli	zero,0x2
     de8:	0501                	addi	a0,a0,0
     dea:	001e                	c.slli	zero,0x7
     dec:	0402                	c.slli64	s0
     dee:	0302                	c.slli64	t1
     df0:	097f                	.2byte	0x97f
     df2:	0010                	.2byte	0x10
     df4:	0501                	addi	a0,a0,0
     df6:	0015                	c.nop	5
     df8:	0402                	c.slli64	s0
     dfa:	0301                	addi	t1,t1,0
     dfc:	0900                	addi	s0,sp,144
     dfe:	000a                	c.slli	zero,0x2
     e00:	0501                	addi	a0,a0,0
     e02:	0905030f          	.4byte	0x905030f
     e06:	0010                	.2byte	0x10
     e08:	0501                	addi	a0,a0,0
     e0a:	030d                	addi	t1,t1,3
     e0c:	0900                	addi	s0,sp,144
     e0e:	0008                	.2byte	0x8
     e10:	0501                	addi	a0,a0,0
     e12:	0301                	addi	t1,t1,0
     e14:	0901                	addi	s2,s2,0
     e16:	000c                	.2byte	0xc
     e18:	0501                	addi	a0,a0,0
     e1a:	09020337          	lui	t1,0x9020
     e1e:	000e                	c.slli	zero,0x3
     e20:	0501                	addi	a0,a0,0
     e22:	030a                	slli	t1,t1,0x2
     e24:	0905                	addi	s2,s2,1
     e26:	002e                	c.slli	zero,0xb
     e28:	0301                	addi	t1,t1,0 # 9020000 <_prog_start-0x76fe0000>
     e2a:	0901                	addi	s2,s2,0
     e2c:	000e                	c.slli	zero,0x3
     e2e:	0301                	addi	t1,t1,0
     e30:	0902                	c.slli64	s2
     e32:	000e                	c.slli	zero,0x3
     e34:	0501                	addi	a0,a0,0
     e36:	030c                	addi	a1,sp,384
     e38:	000e0903          	lb	s2,0(t3)
     e3c:	0501                	addi	a0,a0,0
     e3e:	09000303          	lb	t1,144(zero) # 90 <_prog_start-0x7fffff70>
     e42:	0004                	.2byte	0x4
     e44:	0501                	addi	a0,a0,0
     e46:	030e                	slli	t1,t1,0x3
     e48:	0901                	addi	s2,s2,0
     e4a:	0002                	c.slli64	zero
     e4c:	0501                	addi	a0,a0,0
     e4e:	0305                	addi	t1,t1,1
     e50:	0900                	addi	s0,sp,144
     e52:	0004                	.2byte	0x4
     e54:	0501                	addi	a0,a0,0
     e56:	001a                	c.slli	zero,0x6
     e58:	0402                	c.slli64	s0
     e5a:	09010303          	lb	t1,144(sp)
     e5e:	0002                	c.slli64	zero
     e60:	0501                	addi	a0,a0,0
     e62:	04020023          	sb	zero,64(tp) # 40 <_prog_start-0x7fffffc0>
     e66:	09000303          	lb	t1,144(zero) # 90 <_prog_start-0x7fffff70>
     e6a:	000a                	c.slli	zero,0x2
     e6c:	0501                	addi	a0,a0,0
     e6e:	0018                	.2byte	0x18
     e70:	0402                	c.slli64	s0
     e72:	09000303          	lb	t1,144(zero) # 90 <_prog_start-0x7fffff70>
     e76:	000a                	c.slli	zero,0x2
     e78:	0501                	addi	a0,a0,0
     e7a:	0012                	c.slli	zero,0x4
     e7c:	0402                	c.slli64	s0
     e7e:	09000303          	lb	t1,144(zero) # 90 <_prog_start-0x7fffff70>
     e82:	000a                	c.slli	zero,0x2
     e84:	0501                	addi	a0,a0,0
     e86:	001a                	c.slli	zero,0x6
     e88:	0402                	c.slli64	s0
     e8a:	09010303          	lb	t1,144(sp)
     e8e:	0014                	.2byte	0x14
     e90:	0501                	addi	a0,a0,0
     e92:	04020023          	sb	zero,64(tp) # 40 <_prog_start-0x7fffffc0>
     e96:	09000303          	lb	t1,144(zero) # 90 <_prog_start-0x7fffff70>
     e9a:	000a                	c.slli	zero,0x2
     e9c:	0501                	addi	a0,a0,0
     e9e:	0018                	.2byte	0x18
     ea0:	0402                	c.slli64	s0
     ea2:	09000303          	lb	t1,144(zero) # 90 <_prog_start-0x7fffff70>
     ea6:	000a                	c.slli	zero,0x2
     ea8:	0501                	addi	a0,a0,0
     eaa:	0012                	c.slli	zero,0x4
     eac:	0402                	c.slli64	s0
     eae:	09000303          	lb	t1,144(zero) # 90 <_prog_start-0x7fffff70>
     eb2:	000a                	c.slli	zero,0x2
     eb4:	0501                	addi	a0,a0,0
     eb6:	04020023          	sb	zero,64(tp) # 40 <_prog_start-0x7fffffc0>
     eba:	097e0303          	lb	t1,151(t3)
     ebe:	001a                	c.slli	zero,0x6
     ec0:	0501                	addi	a0,a0,0
     ec2:	0018                	.2byte	0x18
     ec4:	0402                	c.slli64	s0
     ec6:	0301                	addi	t1,t1,0
     ec8:	0900                	addi	s0,sp,144
     eca:	000a                	c.slli	zero,0x2
     ecc:	0501                	addi	a0,a0,0
     ece:	0020                	addi	s0,sp,8
     ed0:	0402                	c.slli64	s0
     ed2:	0302                	c.slli64	t1
     ed4:	097f                	.2byte	0x97f
     ed6:	000e                	c.slli	zero,0x3
     ed8:	0501                	addi	a0,a0,0
     eda:	0015                	c.nop	5
     edc:	0402                	c.slli64	s0
     ede:	0301                	addi	t1,t1,0
     ee0:	0900                	addi	s0,sp,144
     ee2:	000a                	c.slli	zero,0x2
     ee4:	0501                	addi	a0,a0,0
     ee6:	030c                	addi	a1,sp,384
     ee8:	000e0907          	.4byte	0xe0907
     eec:	0501                	addi	a0,a0,0
     eee:	09000303          	lb	t1,144(zero) # 90 <_prog_start-0x7fffff70>
     ef2:	0004                	.2byte	0x4
     ef4:	0501                	addi	a0,a0,0
     ef6:	030e                	slli	t1,t1,0x3
     ef8:	0901                	addi	s2,s2,0
     efa:	0002                	c.slli64	zero
     efc:	0501                	addi	a0,a0,0
     efe:	0305                	addi	t1,t1,1
     f00:	0900                	addi	s0,sp,144
     f02:	0004                	.2byte	0x4
     f04:	0501                	addi	a0,a0,0
     f06:	030d                	addi	t1,t1,3
     f08:	0901                	addi	s2,s2,0
     f0a:	0002                	c.slli64	zero
     f0c:	0501                	addi	a0,a0,0
     f0e:	0310                	addi	a2,sp,384
     f10:	0901                	addi	s2,s2,0
     f12:	0004                	.2byte	0x4
     f14:	0501                	addi	a0,a0,0
     f16:	09000307          	.4byte	0x9000307
     f1a:	0004                	.2byte	0x4
     f1c:	0501                	addi	a0,a0,0
     f1e:	04020017          	auipc	zero,0x4020
     f22:	09010303          	lb	t1,144(sp)
     f26:	0002                	c.slli64	zero
     f28:	0501                	addi	a0,a0,0
     f2a:	0022                	c.slli	zero,0x8
     f2c:	0402                	c.slli64	s0
     f2e:	09000303          	lb	t1,144(zero) # 90 <_prog_start-0x7fffff70>
     f32:	0014                	.2byte	0x14
     f34:	0501                	addi	a0,a0,0
     f36:	001a                	c.slli	zero,0x6
     f38:	0402                	c.slli64	s0
     f3a:	09000303          	lb	t1,144(zero) # 90 <_prog_start-0x7fffff70>
     f3e:	001a                	c.slli	zero,0x6
     f40:	0501                	addi	a0,a0,0
     f42:	000d                	c.nop	3
     f44:	0402                	c.slli64	s0
     f46:	09000303          	lb	t1,144(zero) # 90 <_prog_start-0x7fffff70>
     f4a:	0008                	.2byte	0x8
     f4c:	0501                	addi	a0,a0,0
     f4e:	0024                	addi	s1,sp,8
     f50:	0402                	c.slli64	s0
     f52:	097f0303          	lb	t1,151(t5)
     f56:	000a                	c.slli	zero,0x2
     f58:	0501                	addi	a0,a0,0
     f5a:	0019                	c.nop	6
     f5c:	0402                	c.slli64	s0
     f5e:	0301                	addi	t1,t1,0
     f60:	0900                	addi	s0,sp,144
     f62:	000a                	c.slli	zero,0x2
     f64:	0501                	addi	a0,a0,0
     f66:	0012                	c.slli	zero,0x4
     f68:	0402                	c.slli64	s0
     f6a:	0302                	c.slli64	t1
     f6c:	000e0903          	lb	s2,0(t3)
     f70:	0501                	addi	a0,a0,0
     f72:	04020023          	sb	zero,64(tp) # 40 <_prog_start-0x7fffffc0>
     f76:	0302                	c.slli64	t1
     f78:	001e097b          	.4byte	0x1e097b
     f7c:	0501                	addi	a0,a0,0
     f7e:	0018                	.2byte	0x18
     f80:	0402                	c.slli64	s0
     f82:	0301                	addi	t1,t1,0
     f84:	0900                	addi	s0,sp,144
     f86:	000a                	c.slli	zero,0x2
     f88:	0501                	addi	a0,a0,0
     f8a:	0020                	addi	s0,sp,8
     f8c:	0402                	c.slli64	s0
     f8e:	0302                	c.slli64	t1
     f90:	097f                	.2byte	0x97f
     f92:	000e                	c.slli	zero,0x3
     f94:	0501                	addi	a0,a0,0
     f96:	0015                	c.nop	5
     f98:	0402                	c.slli64	s0
     f9a:	0301                	addi	t1,t1,0
     f9c:	0900                	addi	s0,sp,144
     f9e:	000a                	c.slli	zero,0x2
     fa0:	0501                	addi	a0,a0,0
     fa2:	030c                	addi	a1,sp,384
     fa4:	090a                	slli	s2,s2,0x2
     fa6:	000e                	c.slli	zero,0x3
     fa8:	0501                	addi	a0,a0,0
     faa:	09000303          	lb	t1,144(zero) # 90 <_prog_start-0x7fffff70>
     fae:	0004                	.2byte	0x4
     fb0:	0501                	addi	a0,a0,0
     fb2:	030e                	slli	t1,t1,0x3
     fb4:	0901                	addi	s2,s2,0
     fb6:	0002                	c.slli64	zero
     fb8:	0501                	addi	a0,a0,0
     fba:	0305                	addi	t1,t1,1
     fbc:	0900                	addi	s0,sp,144
     fbe:	0004                	.2byte	0x4
     fc0:	0501                	addi	a0,a0,0
     fc2:	0402000f          	.4byte	0x402000f
     fc6:	09010303          	lb	t1,144(sp)
     fca:	0002                	c.slli64	zero
     fcc:	0501                	addi	a0,a0,0
     fce:	0019                	c.nop	6
     fd0:	0402                	c.slli64	s0
     fd2:	09000303          	lb	t1,144(zero) # 90 <_prog_start-0x7fffff70>
     fd6:	000a                	c.slli	zero,0x2
     fd8:	0501                	addi	a0,a0,0
     fda:	000d                	c.nop	3
     fdc:	0402                	c.slli64	s0
     fde:	09000303          	lb	t1,144(zero) # 90 <_prog_start-0x7fffff70>
     fe2:	000a                	c.slli	zero,0x2
     fe4:	0501                	addi	a0,a0,0
     fe6:	04020027          	.4byte	0x4020027
     fea:	09000303          	lb	t1,144(zero) # 90 <_prog_start-0x7fffff70>
     fee:	0006                	c.slli	zero,0x1
     ff0:	0501                	addi	a0,a0,0
     ff2:	001e                	c.slli	zero,0x7
     ff4:	0402                	c.slli64	s0
     ff6:	09000303          	lb	t1,144(zero) # 90 <_prog_start-0x7fffff70>
     ffa:	001a                	c.slli	zero,0x6
     ffc:	0501                	addi	a0,a0,0
     ffe:	04020023          	sb	zero,64(tp) # 40 <_prog_start-0x7fffffc0>
    1002:	097f0303          	lb	t1,151(t5)
    1006:	0004                	.2byte	0x4
    1008:	0501                	addi	a0,a0,0
    100a:	0018                	.2byte	0x18
    100c:	0402                	c.slli64	s0
    100e:	0301                	addi	t1,t1,0
    1010:	0900                	addi	s0,sp,144
    1012:	000a                	c.slli	zero,0x2
    1014:	0501                	addi	a0,a0,0
    1016:	0020                	addi	s0,sp,8
    1018:	0402                	c.slli64	s0
    101a:	0302                	c.slli64	t1
    101c:	097f                	.2byte	0x97f
    101e:	000e                	c.slli	zero,0x3
    1020:	0501                	addi	a0,a0,0
    1022:	0015                	c.nop	5
    1024:	0402                	c.slli64	s0
    1026:	0301                	addi	t1,t1,0
    1028:	0900                	addi	s0,sp,144
    102a:	000a                	c.slli	zero,0x2
    102c:	0501                	addi	a0,a0,0
    102e:	0301                	addi	t1,t1,0
    1030:	0904                	addi	s1,sp,144
    1032:	000e                	c.slli	zero,0x3
    1034:	0501                	addi	a0,a0,0
    1036:	09020337          	lui	t1,0x9020
    103a:	0012                	c.slli	zero,0x4
    103c:	0501                	addi	a0,a0,0
    103e:	030a                	slli	t1,t1,0x2
    1040:	0905                	addi	s2,s2,1
    1042:	002e                	c.slli	zero,0xb
    1044:	0301                	addi	t1,t1,0 # 9020000 <_prog_start-0x76fe0000>
    1046:	0901                	addi	s2,s2,0
    1048:	000e                	c.slli	zero,0x3
    104a:	0301                	addi	t1,t1,0
    104c:	0901                	addi	s2,s2,0
    104e:	000e                	c.slli	zero,0x3
    1050:	0501                	addi	a0,a0,0
    1052:	030c                	addi	a1,sp,384
    1054:	000e0903          	lb	s2,0(t3)
    1058:	0501                	addi	a0,a0,0
    105a:	09000303          	lb	t1,144(zero) # 90 <_prog_start-0x7fffff70>
    105e:	0004                	.2byte	0x4
    1060:	0501                	addi	a0,a0,0
    1062:	030e                	slli	t1,t1,0x3
    1064:	0901                	addi	s2,s2,0
    1066:	0002                	c.slli64	zero
    1068:	0501                	addi	a0,a0,0
    106a:	0305                	addi	t1,t1,1
    106c:	0900                	addi	s0,sp,144
    106e:	0004                	.2byte	0x4
    1070:	0501                	addi	a0,a0,0
    1072:	001a                	c.slli	zero,0x6
    1074:	0402                	c.slli64	s0
    1076:	09010303          	lb	t1,144(sp)
    107a:	0002                	c.slli64	zero
    107c:	0501                	addi	a0,a0,0
    107e:	04020023          	sb	zero,64(tp) # 40 <_prog_start-0x7fffffc0>
    1082:	09000303          	lb	t1,144(zero) # 90 <_prog_start-0x7fffff70>
    1086:	000a                	c.slli	zero,0x2
    1088:	0501                	addi	a0,a0,0
    108a:	0018                	.2byte	0x18
    108c:	0402                	c.slli64	s0
    108e:	09000303          	lb	t1,144(zero) # 90 <_prog_start-0x7fffff70>
    1092:	000a                	c.slli	zero,0x2
    1094:	0501                	addi	a0,a0,0
    1096:	0012                	c.slli	zero,0x4
    1098:	0402                	c.slli64	s0
    109a:	09000303          	lb	t1,144(zero) # 90 <_prog_start-0x7fffff70>
    109e:	000a                	c.slli	zero,0x2
    10a0:	0501                	addi	a0,a0,0
    10a2:	001a                	c.slli	zero,0x6
    10a4:	0402                	c.slli64	s0
    10a6:	09010303          	lb	t1,144(sp)
    10aa:	0014                	.2byte	0x14
    10ac:	0501                	addi	a0,a0,0
    10ae:	04020023          	sb	zero,64(tp) # 40 <_prog_start-0x7fffffc0>
    10b2:	09000303          	lb	t1,144(zero) # 90 <_prog_start-0x7fffff70>
    10b6:	000a                	c.slli	zero,0x2
    10b8:	0501                	addi	a0,a0,0
    10ba:	0018                	.2byte	0x18
    10bc:	0402                	c.slli64	s0
    10be:	09000303          	lb	t1,144(zero) # 90 <_prog_start-0x7fffff70>
    10c2:	000a                	c.slli	zero,0x2
    10c4:	0501                	addi	a0,a0,0
    10c6:	0012                	c.slli	zero,0x4
    10c8:	0402                	c.slli64	s0
    10ca:	09000303          	lb	t1,144(zero) # 90 <_prog_start-0x7fffff70>
    10ce:	000a                	c.slli	zero,0x2
    10d0:	0501                	addi	a0,a0,0
    10d2:	04020023          	sb	zero,64(tp) # 40 <_prog_start-0x7fffffc0>
    10d6:	097e0303          	lb	t1,151(t3)
    10da:	001a                	c.slli	zero,0x6
    10dc:	0501                	addi	a0,a0,0
    10de:	0018                	.2byte	0x18
    10e0:	0402                	c.slli64	s0
    10e2:	0301                	addi	t1,t1,0
    10e4:	0900                	addi	s0,sp,144
    10e6:	000a                	c.slli	zero,0x2
    10e8:	0501                	addi	a0,a0,0
    10ea:	0020                	addi	s0,sp,8
    10ec:	0402                	c.slli64	s0
    10ee:	0302                	c.slli64	t1
    10f0:	097f                	.2byte	0x97f
    10f2:	000e                	c.slli	zero,0x3
    10f4:	0501                	addi	a0,a0,0
    10f6:	0015                	c.nop	5
    10f8:	0402                	c.slli64	s0
    10fa:	0301                	addi	t1,t1,0
    10fc:	0900                	addi	s0,sp,144
    10fe:	000a                	c.slli	zero,0x2
    1100:	0501                	addi	a0,a0,0
    1102:	030c                	addi	a1,sp,384
    1104:	0906                	slli	s2,s2,0x1
    1106:	000e                	c.slli	zero,0x3
    1108:	0501                	addi	a0,a0,0
    110a:	09000303          	lb	t1,144(zero) # 90 <_prog_start-0x7fffff70>
    110e:	0004                	.2byte	0x4
    1110:	0501                	addi	a0,a0,0
    1112:	030e                	slli	t1,t1,0x3
    1114:	0901                	addi	s2,s2,0
    1116:	0002                	c.slli64	zero
    1118:	0501                	addi	a0,a0,0
    111a:	0305                	addi	t1,t1,1
    111c:	0900                	addi	s0,sp,144
    111e:	0004                	.2byte	0x4
    1120:	0501                	addi	a0,a0,0
    1122:	0402001b          	addiw	zero,tp,64 # 40 <_prog_start-0x7fffffc0>
    1126:	09010303          	lb	t1,144(sp)
    112a:	0002                	c.slli64	zero
    112c:	0501                	addi	a0,a0,0
    112e:	0028                	addi	a0,sp,8
    1130:	0402                	c.slli64	s0
    1132:	09000303          	lb	t1,144(zero) # 90 <_prog_start-0x7fffff70>
    1136:	0014                	.2byte	0x14
    1138:	0501                	addi	a0,a0,0
    113a:	001f 0402 0303      	.byte	0x1f, 0x00, 0x02, 0x04, 0x03, 0x03
    1140:	0900                	addi	s0,sp,144
    1142:	001a                	c.slli	zero,0x6
    1144:	0501                	addi	a0,a0,0
    1146:	0012                	c.slli	zero,0x4
    1148:	0402                	c.slli64	s0
    114a:	09000303          	lb	t1,144(zero) # 90 <_prog_start-0x7fffff70>
    114e:	0006                	c.slli	zero,0x1
    1150:	0501                	addi	a0,a0,0
    1152:	04020023          	sb	zero,64(tp) # 40 <_prog_start-0x7fffffc0>
    1156:	097f0303          	lb	t1,151(t5)
    115a:	001a                	c.slli	zero,0x6
    115c:	0501                	addi	a0,a0,0
    115e:	0018                	.2byte	0x18
    1160:	0402                	c.slli64	s0
    1162:	0301                	addi	t1,t1,0
    1164:	0900                	addi	s0,sp,144
    1166:	000a                	c.slli	zero,0x2
    1168:	0501                	addi	a0,a0,0
    116a:	0020                	addi	s0,sp,8
    116c:	0402                	c.slli64	s0
    116e:	0302                	c.slli64	t1
    1170:	097f                	.2byte	0x97f
    1172:	000e                	c.slli	zero,0x3
    1174:	0501                	addi	a0,a0,0
    1176:	0015                	c.nop	5
    1178:	0402                	c.slli64	s0
    117a:	0301                	addi	t1,t1,0
    117c:	0900                	addi	s0,sp,144
    117e:	000a                	c.slli	zero,0x2
    1180:	0501                	addi	a0,a0,0
    1182:	030c                	addi	a1,sp,384
    1184:	0905                	addi	s2,s2,1
    1186:	000e                	c.slli	zero,0x3
    1188:	0501                	addi	a0,a0,0
    118a:	09000303          	lb	t1,144(zero) # 90 <_prog_start-0x7fffff70>
    118e:	0004                	.2byte	0x4
    1190:	0501                	addi	a0,a0,0
    1192:	030e                	slli	t1,t1,0x3
    1194:	0901                	addi	s2,s2,0
    1196:	0002                	c.slli64	zero
    1198:	0501                	addi	a0,a0,0
    119a:	0305                	addi	t1,t1,1
    119c:	0900                	addi	s0,sp,144
    119e:	0004                	.2byte	0x4
    11a0:	0501                	addi	a0,a0,0
    11a2:	0402000f          	.4byte	0x402000f
    11a6:	09010303          	lb	t1,144(sp)
    11aa:	0002                	c.slli64	zero
    11ac:	0501                	addi	a0,a0,0
    11ae:	0019                	c.nop	6
    11b0:	0402                	c.slli64	s0
    11b2:	09000303          	lb	t1,144(zero) # 90 <_prog_start-0x7fffff70>
    11b6:	000a                	c.slli	zero,0x2
    11b8:	0501                	addi	a0,a0,0
    11ba:	000d                	c.nop	3
    11bc:	0402                	c.slli64	s0
    11be:	09000303          	lb	t1,144(zero) # 90 <_prog_start-0x7fffff70>
    11c2:	000a                	c.slli	zero,0x2
    11c4:	0501                	addi	a0,a0,0
    11c6:	04020027          	.4byte	0x4020027
    11ca:	09000303          	lb	t1,144(zero) # 90 <_prog_start-0x7fffff70>
    11ce:	0006                	c.slli	zero,0x1
    11d0:	0501                	addi	a0,a0,0
    11d2:	001e                	c.slli	zero,0x7
    11d4:	0402                	c.slli64	s0
    11d6:	09000303          	lb	t1,144(zero) # 90 <_prog_start-0x7fffff70>
    11da:	001a                	c.slli	zero,0x6
    11dc:	0501                	addi	a0,a0,0
    11de:	04020023          	sb	zero,64(tp) # 40 <_prog_start-0x7fffffc0>
    11e2:	097f0303          	lb	t1,151(t5)
    11e6:	0004                	.2byte	0x4
    11e8:	0501                	addi	a0,a0,0
    11ea:	0018                	.2byte	0x18
    11ec:	0402                	c.slli64	s0
    11ee:	0301                	addi	t1,t1,0
    11f0:	0900                	addi	s0,sp,144
    11f2:	000a                	c.slli	zero,0x2
    11f4:	0501                	addi	a0,a0,0
    11f6:	0020                	addi	s0,sp,8
    11f8:	0402                	c.slli64	s0
    11fa:	0302                	c.slli64	t1
    11fc:	097f                	.2byte	0x97f
    11fe:	000e                	c.slli	zero,0x3
    1200:	0501                	addi	a0,a0,0
    1202:	0015                	c.nop	5
    1204:	0402                	c.slli64	s0
    1206:	0301                	addi	t1,t1,0
    1208:	0900                	addi	s0,sp,144
    120a:	000a                	c.slli	zero,0x2
    120c:	0501                	addi	a0,a0,0
    120e:	0301                	addi	t1,t1,0
    1210:	0904                	addi	s1,sp,144
    1212:	000e                	c.slli	zero,0x3
    1214:	0501                	addi	a0,a0,0
    1216:	09020323          	sb	a6,134(tp) # 86 <_prog_start-0x7fffff7a>
    121a:	0012                	c.slli	zero,0x4
    121c:	0501                	addi	a0,a0,0
    121e:	09020303          	lb	t1,144(tp) # 90 <_prog_start-0x7fffff70>
    1222:	0022                	c.slli	zero,0x8
    1224:	0501                	addi	a0,a0,0
    1226:	0320                	addi	s0,sp,392
    1228:	0900                	addi	s0,sp,144
    122a:	0006                	c.slli	zero,0x1
    122c:	0501                	addi	a0,a0,0
    122e:	030c                	addi	a1,sp,384
    1230:	090a                	slli	s2,s2,0x2
    1232:	0004                	.2byte	0x4
    1234:	0501                	addi	a0,a0,0
    1236:	09000303          	lb	t1,144(zero) # 90 <_prog_start-0x7fffff70>
    123a:	0004                	.2byte	0x4
    123c:	0501                	addi	a0,a0,0
    123e:	030e                	slli	t1,t1,0x3
    1240:	0901                	addi	s2,s2,0
    1242:	0002                	c.slli64	zero
    1244:	0501                	addi	a0,a0,0
    1246:	0305                	addi	t1,t1,1
    1248:	0900                	addi	s0,sp,144
    124a:	0004                	.2byte	0x4
    124c:	0501                	addi	a0,a0,0
    124e:	0402001b          	addiw	zero,tp,64 # 40 <_prog_start-0x7fffffc0>
    1252:	09010303          	lb	t1,144(sp)
    1256:	0002                	c.slli64	zero
    1258:	0501                	addi	a0,a0,0
    125a:	0012                	c.slli	zero,0x4
    125c:	0402                	c.slli64	s0
    125e:	09000303          	lb	t1,144(zero) # 90 <_prog_start-0x7fffff70>
    1262:	001e                	c.slli	zero,0x7
    1264:	0501                	addi	a0,a0,0
    1266:	0402001b          	addiw	zero,tp,64 # 40 <_prog_start-0x7fffffc0>
    126a:	09010303          	lb	t1,144(sp)
    126e:	001a                	c.slli	zero,0x6
    1270:	0501                	addi	a0,a0,0
    1272:	0012                	c.slli	zero,0x4
    1274:	0402                	c.slli64	s0
    1276:	09000303          	lb	t1,144(zero) # 90 <_prog_start-0x7fffff70>
    127a:	001e                	c.slli	zero,0x7
    127c:	0001                	nop
    127e:	0402                	c.slli64	s0
    1280:	09010303          	lb	t1,144(sp)
    1284:	001a                	c.slli	zero,0x6
    1286:	0501                	addi	a0,a0,0
    1288:	0021                	c.nop	8
    128a:	0402                	c.slli64	s0
    128c:	097d0303          	lb	t1,151(s10)
    1290:	001a                	c.slli	zero,0x6
    1292:	0501                	addi	a0,a0,0
    1294:	0018                	.2byte	0x18
    1296:	0402                	c.slli64	s0
    1298:	0301                	addi	t1,t1,0
    129a:	0900                	addi	s0,sp,144
    129c:	000a                	c.slli	zero,0x2
    129e:	0501                	addi	a0,a0,0
    12a0:	001e                	c.slli	zero,0x7
    12a2:	0402                	c.slli64	s0
    12a4:	0302                	c.slli64	t1
    12a6:	097f                	.2byte	0x97f
    12a8:	0010                	.2byte	0x10
    12aa:	0501                	addi	a0,a0,0
    12ac:	0015                	c.nop	5
    12ae:	0402                	c.slli64	s0
    12b0:	0301                	addi	t1,t1,0
    12b2:	0900                	addi	s0,sp,144
    12b4:	000a                	c.slli	zero,0x2
    12b6:	0501                	addi	a0,a0,0
    12b8:	030d                	addi	t1,t1,3
    12ba:	0908                	addi	a0,sp,144
    12bc:	0010                	.2byte	0x10
    12be:	0501                	addi	a0,a0,0
    12c0:	0900030b          	.4byte	0x900030b
    12c4:	000c                	.2byte	0xc
    12c6:	0501                	addi	a0,a0,0
    12c8:	030c                	addi	a1,sp,384
    12ca:	0902                	c.slli64	s2
    12cc:	0004                	.2byte	0x4
    12ce:	0501                	addi	a0,a0,0
    12d0:	09000303          	lb	t1,144(zero) # 90 <_prog_start-0x7fffff70>
    12d4:	0004                	.2byte	0x4
    12d6:	0501                	addi	a0,a0,0
    12d8:	030e                	slli	t1,t1,0x3
    12da:	0901                	addi	s2,s2,0
    12dc:	0002                	c.slli64	zero
    12de:	0501                	addi	a0,a0,0
    12e0:	0305                	addi	t1,t1,1
    12e2:	0900                	addi	s0,sp,144
    12e4:	0004                	.2byte	0x4
    12e6:	0501                	addi	a0,a0,0
    12e8:	030d                	addi	t1,t1,3
    12ea:	0901                	addi	s2,s2,0
    12ec:	0002                	c.slli64	zero
    12ee:	0501                	addi	a0,a0,0
    12f0:	0310                	addi	a2,sp,384
    12f2:	0901                	addi	s2,s2,0
    12f4:	0004                	.2byte	0x4
    12f6:	0501                	addi	a0,a0,0
    12f8:	09000307          	.4byte	0x9000307
    12fc:	0004                	.2byte	0x4
    12fe:	0501                	addi	a0,a0,0
    1300:	04020017          	auipc	zero,0x4020
    1304:	09010303          	lb	t1,144(sp)
    1308:	0002                	c.slli64	zero
    130a:	0501                	addi	a0,a0,0
    130c:	0022                	c.slli	zero,0x8
    130e:	0402                	c.slli64	s0
    1310:	09000303          	lb	t1,144(zero) # 90 <_prog_start-0x7fffff70>
    1314:	001a                	c.slli	zero,0x6
    1316:	0501                	addi	a0,a0,0
    1318:	001a                	c.slli	zero,0x6
    131a:	0402                	c.slli64	s0
    131c:	09000303          	lb	t1,144(zero) # 90 <_prog_start-0x7fffff70>
    1320:	001a                	c.slli	zero,0x6
    1322:	0501                	addi	a0,a0,0
    1324:	000d                	c.nop	3
    1326:	0402                	c.slli64	s0
    1328:	09000303          	lb	t1,144(zero) # 90 <_prog_start-0x7fffff70>
    132c:	0008                	.2byte	0x8
    132e:	0501                	addi	a0,a0,0
    1330:	0022                	c.slli	zero,0x8
    1332:	0402                	c.slli64	s0
    1334:	097f0303          	lb	t1,151(t5)
    1338:	000a                	c.slli	zero,0x2
    133a:	0501                	addi	a0,a0,0
    133c:	0019                	c.nop	6
    133e:	0402                	c.slli64	s0
    1340:	0301                	addi	t1,t1,0
    1342:	0900                	addi	s0,sp,144
    1344:	000a                	c.slli	zero,0x2
    1346:	0501                	addi	a0,a0,0
    1348:	0012                	c.slli	zero,0x4
    134a:	0402                	c.slli64	s0
    134c:	0302                	c.slli64	t1
    134e:	00100903          	lb	s2,1(zero) # 1 <_prog_start-0x7fffffff>
    1352:	0501                	addi	a0,a0,0
    1354:	0021                	c.nop	8
    1356:	0402                	c.slli64	s0
    1358:	0302                	c.slli64	t1
    135a:	001e097b          	.4byte	0x1e097b
    135e:	0501                	addi	a0,a0,0
    1360:	0018                	.2byte	0x18
    1362:	0402                	c.slli64	s0
    1364:	0301                	addi	t1,t1,0
    1366:	0900                	addi	s0,sp,144
    1368:	000a                	c.slli	zero,0x2
    136a:	0501                	addi	a0,a0,0
    136c:	001e                	c.slli	zero,0x7
    136e:	0402                	c.slli64	s0
    1370:	0302                	c.slli64	t1
    1372:	097f                	.2byte	0x97f
    1374:	0010                	.2byte	0x10
    1376:	0501                	addi	a0,a0,0
    1378:	0015                	c.nop	5
    137a:	0402                	c.slli64	s0
    137c:	0301                	addi	t1,t1,0
    137e:	0900                	addi	s0,sp,144
    1380:	000a                	c.slli	zero,0x2
    1382:	0501                	addi	a0,a0,0
    1384:	0908030b          	.4byte	0x908030b
    1388:	0010                	.2byte	0x10
    138a:	0501                	addi	a0,a0,0
    138c:	0309                	addi	t1,t1,2
    138e:	0900                	addi	s0,sp,144
    1390:	000c                	.2byte	0xc
    1392:	0501                	addi	a0,a0,0
    1394:	030a                	slli	t1,t1,0x2
    1396:	0902                	c.slli64	s2
    1398:	0004                	.2byte	0x4
    139a:	0501                	addi	a0,a0,0
    139c:	09010303          	lb	t1,144(sp)
    13a0:	0010                	.2byte	0x10
    13a2:	0501                	addi	a0,a0,0
    13a4:	030d                	addi	t1,t1,3
    13a6:	0905                	addi	s2,s2,1
    13a8:	0010                	.2byte	0x10
    13aa:	0501                	addi	a0,a0,0
    13ac:	0900030b          	.4byte	0x900030b
    13b0:	000c                	.2byte	0xc
    13b2:	0501                	addi	a0,a0,0
    13b4:	09010307          	.4byte	0x9010307
    13b8:	0004                	.2byte	0x4
    13ba:	0501                	addi	a0,a0,0
    13bc:	030c                	addi	a1,sp,384
    13be:	00040903          	lb	s2,0(s0)
    13c2:	0501                	addi	a0,a0,0
    13c4:	09000303          	lb	t1,144(zero) # 90 <_prog_start-0x7fffff70>
    13c8:	0004                	.2byte	0x4
    13ca:	0501                	addi	a0,a0,0
    13cc:	030e                	slli	t1,t1,0x3
    13ce:	0901                	addi	s2,s2,0
    13d0:	0002                	c.slli64	zero
    13d2:	0501                	addi	a0,a0,0
    13d4:	0305                	addi	t1,t1,1
    13d6:	0900                	addi	s0,sp,144
    13d8:	0004                	.2byte	0x4
    13da:	0501                	addi	a0,a0,0
    13dc:	001a                	c.slli	zero,0x6
    13de:	0402                	c.slli64	s0
    13e0:	09010303          	lb	t1,144(sp)
    13e4:	0002                	c.slli64	zero
    13e6:	0501                	addi	a0,a0,0
    13e8:	0011                	c.nop	4
    13ea:	0402                	c.slli64	s0
    13ec:	09000303          	lb	t1,144(zero) # 90 <_prog_start-0x7fffff70>
    13f0:	001a                	c.slli	zero,0x6
    13f2:	0501                	addi	a0,a0,0
    13f4:	001a                	c.slli	zero,0x6
    13f6:	0402                	c.slli64	s0
    13f8:	09010303          	lb	t1,144(sp)
    13fc:	0012                	c.slli	zero,0x4
    13fe:	0501                	addi	a0,a0,0
    1400:	0011                	c.nop	4
    1402:	0402                	c.slli64	s0
    1404:	09000303          	lb	t1,144(zero) # 90 <_prog_start-0x7fffff70>
    1408:	001a                	c.slli	zero,0x6
    140a:	0501                	addi	a0,a0,0
    140c:	0008                	.2byte	0x8
    140e:	0402                	c.slli64	s0
    1410:	09010303          	lb	t1,144(sp)
    1414:	0012                	c.slli	zero,0x4
    1416:	0501                	addi	a0,a0,0
    1418:	0022                	c.slli	zero,0x8
    141a:	0402                	c.slli64	s0
    141c:	097d0303          	lb	t1,151(s10)
    1420:	000a                	c.slli	zero,0x2
    1422:	0501                	addi	a0,a0,0
    1424:	04020017          	auipc	zero,0x4020
    1428:	0301                	addi	t1,t1,0
    142a:	0900                	addi	s0,sp,144
    142c:	000a                	c.slli	zero,0x2
    142e:	0501                	addi	a0,a0,0
    1430:	0020                	addi	s0,sp,8
    1432:	0402                	c.slli64	s0
    1434:	0302                	c.slli64	t1
    1436:	097f                	.2byte	0x97f
    1438:	000e                	c.slli	zero,0x3
    143a:	0501                	addi	a0,a0,0
    143c:	0015                	c.nop	5
    143e:	0402                	c.slli64	s0
    1440:	0301                	addi	t1,t1,0
    1442:	0900                	addi	s0,sp,144
    1444:	000a                	c.slli	zero,0x2
    1446:	0501                	addi	a0,a0,0
    1448:	0305                	addi	t1,t1,1
    144a:	0906                	slli	s2,s2,0x1
    144c:	000e                	c.slli	zero,0x3
    144e:	0501                	addi	a0,a0,0
    1450:	030c                	addi	a1,sp,384
    1452:	0901                	addi	s2,s2,0
    1454:	0004                	.2byte	0x4
    1456:	0501                	addi	a0,a0,0
    1458:	09000303          	lb	t1,144(zero) # 90 <_prog_start-0x7fffff70>
    145c:	0004                	.2byte	0x4
    145e:	0501                	addi	a0,a0,0
    1460:	030e                	slli	t1,t1,0x3
    1462:	0901                	addi	s2,s2,0
    1464:	0002                	c.slli64	zero
    1466:	0501                	addi	a0,a0,0
    1468:	0305                	addi	t1,t1,1
    146a:	0900                	addi	s0,sp,144
    146c:	0004                	.2byte	0x4
    146e:	0501                	addi	a0,a0,0
    1470:	001c                	.2byte	0x1c
    1472:	0402                	c.slli64	s0
    1474:	09010303          	lb	t1,144(sp)
    1478:	0002                	c.slli64	zero
    147a:	0501                	addi	a0,a0,0
    147c:	001a                	c.slli	zero,0x6
    147e:	0402                	c.slli64	s0
    1480:	09000303          	lb	t1,144(zero) # 90 <_prog_start-0x7fffff70>
    1484:	000c                	.2byte	0xc
    1486:	0501                	addi	a0,a0,0
    1488:	0011                	c.nop	4
    148a:	0402                	c.slli64	s0
    148c:	09000303          	lb	t1,144(zero) # 90 <_prog_start-0x7fffff70>
    1490:	0016                	c.slli	zero,0x5
    1492:	0501                	addi	a0,a0,0
    1494:	001c                	.2byte	0x1c
    1496:	0402                	c.slli64	s0
    1498:	09010303          	lb	t1,144(sp)
    149c:	0012                	c.slli	zero,0x4
    149e:	0501                	addi	a0,a0,0
    14a0:	001a                	c.slli	zero,0x6
    14a2:	0402                	c.slli64	s0
    14a4:	09000303          	lb	t1,144(zero) # 90 <_prog_start-0x7fffff70>
    14a8:	000c                	.2byte	0xc
    14aa:	0501                	addi	a0,a0,0
    14ac:	0011                	c.nop	4
    14ae:	0402                	c.slli64	s0
    14b0:	09000303          	lb	t1,144(zero) # 90 <_prog_start-0x7fffff70>
    14b4:	0016                	c.slli	zero,0x5
    14b6:	0501                	addi	a0,a0,0
    14b8:	0008                	.2byte	0x8
    14ba:	0402                	c.slli64	s0
    14bc:	09010303          	lb	t1,144(sp)
    14c0:	0012                	c.slli	zero,0x4
    14c2:	0501                	addi	a0,a0,0
    14c4:	0022                	c.slli	zero,0x8
    14c6:	0402                	c.slli64	s0
    14c8:	097d0303          	lb	t1,151(s10)
    14cc:	000a                	c.slli	zero,0x2
    14ce:	0501                	addi	a0,a0,0
    14d0:	04020017          	auipc	zero,0x4020
    14d4:	0301                	addi	t1,t1,0
    14d6:	0900                	addi	s0,sp,144
    14d8:	000a                	c.slli	zero,0x2
    14da:	0501                	addi	a0,a0,0
    14dc:	0020                	addi	s0,sp,8
    14de:	0402                	c.slli64	s0
    14e0:	0302                	c.slli64	t1
    14e2:	097f                	.2byte	0x97f
    14e4:	000e                	c.slli	zero,0x3
    14e6:	0501                	addi	a0,a0,0
    14e8:	0015                	c.nop	5
    14ea:	0402                	c.slli64	s0
    14ec:	0301                	addi	t1,t1,0
    14ee:	0900                	addi	s0,sp,144
    14f0:	000a                	c.slli	zero,0x2
    14f2:	0501                	addi	a0,a0,0
    14f4:	0305                	addi	t1,t1,1
    14f6:	0906                	slli	s2,s2,0x1
    14f8:	000e                	c.slli	zero,0x3
    14fa:	0501                	addi	a0,a0,0
    14fc:	030c                	addi	a1,sp,384
    14fe:	0901                	addi	s2,s2,0
    1500:	0004                	.2byte	0x4
    1502:	0501                	addi	a0,a0,0
    1504:	09000303          	lb	t1,144(zero) # 90 <_prog_start-0x7fffff70>
    1508:	0004                	.2byte	0x4
    150a:	0501                	addi	a0,a0,0
    150c:	030e                	slli	t1,t1,0x3
    150e:	0901                	addi	s2,s2,0
    1510:	0002                	c.slli64	zero
    1512:	0501                	addi	a0,a0,0
    1514:	0305                	addi	t1,t1,1
    1516:	0900                	addi	s0,sp,144
    1518:	0004                	.2byte	0x4
    151a:	0501                	addi	a0,a0,0
    151c:	0019                	c.nop	6
    151e:	0402                	c.slli64	s0
    1520:	09010303          	lb	t1,144(sp)
    1524:	0002                	c.slli64	zero
    1526:	0501                	addi	a0,a0,0
    1528:	04020023          	sb	zero,64(tp) # 40 <_prog_start-0x7fffffc0>
    152c:	09000303          	lb	t1,144(zero) # 90 <_prog_start-0x7fffff70>
    1530:	000a                	c.slli	zero,0x2
    1532:	0501                	addi	a0,a0,0
    1534:	0011                	c.nop	4
    1536:	0402                	c.slli64	s0
    1538:	09000303          	lb	t1,144(zero) # 90 <_prog_start-0x7fffff70>
    153c:	0016                	c.slli	zero,0x5
    153e:	0501                	addi	a0,a0,0
    1540:	0019                	c.nop	6
    1542:	0402                	c.slli64	s0
    1544:	09010303          	lb	t1,144(sp)
    1548:	0016                	c.slli	zero,0x5
    154a:	0501                	addi	a0,a0,0
    154c:	04020023          	sb	zero,64(tp) # 40 <_prog_start-0x7fffffc0>
    1550:	09000303          	lb	t1,144(zero) # 90 <_prog_start-0x7fffff70>
    1554:	000a                	c.slli	zero,0x2
    1556:	0501                	addi	a0,a0,0
    1558:	0011                	c.nop	4
    155a:	0402                	c.slli64	s0
    155c:	09000303          	lb	t1,144(zero) # 90 <_prog_start-0x7fffff70>
    1560:	0016                	c.slli	zero,0x5
    1562:	0501                	addi	a0,a0,0
    1564:	0008                	.2byte	0x8
    1566:	0402                	c.slli64	s0
    1568:	09010303          	lb	t1,144(sp)
    156c:	0016                	c.slli	zero,0x5
    156e:	0501                	addi	a0,a0,0
    1570:	0022                	c.slli	zero,0x8
    1572:	0402                	c.slli64	s0
    1574:	097d0303          	lb	t1,151(s10)
    1578:	000a                	c.slli	zero,0x2
    157a:	0501                	addi	a0,a0,0
    157c:	04020017          	auipc	zero,0x4020
    1580:	0301                	addi	t1,t1,0
    1582:	0900                	addi	s0,sp,144
    1584:	000a                	c.slli	zero,0x2
    1586:	0501                	addi	a0,a0,0
    1588:	0020                	addi	s0,sp,8
    158a:	0402                	c.slli64	s0
    158c:	0302                	c.slli64	t1
    158e:	097f                	.2byte	0x97f
    1590:	000e                	c.slli	zero,0x3
    1592:	0501                	addi	a0,a0,0
    1594:	0015                	c.nop	5
    1596:	0402                	c.slli64	s0
    1598:	0301                	addi	t1,t1,0
    159a:	0900                	addi	s0,sp,144
    159c:	000a                	c.slli	zero,0x2
    159e:	0501                	addi	a0,a0,0
    15a0:	0305                	addi	t1,t1,1
    15a2:	0906                	slli	s2,s2,0x1
    15a4:	000e                	c.slli	zero,0x3
    15a6:	0501                	addi	a0,a0,0
    15a8:	030c                	addi	a1,sp,384
    15aa:	0901                	addi	s2,s2,0
    15ac:	0004                	.2byte	0x4
    15ae:	0501                	addi	a0,a0,0
    15b0:	09000303          	lb	t1,144(zero) # 90 <_prog_start-0x7fffff70>
    15b4:	0004                	.2byte	0x4
    15b6:	0501                	addi	a0,a0,0
    15b8:	030e                	slli	t1,t1,0x3
    15ba:	0901                	addi	s2,s2,0
    15bc:	0002                	c.slli64	zero
    15be:	0501                	addi	a0,a0,0
    15c0:	0305                	addi	t1,t1,1
    15c2:	0900                	addi	s0,sp,144
    15c4:	0004                	.2byte	0x4
    15c6:	0501                	addi	a0,a0,0
    15c8:	0019                	c.nop	6
    15ca:	0402                	c.slli64	s0
    15cc:	09010303          	lb	t1,144(sp)
    15d0:	0002                	c.slli64	zero
    15d2:	0501                	addi	a0,a0,0
    15d4:	0025                	c.nop	9
    15d6:	0402                	c.slli64	s0
    15d8:	09000303          	lb	t1,144(zero) # 90 <_prog_start-0x7fffff70>
    15dc:	000a                	c.slli	zero,0x2
    15de:	0501                	addi	a0,a0,0
    15e0:	04020023          	sb	zero,64(tp) # 40 <_prog_start-0x7fffffc0>
    15e4:	09000303          	lb	t1,144(zero) # 90 <_prog_start-0x7fffff70>
    15e8:	000a                	c.slli	zero,0x2
    15ea:	0501                	addi	a0,a0,0
    15ec:	0011                	c.nop	4
    15ee:	0402                	c.slli64	s0
    15f0:	09000303          	lb	t1,144(zero) # 90 <_prog_start-0x7fffff70>
    15f4:	0010                	.2byte	0x10
    15f6:	0501                	addi	a0,a0,0
    15f8:	0019                	c.nop	6
    15fa:	0402                	c.slli64	s0
    15fc:	09010303          	lb	t1,144(sp)
    1600:	0016                	c.slli	zero,0x5
    1602:	0501                	addi	a0,a0,0
    1604:	0025                	c.nop	9
    1606:	0402                	c.slli64	s0
    1608:	09000303          	lb	t1,144(zero) # 90 <_prog_start-0x7fffff70>
    160c:	000a                	c.slli	zero,0x2
    160e:	0501                	addi	a0,a0,0
    1610:	04020023          	sb	zero,64(tp) # 40 <_prog_start-0x7fffffc0>
    1614:	09000303          	lb	t1,144(zero) # 90 <_prog_start-0x7fffff70>
    1618:	000a                	c.slli	zero,0x2
    161a:	0501                	addi	a0,a0,0
    161c:	0011                	c.nop	4
    161e:	0402                	c.slli64	s0
    1620:	09000303          	lb	t1,144(zero) # 90 <_prog_start-0x7fffff70>
    1624:	0010                	.2byte	0x10
    1626:	0501                	addi	a0,a0,0
    1628:	0008                	.2byte	0x8
    162a:	0402                	c.slli64	s0
    162c:	09010303          	lb	t1,144(sp)
    1630:	0016                	c.slli	zero,0x5
    1632:	0501                	addi	a0,a0,0
    1634:	0022                	c.slli	zero,0x8
    1636:	0402                	c.slli64	s0
    1638:	097d0303          	lb	t1,151(s10)
    163c:	000a                	c.slli	zero,0x2
    163e:	0501                	addi	a0,a0,0
    1640:	04020017          	auipc	zero,0x4020
    1644:	0301                	addi	t1,t1,0
    1646:	0900                	addi	s0,sp,144
    1648:	000a                	c.slli	zero,0x2
    164a:	0501                	addi	a0,a0,0
    164c:	0020                	addi	s0,sp,8
    164e:	0402                	c.slli64	s0
    1650:	0302                	c.slli64	t1
    1652:	097f                	.2byte	0x97f
    1654:	000e                	c.slli	zero,0x3
    1656:	0501                	addi	a0,a0,0
    1658:	0015                	c.nop	5
    165a:	0402                	c.slli64	s0
    165c:	0301                	addi	t1,t1,0
    165e:	0900                	addi	s0,sp,144
    1660:	000a                	c.slli	zero,0x2
    1662:	0501                	addi	a0,a0,0
    1664:	09080303          	lb	t1,144(a6)
    1668:	000e                	c.slli	zero,0x3
    166a:	0301                	addi	t1,t1,0
    166c:	00060903          	lb	s2,0(a2)
    1670:	0301                	addi	t1,t1,0
    1672:	0901                	addi	s2,s2,0
    1674:	0024                	addi	s1,sp,8
    1676:	0301                	addi	t1,t1,0
    1678:	0901                	addi	s2,s2,0
    167a:	0024                	addi	s1,sp,8
    167c:	0301                	addi	t1,t1,0
    167e:	0901                	addi	s2,s2,0
    1680:	0024                	addi	s1,sp,8
    1682:	0301                	addi	t1,t1,0
    1684:	0901                	addi	s2,s2,0
    1686:	0024                	addi	s1,sp,8
    1688:	0301                	addi	t1,t1,0
    168a:	0901                	addi	s2,s2,0
    168c:	0024                	addi	s1,sp,8
    168e:	0301                	addi	t1,t1,0
    1690:	0901                	addi	s2,s2,0
    1692:	0024                	addi	s1,sp,8
    1694:	0301                	addi	t1,t1,0
    1696:	0901                	addi	s2,s2,0
    1698:	0024                	addi	s1,sp,8
    169a:	0301                	addi	t1,t1,0
    169c:	0901                	addi	s2,s2,0
    169e:	0024                	addi	s1,sp,8
    16a0:	0301                	addi	t1,t1,0
    16a2:	0904                	addi	s1,sp,144
    16a4:	0004                	.2byte	0x4
    16a6:	0301                	addi	t1,t1,0
    16a8:	0901                	addi	s2,s2,0
    16aa:	0024                	addi	s1,sp,8
    16ac:	0301                	addi	t1,t1,0
    16ae:	0901                	addi	s2,s2,0
    16b0:	0024                	addi	s1,sp,8
    16b2:	0301                	addi	t1,t1,0
    16b4:	0901                	addi	s2,s2,0
    16b6:	0024                	addi	s1,sp,8
    16b8:	0301                	addi	t1,t1,0
    16ba:	0901                	addi	s2,s2,0
    16bc:	0024                	addi	s1,sp,8
    16be:	0501                	addi	a0,a0,0
    16c0:	0305                	addi	t1,t1,1
    16c2:	00040903          	lb	s2,0(s0)
    16c6:	0501                	addi	a0,a0,0
    16c8:	030c                	addi	a1,sp,384
    16ca:	0901                	addi	s2,s2,0
    16cc:	0004                	.2byte	0x4
    16ce:	0501                	addi	a0,a0,0
    16d0:	09000303          	lb	t1,144(zero) # 90 <_prog_start-0x7fffff70>
    16d4:	0004                	.2byte	0x4
    16d6:	0501                	addi	a0,a0,0
    16d8:	030e                	slli	t1,t1,0x3
    16da:	0901                	addi	s2,s2,0
    16dc:	0002                	c.slli64	zero
    16de:	0501                	addi	a0,a0,0
    16e0:	0305                	addi	t1,t1,1
    16e2:	0900                	addi	s0,sp,144
    16e4:	0004                	.2byte	0x4
    16e6:	0501                	addi	a0,a0,0
    16e8:	001a                	c.slli	zero,0x6
    16ea:	0402                	c.slli64	s0
    16ec:	09010303          	lb	t1,144(sp)
    16f0:	0002                	c.slli64	zero
    16f2:	0501                	addi	a0,a0,0
    16f4:	0012                	c.slli	zero,0x4
    16f6:	0402                	c.slli64	s0
    16f8:	09000303          	lb	t1,144(zero) # 90 <_prog_start-0x7fffff70>
    16fc:	0012                	c.slli	zero,0x4
    16fe:	0501                	addi	a0,a0,0
    1700:	0022                	c.slli	zero,0x8
    1702:	0402                	c.slli64	s0
    1704:	097f0303          	lb	t1,151(t5)
    1708:	001a                	c.slli	zero,0x6
    170a:	0501                	addi	a0,a0,0
    170c:	04020017          	auipc	zero,0x4020
    1710:	0301                	addi	t1,t1,0
    1712:	0900                	addi	s0,sp,144
    1714:	000a                	c.slli	zero,0x2
    1716:	0501                	addi	a0,a0,0
    1718:	0020                	addi	s0,sp,8
    171a:	0402                	c.slli64	s0
    171c:	0302                	c.slli64	t1
    171e:	097f                	.2byte	0x97f
    1720:	000e                	c.slli	zero,0x3
    1722:	0501                	addi	a0,a0,0
    1724:	0015                	c.nop	5
    1726:	0402                	c.slli64	s0
    1728:	0301                	addi	t1,t1,0
    172a:	0900                	addi	s0,sp,144
    172c:	000a                	c.slli	zero,0x2
    172e:	0501                	addi	a0,a0,0
    1730:	0305                	addi	t1,t1,1
    1732:	000e0903          	lb	s2,0(t3)
    1736:	0501                	addi	a0,a0,0
    1738:	030c                	addi	a1,sp,384
    173a:	0901                	addi	s2,s2,0
    173c:	0004                	.2byte	0x4
    173e:	0501                	addi	a0,a0,0
    1740:	09000303          	lb	t1,144(zero) # 90 <_prog_start-0x7fffff70>
    1744:	0004                	.2byte	0x4
    1746:	0501                	addi	a0,a0,0
    1748:	030e                	slli	t1,t1,0x3
    174a:	0901                	addi	s2,s2,0
    174c:	0002                	c.slli64	zero
    174e:	0501                	addi	a0,a0,0
    1750:	0305                	addi	t1,t1,1
    1752:	0900                	addi	s0,sp,144
    1754:	0004                	.2byte	0x4
    1756:	0501                	addi	a0,a0,0
    1758:	0010                	.2byte	0x10
    175a:	0402                	c.slli64	s0
    175c:	09010303          	lb	t1,144(sp)
    1760:	0002                	c.slli64	zero
    1762:	0501                	addi	a0,a0,0
    1764:	0021                	c.nop	8
    1766:	0402                	c.slli64	s0
    1768:	09000303          	lb	t1,144(zero) # 90 <_prog_start-0x7fffff70>
    176c:	000c                	.2byte	0xc
    176e:	0501                	addi	a0,a0,0
    1770:	0019                	c.nop	6
    1772:	0402                	c.slli64	s0
    1774:	09000303          	lb	t1,144(zero) # 90 <_prog_start-0x7fffff70>
    1778:	0016                	c.slli	zero,0x5
    177a:	0501                	addi	a0,a0,0
    177c:	0022                	c.slli	zero,0x8
    177e:	0402                	c.slli64	s0
    1780:	097f0303          	lb	t1,151(t5)
    1784:	0016                	c.slli	zero,0x5
    1786:	0501                	addi	a0,a0,0
    1788:	04020017          	auipc	zero,0x4020
    178c:	0301                	addi	t1,t1,0
    178e:	0900                	addi	s0,sp,144
    1790:	000a                	c.slli	zero,0x2
    1792:	0501                	addi	a0,a0,0
    1794:	0020                	addi	s0,sp,8
    1796:	0402                	c.slli64	s0
    1798:	0302                	c.slli64	t1
    179a:	097f                	.2byte	0x97f
    179c:	000e                	c.slli	zero,0x3
    179e:	0501                	addi	a0,a0,0
    17a0:	0015                	c.nop	5
    17a2:	0402                	c.slli64	s0
    17a4:	0301                	addi	t1,t1,0
    17a6:	0900                	addi	s0,sp,144
    17a8:	000a                	c.slli	zero,0x2
    17aa:	0501                	addi	a0,a0,0
    17ac:	0305                	addi	t1,t1,1
    17ae:	000e0903          	lb	s2,0(t3)
    17b2:	0501                	addi	a0,a0,0
    17b4:	030c                	addi	a1,sp,384
    17b6:	0901                	addi	s2,s2,0
    17b8:	0004                	.2byte	0x4
    17ba:	0501                	addi	a0,a0,0
    17bc:	09000303          	lb	t1,144(zero) # 90 <_prog_start-0x7fffff70>
    17c0:	0004                	.2byte	0x4
    17c2:	0501                	addi	a0,a0,0
    17c4:	030e                	slli	t1,t1,0x3
    17c6:	0901                	addi	s2,s2,0
    17c8:	0002                	c.slli64	zero
    17ca:	0501                	addi	a0,a0,0
    17cc:	0305                	addi	t1,t1,1
    17ce:	0900                	addi	s0,sp,144
    17d0:	0004                	.2byte	0x4
    17d2:	0501                	addi	a0,a0,0
    17d4:	000d                	c.nop	3
    17d6:	0402                	c.slli64	s0
    17d8:	09010303          	lb	t1,144(sp)
    17dc:	0002                	c.slli64	zero
    17de:	0501                	addi	a0,a0,0
    17e0:	0021                	c.nop	8
    17e2:	0402                	c.slli64	s0
    17e4:	09000303          	lb	t1,144(zero) # 90 <_prog_start-0x7fffff70>
    17e8:	000a                	c.slli	zero,0x2
    17ea:	0501                	addi	a0,a0,0
    17ec:	0019                	c.nop	6
    17ee:	0402                	c.slli64	s0
    17f0:	09000303          	lb	t1,144(zero) # 90 <_prog_start-0x7fffff70>
    17f4:	0016                	c.slli	zero,0x5
    17f6:	0501                	addi	a0,a0,0
    17f8:	0022                	c.slli	zero,0x8
    17fa:	0402                	c.slli64	s0
    17fc:	097f0303          	lb	t1,151(t5)
    1800:	0016                	c.slli	zero,0x5
    1802:	0501                	addi	a0,a0,0
    1804:	04020017          	auipc	zero,0x4020
    1808:	0301                	addi	t1,t1,0
    180a:	0900                	addi	s0,sp,144
    180c:	000a                	c.slli	zero,0x2
    180e:	0501                	addi	a0,a0,0
    1810:	0020                	addi	s0,sp,8
    1812:	0402                	c.slli64	s0
    1814:	0302                	c.slli64	t1
    1816:	097f                	.2byte	0x97f
    1818:	000e                	c.slli	zero,0x3
    181a:	0501                	addi	a0,a0,0
    181c:	0015                	c.nop	5
    181e:	0402                	c.slli64	s0
    1820:	0301                	addi	t1,t1,0
    1822:	0900                	addi	s0,sp,144
    1824:	000a                	c.slli	zero,0x2
    1826:	0501                	addi	a0,a0,0
    1828:	0305                	addi	t1,t1,1
    182a:	000e0903          	lb	s2,0(t3)
    182e:	0501                	addi	a0,a0,0
    1830:	030c                	addi	a1,sp,384
    1832:	0901                	addi	s2,s2,0
    1834:	0004                	.2byte	0x4
    1836:	0501                	addi	a0,a0,0
    1838:	09000303          	lb	t1,144(zero) # 90 <_prog_start-0x7fffff70>
    183c:	0004                	.2byte	0x4
    183e:	0501                	addi	a0,a0,0
    1840:	030e                	slli	t1,t1,0x3
    1842:	0901                	addi	s2,s2,0
    1844:	0002                	c.slli64	zero
    1846:	0501                	addi	a0,a0,0
    1848:	0305                	addi	t1,t1,1
    184a:	0900                	addi	s0,sp,144
    184c:	0004                	.2byte	0x4
    184e:	0501                	addi	a0,a0,0
    1850:	000d                	c.nop	3
    1852:	0402                	c.slli64	s0
    1854:	09010303          	lb	t1,144(sp)
    1858:	0002                	c.slli64	zero
    185a:	0501                	addi	a0,a0,0
    185c:	04020017          	auipc	zero,0x4020
    1860:	09000303          	lb	t1,144(zero) # 90 <_prog_start-0x7fffff70>
    1864:	000a                	c.slli	zero,0x2
    1866:	0501                	addi	a0,a0,0
    1868:	0028                	addi	a0,sp,8
    186a:	0402                	c.slli64	s0
    186c:	09000303          	lb	t1,144(zero) # 90 <_prog_start-0x7fffff70>
    1870:	000c                	.2byte	0xc
    1872:	0501                	addi	a0,a0,0
    1874:	0020                	addi	s0,sp,8
    1876:	0402                	c.slli64	s0
    1878:	09000303          	lb	t1,144(zero) # 90 <_prog_start-0x7fffff70>
    187c:	0016                	c.slli	zero,0x5
    187e:	0501                	addi	a0,a0,0
    1880:	0022                	c.slli	zero,0x8
    1882:	0402                	c.slli64	s0
    1884:	097f0303          	lb	t1,151(t5)
    1888:	0010                	.2byte	0x10
    188a:	0501                	addi	a0,a0,0
    188c:	04020017          	auipc	zero,0x4020
    1890:	0301                	addi	t1,t1,0
    1892:	0900                	addi	s0,sp,144
    1894:	000a                	c.slli	zero,0x2
    1896:	0501                	addi	a0,a0,0
    1898:	0020                	addi	s0,sp,8
    189a:	0402                	c.slli64	s0
    189c:	0302                	c.slli64	t1
    189e:	097f                	.2byte	0x97f
    18a0:	000e                	c.slli	zero,0x3
    18a2:	0501                	addi	a0,a0,0
    18a4:	0015                	c.nop	5
    18a6:	0402                	c.slli64	s0
    18a8:	0301                	addi	t1,t1,0
    18aa:	0900                	addi	s0,sp,144
    18ac:	000a                	c.slli	zero,0x2
    18ae:	0501                	addi	a0,a0,0
    18b0:	0904030b          	.4byte	0x904030b
    18b4:	000e                	c.slli	zero,0x3
    18b6:	0501                	addi	a0,a0,0
    18b8:	0309                	addi	t1,t1,2
    18ba:	0900                	addi	s0,sp,144
    18bc:	000c                	.2byte	0xc
    18be:	0501                	addi	a0,a0,0
    18c0:	030a                	slli	t1,t1,0x2
    18c2:	0901                	addi	s2,s2,0
    18c4:	0004                	.2byte	0x4
    18c6:	0501                	addi	a0,a0,0
    18c8:	030c                	addi	a1,sp,384
    18ca:	0902                	c.slli64	s2
    18cc:	0010                	.2byte	0x10
    18ce:	0501                	addi	a0,a0,0
    18d0:	09000303          	lb	t1,144(zero) # 90 <_prog_start-0x7fffff70>
    18d4:	0004                	.2byte	0x4
    18d6:	0501                	addi	a0,a0,0
    18d8:	030e                	slli	t1,t1,0x3
    18da:	0901                	addi	s2,s2,0
    18dc:	0002                	c.slli64	zero
    18de:	0501                	addi	a0,a0,0
    18e0:	0305                	addi	t1,t1,1
    18e2:	0900                	addi	s0,sp,144
    18e4:	0004                	.2byte	0x4
    18e6:	0501                	addi	a0,a0,0
    18e8:	04020007          	.4byte	0x4020007
    18ec:	09010303          	lb	t1,144(sp)
    18f0:	0002                	c.slli64	zero
    18f2:	0501                	addi	a0,a0,0
    18f4:	0020                	addi	s0,sp,8
    18f6:	0402                	c.slli64	s0
    18f8:	09000303          	lb	t1,144(zero) # 90 <_prog_start-0x7fffff70>
    18fc:	000a                	c.slli	zero,0x2
    18fe:	0501                	addi	a0,a0,0
    1900:	0016                	c.slli	zero,0x5
    1902:	0402                	c.slli64	s0
    1904:	09000303          	lb	t1,144(zero) # 90 <_prog_start-0x7fffff70>
    1908:	001a                	c.slli	zero,0x6
    190a:	0501                	addi	a0,a0,0
    190c:	0020                	addi	s0,sp,8
    190e:	0402                	c.slli64	s0
    1910:	097f0303          	lb	t1,151(t5)
    1914:	0004                	.2byte	0x4
    1916:	0501                	addi	a0,a0,0
    1918:	04020017          	auipc	zero,0x4020
    191c:	0301                	addi	t1,t1,0
    191e:	0900                	addi	s0,sp,144
    1920:	000a                	c.slli	zero,0x2
    1922:	0501                	addi	a0,a0,0
    1924:	001e                	c.slli	zero,0x7
    1926:	0402                	c.slli64	s0
    1928:	0302                	c.slli64	t1
    192a:	097f                	.2byte	0x97f
    192c:	0010                	.2byte	0x10
    192e:	0501                	addi	a0,a0,0
    1930:	0015                	c.nop	5
    1932:	0402                	c.slli64	s0
    1934:	0301                	addi	t1,t1,0
    1936:	0900                	addi	s0,sp,144
    1938:	000a                	c.slli	zero,0x2
    193a:	0501                	addi	a0,a0,0
    193c:	0301                	addi	t1,t1,0
    193e:	0905                	addi	s2,s2,1
    1940:	0010                	.2byte	0x10
    1942:	0501                	addi	a0,a0,0
    1944:	09010303          	lb	t1,144(sp)
    1948:	0010                	.2byte	0x10
    194a:	0501                	addi	a0,a0,0
    194c:	0309                	addi	t1,t1,2
    194e:	0902                	c.slli64	s2
    1950:	000c                	.2byte	0xc
    1952:	0501                	addi	a0,a0,0
    1954:	0301                	addi	t1,t1,0
    1956:	0901                	addi	s2,s2,0
    1958:	0002                	c.slli64	zero
    195a:	0901                	addi	s2,s2,0
    195c:	000e                	c.slli	zero,0x3
    195e:	0100                	addi	s0,sp,128
    1960:	01              	Address 0x0000000000001960 is out of bounds.


Disassembly of section .debug_line_str:

0000000000000000 <.debug_line_str>:
   0:	6d6f682f          	.4byte	0x6d6f682f
   4:	2f65                	addiw	t5,t5,25
   6:	6962                	ld	s2,24(sp)
   8:	686e                	ld	a6,216(sp)
   a:	7565696b          	.4byte	0x7565696b
   e:	6f64                	ld	s1,216(a4)
  10:	726f572f          	.4byte	0x726f572f
  14:	6170736b          	.4byte	0x6170736b
  18:	502f6563          	bltu	t5,sp,522 <_prog_start-0x7ffffade>
  1c:	4468                	lw	a0,76(s0)
  1e:	6854                	ld	a3,144(s0)
  20:	7365                	lui	t1,0xffff9
  22:	7369                	lui	t1,0xffffa
  24:	77654e2f          	.4byte	0x77654e2f
  28:	7246                	ld	tp,112(sp)
  2a:	6d61                	lui	s10,0x18
  2c:	7765                	lui	a4,0xffff9
  2e:	2f6b726f          	jal	tp,b7324 <_prog_start-0x7ff48cdc>
  32:	7266                	ld	tp,120(sp)
  34:	6d61                	lui	s10,0x18
  36:	7765                	lui	a4,0xffff9
  38:	2f6b726f          	jal	tp,b732e <_prog_start-0x7ff48cd2>
  3c:	74666f73          	csrrsi	t5,0x746,12
  40:	65726177          	.4byte	0x65726177
  44:	74614d2f          	.4byte	0x74614d2f
  48:	754d                	lui	a0,0xffff3
  4a:	5f6c                	lw	a1,124(a4)
  4c:	61727453          	.4byte	0x61727453
  50:	6e657373          	csrrci	t1,0x6e6,10
  54:	2f00                	.2byte	0x2f00
  56:	6f68                	ld	a0,216(a4)
  58:	656d                	lui	a0,0x1b
  5a:	6e69622f          	.4byte	0x6e69622f
  5e:	6b68                	ld	a0,208(a4)
  60:	6569                	lui	a0,0x1a
  62:	6475                	lui	s0,0x1d
  64:	6f572f6f          	jal	t5,72f58 <_prog_start-0x7ff8d0a8>
  68:	6b72                	ld	s6,280(sp)
  6a:	63617073          	csrci	0x636,2
  6e:	2f65                	addiw	t5,t5,25
  70:	6850                	ld	a2,144(s0)
  72:	5444                	lw	s1,44(s0)
  74:	6568                	ld	a0,200(a0)
  76:	2f736973          	csrrsi	s2,0x2f7,6
  7a:	654e                	ld	a0,208(sp)
  7c:	61724677          	.4byte	0x61724677
  80:	656d                	lui	a0,0x1b
  82:	6b726f77          	.4byte	0x6b726f77
  86:	6172662f          	.4byte	0x6172662f
  8a:	656d                	lui	a0,0x1b
  8c:	6b726f77          	.4byte	0x6b726f77
  90:	666f732f          	.4byte	0x666f732f
  94:	7774                	ld	a3,232(a4)
  96:	7261                	lui	tp,0xffff8
  98:	2f65                	addiw	t5,t5,25
  9a:	614d                	addi	sp,sp,176
  9c:	4d74                	lw	a3,92(a0)
  9e:	6c75                	lui	s8,0x1d
  a0:	535f 7274 7361      	.byte	0x5f, 0x53, 0x74, 0x72, 0x61, 0x73
  a6:	2f6e6573          	csrrsi	a0,0x2f6,28
  aa:	00637273          	csrrci	tp,0x6,6
  ae:	30747263          	bgeu	s0,t2,3b2 <_prog_start-0x7ffffc4e>
  b2:	532e                	lw	t1,232(sp)
  b4:	7400                	ld	s0,40(s0)
  b6:	7268                	ld	a0,224(a2)
  b8:	6165                	addi	sp,sp,112
  ba:	2e64                	.2byte	0x2e64
  bc:	682f0053          	.4byte	0x682f0053
  c0:	2f656d6f          	jal	s10,563b6 <_prog_start-0x7ffa9c4a>
  c4:	6962                	ld	s2,24(sp)
  c6:	686e                	ld	a6,216(sp)
  c8:	7565696b          	.4byte	0x7565696b
  cc:	6f64                	ld	s1,216(a4)
  ce:	726f572f          	.4byte	0x726f572f
  d2:	6170736b          	.4byte	0x6170736b
  d6:	502f6563          	bltu	t5,sp,5e0 <_prog_start-0x7ffffa20>
  da:	4468                	lw	a0,76(s0)
  dc:	6854                	ld	a3,144(s0)
  de:	7365                	lui	t1,0xffff9
  e0:	7369                	lui	t1,0xffffa
  e2:	77654e2f          	.4byte	0x77654e2f
  e6:	7246                	ld	tp,112(sp)
  e8:	6d61                	lui	s10,0x18
  ea:	7765                	lui	a4,0xffff9
  ec:	2f6b726f          	jal	tp,b73e2 <_prog_start-0x7ff48c1e>
  f0:	7266                	ld	tp,120(sp)
  f2:	6d61                	lui	s10,0x18
  f4:	7765                	lui	a4,0xffff9
  f6:	2f6b726f          	jal	tp,b73ec <_prog_start-0x7ff48c14>
  fa:	74666f73          	csrrsi	t5,0x746,12
  fe:	65726177          	.4byte	0x65726177
 102:	74614d2f          	.4byte	0x74614d2f
 106:	754d                	lui	a0,0xffff3
 108:	5f6c                	lw	a1,124(a4)
 10a:	61727453          	.4byte	0x61727453
 10e:	6e657373          	csrrci	t1,0x6e6,10
 112:	6372732f          	.4byte	0x6372732f
 116:	72706b2f          	.4byte	0x72706b2f
 11a:	6e69                	lui	t3,0x1a
 11c:	6674                	ld	a3,200(a2)
 11e:	632e                	ld	t1,200(sp)
 120:	2f00                	.2byte	0x2f00
 122:	6f68                	ld	a0,216(a4)
 124:	656d                	lui	a0,0x1b
 126:	6e69622f          	.4byte	0x6e69622f
 12a:	6b68                	ld	a0,208(a4)
 12c:	6569                	lui	a0,0x1a
 12e:	6475                	lui	s0,0x1d
 130:	6f572f6f          	jal	t5,73024 <_prog_start-0x7ff8cfdc>
 134:	6b72                	ld	s6,280(sp)
 136:	63617073          	csrci	0x636,2
 13a:	2f65                	addiw	t5,t5,25
 13c:	6850                	ld	a2,144(s0)
 13e:	5444                	lw	s1,44(s0)
 140:	6568                	ld	a0,200(a0)
 142:	2f736973          	csrrsi	s2,0x2f7,6
 146:	654e                	ld	a0,208(sp)
 148:	61724677          	.4byte	0x61724677
 14c:	656d                	lui	a0,0x1b
 14e:	6b726f77          	.4byte	0x6b726f77
 152:	6172662f          	.4byte	0x6172662f
 156:	656d                	lui	a0,0x1b
 158:	6b726f77          	.4byte	0x6b726f77
 15c:	666f732f          	.4byte	0x666f732f
 160:	7774                	ld	a3,232(a4)
 162:	7261                	lui	tp,0xffff8
 164:	2f65                	addiw	t5,t5,25
 166:	614d                	addi	sp,sp,176
 168:	4d74                	lw	a3,92(a0)
 16a:	6c75                	lui	s8,0x1d
 16c:	535f 7274 7361      	.byte	0x5f, 0x53, 0x74, 0x72, 0x61, 0x73
 172:	2f6e6573          	csrrsi	a0,0x2f6,28
 176:	6e69                	lui	t3,0x1a
 178:	64756c63          	bltu	a0,t2,7d0 <_prog_start-0x7ffff830>
 17c:	0065                	c.nop	25
 17e:	6d6f682f          	.4byte	0x6d6f682f
 182:	2f65                	addiw	t5,t5,25
 184:	6962                	ld	s2,24(sp)
 186:	686e                	ld	a6,216(sp)
 188:	7565696b          	.4byte	0x7565696b
 18c:	6f64                	ld	s1,216(a4)
 18e:	726f572f          	.4byte	0x726f572f
 192:	6170736b          	.4byte	0x6170736b
 196:	502f6563          	bltu	t5,sp,6a0 <_prog_start-0x7ffff960>
 19a:	4468                	lw	a0,76(s0)
 19c:	6854                	ld	a3,144(s0)
 19e:	7365                	lui	t1,0xffff9
 1a0:	7369                	lui	t1,0xffffa
 1a2:	77654e2f          	.4byte	0x77654e2f
 1a6:	7246                	ld	tp,112(sp)
 1a8:	6d61                	lui	s10,0x18
 1aa:	7765                	lui	a4,0xffff9
 1ac:	2f6b726f          	jal	tp,b74a2 <_prog_start-0x7ff48b5e>
 1b0:	632e                	ld	t1,200(sp)
 1b2:	61646e6f          	jal	t3,467c8 <_prog_start-0x7ffb9838>
 1b6:	652d                	lui	a0,0xb
 1b8:	766e                	ld	a2,248(sp)
 1ba:	7369722f          	.4byte	0x7369722f
 1be:	742d7663          	bgeu	s10,sp,90a <_prog_start-0x7ffff6f6>
 1c2:	736c6f6f          	jal	t5,c68f8 <_prog_start-0x7ff39708>
 1c6:	62696c2f          	.4byte	0x62696c2f
 1ca:	6363672f          	.4byte	0x6363672f
 1ce:	7369722f          	.4byte	0x7369722f
 1d2:	34367663          	bgeu	a2,gp,51e <_prog_start-0x7ffffae2>
 1d6:	752d                	lui	a0,0xfffeb
 1d8:	6b6e                	ld	s6,216(sp)
 1da:	6f6e                	ld	t5,216(sp)
 1dc:	652d6e77          	.4byte	0x652d6e77
 1e0:	666c                	ld	a1,200(a2)
 1e2:	2e32312f          	.4byte	0x2e32312f
 1e6:	2e32                	.2byte	0x2e32
 1e8:	2f30                	.2byte	0x2f30
 1ea:	6e69                	lui	t3,0x1a
 1ec:	64756c63          	bltu	a0,t2,844 <_prog_start-0x7ffff7bc>
 1f0:	0065                	c.nop	25
 1f2:	6d6f682f          	.4byte	0x6d6f682f
 1f6:	2f65                	addiw	t5,t5,25
 1f8:	6962                	ld	s2,24(sp)
 1fa:	686e                	ld	a6,216(sp)
 1fc:	7565696b          	.4byte	0x7565696b
 200:	6f64                	ld	s1,216(a4)
 202:	726f572f          	.4byte	0x726f572f
 206:	6170736b          	.4byte	0x6170736b
 20a:	502f6563          	bltu	t5,sp,714 <_prog_start-0x7ffff8ec>
 20e:	4468                	lw	a0,76(s0)
 210:	6854                	ld	a3,144(s0)
 212:	7365                	lui	t1,0xffff9
 214:	7369                	lui	t1,0xffffa
 216:	77654e2f          	.4byte	0x77654e2f
 21a:	7246                	ld	tp,112(sp)
 21c:	6d61                	lui	s10,0x18
 21e:	7765                	lui	a4,0xffff9
 220:	2f6b726f          	jal	tp,b7516 <_prog_start-0x7ff48aea>
 224:	632e                	ld	t1,200(sp)
 226:	61646e6f          	jal	t3,4683c <_prog_start-0x7ffb97c4>
 22a:	652d                	lui	a0,0xb
 22c:	766e                	ld	a2,248(sp)
 22e:	7369722f          	.4byte	0x7369722f
 232:	742d7663          	bgeu	s10,sp,97e <_prog_start-0x7ffff682>
 236:	736c6f6f          	jal	t5,c696c <_prog_start-0x7ff39694>
 23a:	7369722f          	.4byte	0x7369722f
 23e:	34367663          	bgeu	a2,gp,58a <_prog_start-0x7ffffa76>
 242:	752d                	lui	a0,0xfffeb
 244:	6b6e                	ld	s6,216(sp)
 246:	6f6e                	ld	t5,216(sp)
 248:	652d6e77          	.4byte	0x652d6e77
 24c:	666c                	ld	a1,200(a2)
 24e:	636e692f          	.4byte	0x636e692f
 252:	756c                	ld	a1,232(a0)
 254:	6564                	ld	s1,200(a0)
 256:	63616d2f          	.4byte	0x63616d2f
 25a:	6968                	ld	a0,208(a0)
 25c:	656e                	ld	a0,216(sp)
 25e:	2f00                	.2byte	0x2f00
 260:	6f68                	ld	a0,216(a4)
 262:	656d                	lui	a0,0x1b
 264:	6e69622f          	.4byte	0x6e69622f
 268:	6b68                	ld	a0,208(a4)
 26a:	6569                	lui	a0,0x1a
 26c:	6475                	lui	s0,0x1d
 26e:	6f572f6f          	jal	t5,73162 <_prog_start-0x7ff8ce9e>
 272:	6b72                	ld	s6,280(sp)
 274:	63617073          	csrci	0x636,2
 278:	2f65                	addiw	t5,t5,25
 27a:	6850                	ld	a2,144(s0)
 27c:	5444                	lw	s1,44(s0)
 27e:	6568                	ld	a0,200(a0)
 280:	2f736973          	csrrsi	s2,0x2f7,6
 284:	654e                	ld	a0,208(sp)
 286:	61724677          	.4byte	0x61724677
 28a:	656d                	lui	a0,0x1b
 28c:	6b726f77          	.4byte	0x6b726f77
 290:	6f632e2f          	.4byte	0x6f632e2f
 294:	646e                	ld	s0,216(sp)
 296:	2d61                	addiw	s10,s10,24 # 18018 <_prog_start-0x7ffe7fe8>
 298:	6e65                	lui	t3,0x19
 29a:	2f76                	.2byte	0x2f76
 29c:	6972                	ld	s2,280(sp)
 29e:	2d766373          	csrrsi	t1,0x2d7,12
 2a2:	6f74                	ld	a3,216(a4)
 2a4:	2f736c6f          	jal	s8,36d9a <_prog_start-0x7ffc9266>
 2a8:	6972                	ld	s2,280(sp)
 2aa:	36766373          	csrrsi	t1,0x367,12
 2ae:	2d34                	.2byte	0x2d34
 2b0:	6e75                	lui	t3,0x1d
 2b2:	776f6e6b          	.4byte	0x776f6e6b
 2b6:	2d6e                	.2byte	0x2d6e
 2b8:	6c65                	lui	s8,0x19
 2ba:	2f66                	.2byte	0x2f66
 2bc:	6e69                	lui	t3,0x1a
 2be:	64756c63          	bltu	a0,t2,916 <_prog_start-0x7ffff6ea>
 2c2:	2f65                	addiw	t5,t5,25
 2c4:	00737973          	csrrci	s2,0x7,6
 2c8:	6972706b          	.4byte	0x6972706b
 2cc:	746e                	ld	s0,248(sp)
 2ce:	2e66                	.2byte	0x2e66
 2d0:	0068                	addi	a0,sp,12
 2d2:	61647473          	csrrci	s0,0x616,8
 2d6:	6772                	ld	a4,280(sp)
 2d8:	682e                	ld	a6,200(sp)
 2da:	5f00                	lw	s0,56(a4)
 2dc:	6564                	ld	s1,200(a0)
 2de:	6166                	ld	sp,88(sp)
 2e0:	6c75                	lui	s8,0x1d
 2e2:	5f74                	lw	a3,124(a4)
 2e4:	7974                	ld	a3,240(a0)
 2e6:	6570                	ld	a2,200(a0)
 2e8:	00682e73          	csrrs	t3,0x6,a6
 2ec:	735f 6474 6e69      	.byte	0x5f, 0x73, 0x74, 0x64, 0x69, 0x6e
 2f2:	2e74                	.2byte	0x2e74
 2f4:	0068                	addi	a0,sp,12
 2f6:	6d6f682f          	.4byte	0x6d6f682f
 2fa:	2f65                	addiw	t5,t5,25
 2fc:	6962                	ld	s2,24(sp)
 2fe:	686e                	ld	a6,216(sp)
 300:	7565696b          	.4byte	0x7565696b
 304:	6f64                	ld	s1,216(a4)
 306:	726f572f          	.4byte	0x726f572f
 30a:	6170736b          	.4byte	0x6170736b
 30e:	502f6563          	bltu	t5,sp,818 <_prog_start-0x7ffff7e8>
 312:	4468                	lw	a0,76(s0)
 314:	6854                	ld	a3,144(s0)
 316:	7365                	lui	t1,0xffff9
 318:	7369                	lui	t1,0xffffa
 31a:	77654e2f          	.4byte	0x77654e2f
 31e:	7246                	ld	tp,112(sp)
 320:	6d61                	lui	s10,0x18
 322:	7765                	lui	a4,0xffff9
 324:	2f6b726f          	jal	tp,b761a <_prog_start-0x7ff489e6>
 328:	7266                	ld	tp,120(sp)
 32a:	6d61                	lui	s10,0x18
 32c:	7765                	lui	a4,0xffff9
 32e:	2f6b726f          	jal	tp,b7624 <_prog_start-0x7ff489dc>
 332:	74666f73          	csrrsi	t5,0x746,12
 336:	65726177          	.4byte	0x65726177
 33a:	74614d2f          	.4byte	0x74614d2f
 33e:	754d                	lui	a0,0xffff3
 340:	5f6c                	lw	a1,124(a4)
 342:	61727453          	.4byte	0x61727453
 346:	6e657373          	csrrci	t1,0x6e6,10
 34a:	6372732f          	.4byte	0x6372732f
 34e:	69616d2f          	.4byte	0x69616d2f
 352:	2e6e                	.2byte	0x2e6e
 354:	68740063          	beq	s0,t2,9d4 <_prog_start-0x7ffff62c>
 358:	6572                	ld	a0,280(sp)
 35a:	6461                	lui	s0,0x18
 35c:	682e                	ld	a6,200(sp)
	...

Disassembly of section .debug_info:

0000000000000000 <.debug_info>:
       0:	0025                	c.nop	9
       2:	0000                	unimp
       4:	0005                	c.nop	1
       6:	0801                	addi	a6,a6,0
       8:	0000                	unimp
       a:	0000                	unimp
       c:	0001                	nop
       e:	0000                	unimp
      10:	0000                	unimp
      12:	0000                	unimp
      14:	0080                	addi	s0,sp,64
      16:	0000                	unimp
      18:	ec00                	sd	s0,24(s0)
      1a:	0004                	.2byte	0x4
      1c:	0000                	unimp
      1e:	6000                	ld	s0,0(s0)
      20:	0000                	unimp
      22:	b500                	.2byte	0xb500
      24:	0000                	unimp
      26:	0100                	addi	s0,sp,128
      28:	2580                	.2byte	0x2580
      2a:	0000                	unimp
      2c:	0500                	addi	s0,sp,640
      2e:	0100                	addi	s0,sp,128
      30:	1408                	addi	a0,sp,544
      32:	0000                	unimp
      34:	0100                	addi	s0,sp,128
      36:	0378                	addi	a4,sp,396
      38:	0000                	unimp
      3a:	025c                	addi	a5,sp,260
      3c:	8000                	.2byte	0x8000
      3e:	0000                	unimp
      40:	0000                	unimp
      42:	02e0                	addi	s0,sp,332
      44:	00c1                	addi	ra,ra,16
      46:	0000                	unimp
      48:	0060                	addi	s0,sp,12
      4a:	0000                	unimp
      4c:	00b5                	addi	ra,ra,13
      4e:	0000                	unimp
      50:	8001                	c.srli64	s0
      52:	00000307          	.4byte	0x307
      56:	0005                	c.nop	1
      58:	0801                	addi	a6,a6,0
      5a:	0028                	addi	a0,sp,8
      5c:	0000                	unimp
      5e:	0001be0b          	.4byte	0x1be0b
      62:	1d00                	addi	s0,sp,688
      64:	00be                	slli	ra,ra,0xf
      66:	0000                	unimp
      68:	0000                	unimp
      6a:	0000                	unimp
      6c:	03bc                	addi	a5,sp,456
      6e:	8000                	.2byte	0x8000
      70:	0000                	unimp
      72:	0000                	unimp
      74:	035c                	addi	a5,sp,388
      76:	0000                	unimp
      78:	0000                	unimp
      7a:	0000                	unimp
      7c:	059a                	slli	a1,a1,0x6
      7e:	0000                	unimp
      80:	00015703          	lhu	a4,0(sp)
      84:	0300                	addi	s0,sp,384
      86:	1b28                	addi	a0,sp,440
      88:	003a                	c.slli	zero,0xe
      8a:	0000                	unimp
      8c:	080c                	addi	a1,sp,16
      8e:	0000012b          	.4byte	0x12b
      92:	00015e03          	lhu	t3,0(sp)
      96:	0300                	addi	s0,sp,384
      98:	002e1863          	bne	t3,sp,a8 <_prog_start-0x7fffff58>
      9c:	0000                	unimp
      9e:	0102                	c.slli64	sp
      a0:	6806                	ld	a6,64(sp)
      a2:	0001                	nop
      a4:	0200                	addi	s0,sp,256
      a6:	0801                	addi	a6,a6,0
      a8:	0166                	slli	sp,sp,0x19
      aa:	0000                	unimp
      ac:	0202                	c.slli64	tp
      ae:	9c05                	subw	s0,s0,s1
      b0:	0001                	nop
      b2:	0200                	addi	s0,sp,256
      b4:	0702                	c.slli64	a4
      b6:	0174                	addi	a3,sp,140
      b8:	0000                	unimp
      ba:	00013d03          	ld	s10,0(sp)
      be:	0400                	addi	s0,sp,512
      c0:	184d                	addi	a6,a6,-13
      c2:	0074                	addi	a3,sp,12
      c4:	0000                	unimp
      c6:	040d                	addi	s0,s0,3 # 18003 <_prog_start-0x7ffe7ffd>
      c8:	6905                	lui	s2,0x1
      ca:	746e                	ld	s0,248(sp)
      cc:	0300                	addi	s0,sp,384
      ce:	00000187          	.4byte	0x187
      d2:	4f04                	lw	s1,24(a4)
      d4:	8719                	srai	a4,a4,0x6
      d6:	0000                	unimp
      d8:	0200                	addi	s0,sp,256
      da:	0704                	addi	s1,sp,896
      dc:	00000273          	.4byte	0x273
      e0:	0802                	c.slli64	a6
      e2:	9205                	srli	a2,a2,0x21
      e4:	0002                	c.slli64	zero
      e6:	0200                	addi	s0,sp,256
      e8:	0708                	addi	a0,sp,896
      ea:	026e                	slli	tp,tp,0x1b
      ec:	0000                	unimp
      ee:	00013f03          	ld	t5,0(sp)
      f2:	0500                	addi	s0,sp,640
      f4:	132c                	addi	a1,sp,424
      f6:	0068                	addi	a0,sp,12
      f8:	0000                	unimp
      fa:	00018903          	lb	s2,0(gp)
      fe:	0500                	addi	s0,sp,640
     100:	1430                	addi	a2,sp,552
     102:	0000007b          	.4byte	0x7b
     106:	a80e                	.2byte	0xa80e
     108:	0000                	unimp
     10a:	0400                	addi	s0,sp,512
     10c:	01ad                	addi	gp,gp,11
     10e:	0000                	unimp
     110:	1301                	addi	t1,t1,-32 # ffffffffffff9fe0 <out+0xffffffff7ffd7fd0>
     112:	d422                	sw	s0,40(sp)
     114:	0000                	unimp
     116:	0900                	addi	s0,sp,144
     118:	001a8003          	lb	zero,1(s5)
     11c:	0080                	addi	s0,sp,64
     11e:	0000                	unimp
     120:	0800                	addi	s0,sp,16
     122:	00b4                	addi	a3,sp,72
     124:	0000                	unimp
     126:	cf09                	beqz	a4,140 <_prog_start-0x7ffffec0>
     128:	0000                	unimp
     12a:	0a00                	addi	s0,sp,272
     12c:	0000014f          	.4byte	0x14f
     130:	6816                	ld	a6,320(sp)
     132:	0004                	.2byte	0x4
     134:	0080                	addi	s0,sp,64
     136:	0000                	unimp
     138:	b000                	.2byte	0xb000
     13a:	0002                	c.slli64	zero
     13c:	0000                	unimp
     13e:	0000                	unimp
     140:	0100                	addi	s0,sp,128
     142:	3c9c                	.2byte	0x3c9c
     144:	0002                	c.slli64	zero
     146:	0500                	addi	s0,sp,640
     148:	6d66                	ld	s10,88(sp)
     14a:	0074                	addi	a3,sp,12
     14c:	1602                	slli	a2,a2,0x20
     14e:	3c1a                	.2byte	0x3c1a
     150:	0002                	c.slli64	zero
     152:	0300                	addi	s0,sp,384
     154:	9891                	andi	s1,s1,-28
     156:	0f7e                	slli	t5,t5,0x1f
     158:	7601                	lui	a2,0xfffe0
     15a:	006c                	addi	a1,sp,12
     15c:	1802                	slli	a6,a6,0x20
     15e:	0000400b          	.4byte	0x400b
     162:	0300                	addi	s0,sp,384
     164:	e891                	bnez	s1,178 <_prog_start-0x7ffffe88>
     166:	047e                	slli	s0,s0,0x1f
     168:	0192                	slli	gp,gp,0x4
     16a:	0000                	unimp
     16c:	1902                	slli	s2,s2,0x20
     16e:	00024d07          	.4byte	0x24d07
     172:	0300                	addi	s0,sp,384
     174:	af91                	j	8c8 <_prog_start-0x7ffff738>
     176:	047f                	.2byte	0x47f
     178:	00000147          	.4byte	0x147
     17c:	1902                	slli	s2,s2,0x20
     17e:	4d12                	lw	s10,4(sp)
     180:	0002                	c.slli64	zero
     182:	0300                	addi	s0,sp,384
     184:	ae91                	j	4d8 <_prog_start-0x7ffffb28>
     186:	047f                	.2byte	0x47f
     188:	00000123          	sb	zero,2(zero) # 2 <_prog_start-0x7ffffffe>
     18c:	1902                	slli	s2,s2,0x20
     18e:	00024d1b          	.4byte	0x24d1b
     192:	0300                	addi	s0,sp,384
     194:	ad91                	j	7e8 <_prog_start-0x7ffff818>
     196:	017f                	.2byte	0x17f
     198:	1a020063          	beqz	tp,338 <_prog_start-0x7ffffcc8>
     19c:	00024107          	.4byte	0x24107
     1a0:	0300                	addi	s0,sp,384
     1a2:	ff91                	bnez	a5,be <_prog_start-0x7fffff42>
     1a4:	067e                	slli	a2,a2,0x1f
     1a6:	04ee                	slli	s1,s1,0x1b
     1a8:	8000                	.2byte	0x8000
     1aa:	0000                	unimp
     1ac:	0000                	unimp
     1ae:	01ce                	slli	gp,gp,0x13
     1b0:	0000                	unimp
     1b2:	0000                	unimp
     1b4:	0000                	unimp
     1b6:	6e01                	.2byte	0x6e01
     1b8:	0200                	addi	s0,sp,256
     1ba:	1324                	addi	s1,sp,424
     1bc:	0095                	addi	ra,ra,5
     1be:	0000                	unimp
     1c0:	7fa09103          	lh	sp,2042(ra)
     1c4:	6301                	.2byte	0x6301
     1c6:	0200                	addi	s0,sp,256
     1c8:	0a26                	slli	s4,s4,0x9
     1ca:	0254                	addi	a3,sp,260
     1cc:	0000                	unimp
     1ce:	7ea89103          	lh	sp,2026(a7)
     1d2:	00050007          	.4byte	0x50007
     1d6:	0080                	addi	s0,sp,64
     1d8:	0000                	unimp
     1da:	2c00                	.2byte	0x2c00
     1dc:	0000                	unimp
     1de:	0000                	unimp
     1e0:	0000                	unimp
     1e2:	a400                	.2byte	0xa400
     1e4:	0001                	nop
     1e6:	0100                	addi	s0,sp,128
     1e8:	0069                	c.nop	26
     1ea:	2702                	.2byte	0x2702
     1ec:	740e                	ld	s0,224(sp)
     1ee:	0000                	unimp
     1f0:	0300                	addi	s0,sp,384
     1f2:	9c91                	subw	s1,s1,a2
     1f4:	007f                	.2byte	0x7f
     1f6:	00053c07          	.4byte	0x53c07
     1fa:	0080                	addi	s0,sp,64
     1fc:	0000                	unimp
     1fe:	3a00                	.2byte	0x3a00
     200:	0000                	unimp
     202:	0000                	unimp
     204:	0000                	unimp
     206:	c800                	sw	s0,16(s0)
     208:	0001                	nop
     20a:	0100                	addi	s0,sp,128
     20c:	0069                	c.nop	26
     20e:	2d02                	.2byte	0x2d02
     210:	0000740f          	.4byte	0x740f
     214:	0300                	addi	s0,sp,384
     216:	9891                	andi	s1,s1,-28
     218:	007f                	.2byte	0x7f
     21a:	0005a407          	.4byte	0x5a407
     21e:	0080                	addi	s0,sp,64
     220:	0000                	unimp
     222:	3000                	.2byte	0x3000
     224:	0000                	unimp
     226:	0000                	unimp
     228:	0000                	unimp
     22a:	ec00                	sd	s0,24(s0)
     22c:	0001                	nop
     22e:	0100                	addi	s0,sp,128
     230:	0069                	c.nop	26
     232:	3102                	.2byte	0x3102
     234:	740e                	ld	s0,224(sp)
     236:	0000                	unimp
     238:	0300                	addi	s0,sp,384
     23a:	9491                	srai	s1,s1,0x24
     23c:	007f                	.2byte	0x7f
     23e:	de06                	sw	ra,60(sp)
     240:	0005                	c.nop	1
     242:	0080                	addi	s0,sp,64
     244:	0000                	unimp
     246:	ae00                	.2byte	0xae00
     248:	0000                	unimp
     24a:	0000                	unimp
     24c:	0000                	unimp
     24e:	0100                	addi	s0,sp,128
     250:	006e                	c.slli	zero,0x1b
     252:	3702                	.2byte	0x3702
     254:	00009513          	slli	a0,ra,0x0
     258:	0300                	addi	s0,sp,384
     25a:	8891                	andi	s1,s1,4
     25c:	017f                	.2byte	0x17f
     25e:	0069                	c.nop	26
     260:	3802                	.2byte	0x3802
     262:	8e0a                	mv	t3,sp
     264:	0000                	unimp
     266:	0300                	addi	s0,sp,384
     268:	8091                	srli	s1,s1,0x4
     26a:	067f                	.2byte	0x67f
     26c:	0630                	addi	a2,sp,776
     26e:	8000                	.2byte	0x8000
     270:	0000                	unimp
     272:	0000                	unimp
     274:	0048                	addi	a0,sp,4
     276:	0000                	unimp
     278:	0000                	unimp
     27a:	0000                	unimp
     27c:	6401                	.2byte	0x6401
     27e:	0200                	addi	s0,sp,256
     280:	0b41                	addi	s6,s6,16
     282:	008e                	slli	ra,ra,0x3
     284:	0000                	unimp
     286:	7ef09103          	lh	sp,2031(ra)
     28a:	0000                	unimp
     28c:	0000                	unimp
     28e:	4808                	lw	a0,16(s0)
     290:	0002                	c.slli64	zero
     292:	0200                	addi	s0,sp,256
     294:	0801                	addi	a6,a6,0
     296:	0000016f          	jal	sp,296 <_prog_start-0x7ffffd6a>
     29a:	4109                	li	sp,2
     29c:	0002                	c.slli64	zero
     29e:	0200                	addi	s0,sp,256
     2a0:	0201                	addi	tp,tp,0 # ffffffffffff8000 <out+0xffffffff7ffd5ff0>
     2a2:	01b8                	addi	a4,sp,200
     2a4:	0000                	unimp
     2a6:	4110                	lw	a2,0(a0)
     2a8:	0002                	c.slli64	zero
     2aa:	6400                	ld	s0,8(s0)
     2ac:	0002                	c.slli64	zero
     2ae:	1100                	addi	s0,sp,160
     2b0:	0095                	addi	ra,ra,5
     2b2:	0000                	unimp
     2b4:	a70a003f 0f000001 	.8byte	0xf000001a70a003f
     2bc:	043e                	slli	s0,s0,0xf
     2be:	8000                	.2byte	0x8000
     2c0:	0000                	unimp
     2c2:	0000                	unimp
     2c4:	002a                	c.slli	zero,0xa
     2c6:	0000                	unimp
     2c8:	0000                	unimp
     2ca:	0000                	unimp
     2cc:	9c01                	subw	s0,s0,s0
     2ce:	028e                	slli	t0,t0,0x3
     2d0:	0000                	unimp
     2d2:	7305                	lui	t1,0xfffe1
     2d4:	0200                	addi	s0,sp,256
     2d6:	023c180f          	.4byte	0x23c180f
     2da:	0000                	unimp
     2dc:	9102                	jalr	sp
     2de:	0068                	addi	a0,sp,12
     2e0:	a612                	.2byte	0xa612
     2e2:	0001                	nop
     2e4:	0200                	addi	s0,sp,256
     2e6:	1408                	addi	a0,sp,544
     2e8:	03fa                	slli	t2,t2,0x1e
     2ea:	8000                	.2byte	0x8000
     2ec:	0000                	unimp
     2ee:	0000                	unimp
     2f0:	0044                	addi	s1,sp,4
     2f2:	0000                	unimp
     2f4:	0000                	unimp
     2f6:	0000                	unimp
     2f8:	9c01                	subw	s0,s0,s0
     2fa:	000002c7          	.4byte	0x2c7
     2fe:	7305                	lui	t1,0xfffe1
     300:	0200                	addi	s0,sp,256
     302:	2708                	.2byte	0x2708
     304:	023c                	addi	a5,sp,264
     306:	0000                	unimp
     308:	9102                	jalr	sp
     30a:	0158                	addi	a4,sp,132
     30c:	0a020063          	beqz	tp,3ac <_prog_start-0x7ffffc54>
     310:	00024107          	.4byte	0x24107
     314:	0200                	addi	s0,sp,256
     316:	6f91                	lui	t6,0x4
     318:	1300                	addi	s0,sp,416
     31a:	01b2                	slli	gp,gp,0xc
     31c:	0000                	unimp
     31e:	1501                	addi	a0,a0,-32 # ffffffffffff2fe0 <out+0xffffffff7ffd0fd0>
     320:	bc14                	.2byte	0xbc14
     322:	00800003          	lb	zero,8(zero) # 8 <_prog_start-0x7ffffff8>
     326:	0000                	unimp
     328:	3e00                	.2byte	0x3e00
     32a:	0000                	unimp
     32c:	0000                	unimp
     32e:	0000                	unimp
     330:	0100                	addi	s0,sp,128
     332:	059c                	addi	a5,sp,704
     334:	15010063          	beq	sp,a6,474 <_prog_start-0x7ffffb8c>
     338:	411f 0002 0200      	.byte	0x1f, 0x41, 0x02, 0x00, 0x00, 0x02
     33e:	5f91                	li	t6,-28
     340:	7401                	lui	s0,0xfffe0
     342:	0078                	addi	a4,sp,12
     344:	1701                	addi	a4,a4,-32 # ffffffffffff8fe0 <out+0xffffffff7ffd6fd0>
     346:	cf15                	beqz	a4,382 <_prog_start-0x7ffffc7e>
     348:	0000                	unimp
     34a:	0200                	addi	s0,sp,256
     34c:	6891                	lui	a7,0x4
     34e:	7201                	lui	tp,0xfffe0
     350:	0100                	addi	s0,sp,128
     352:	0a19                	addi	s4,s4,6
     354:	009c                	addi	a5,sp,64
     356:	0000                	unimp
     358:	9102                	jalr	sp
     35a:	0064                	addi	s1,sp,12
     35c:	8400                	.2byte	0x8400
     35e:	000d                	c.nop	3
     360:	0500                	addi	s0,sp,640
     362:	0100                	addi	s0,sp,128
     364:	2d08                	.2byte	0x2d08
     366:	0001                	nop
     368:	1700                	addi	s0,sp,928
     36a:	01be                	slli	gp,gp,0xf
     36c:	0000                	unimp
     36e:	f61d                	bnez	a2,29c <_prog_start-0x7ffffd64>
     370:	0002                	c.slli64	zero
     372:	0000                	unimp
     374:	0000                	unimp
     376:	1800                	addi	s0,sp,48
     378:	00800007          	.4byte	0x800007
     37c:	0000                	unimp
     37e:	2800                	.2byte	0x2800
     380:	00000013          	nop
     384:	0000                	unimp
     386:	3400                	.2byte	0x3400
     388:	0009                	c.nop	2
     38a:	0600                	addi	s0,sp,768
     38c:	0601                	addi	a2,a2,0 # fffffffffffe0000 <out+0xffffffff7ffbdff0>
     38e:	0168                	addi	a0,sp,140
     390:	0000                	unimp
     392:	4909                	li	s2,2
     394:	0002                	c.slli64	zero
     396:	0300                	addi	s0,sp,384
     398:	0041182b          	.4byte	0x41182b
     39c:	0000                	unimp
     39e:	0106                	slli	sp,sp,0x1
     3a0:	6608                	ld	a0,8(a2)
     3a2:	0001                	nop
     3a4:	0600                	addi	s0,sp,768
     3a6:	0502                	c.slli64	a0
     3a8:	019c                	addi	a5,sp,192
     3aa:	0000                	unimp
     3ac:	0206                	slli	tp,tp,0x1
     3ae:	00017407          	.4byte	0x17407
     3b2:	1800                	addi	s0,sp,48
     3b4:	0504                	addi	s1,sp,640
     3b6:	6e69                	lui	t3,0x1a
     3b8:	0074                	addi	a3,sp,12
     3ba:	8709                	srai	a4,a4,0x2
     3bc:	0001                	nop
     3be:	0300                	addi	s0,sp,384
     3c0:	0069194f          	.4byte	0x69194f
     3c4:	0000                	unimp
     3c6:	0406                	slli	s0,s0,0x1
     3c8:	00027307          	.4byte	0x27307
     3cc:	0600                	addi	s0,sp,768
     3ce:	0508                	addi	a0,sp,640
     3d0:	0292                	slli	t0,t0,0x4
     3d2:	0000                	unimp
     3d4:	7609                	lui	a2,0xfffe2
     3d6:	03000003          	lb	zero,48(zero) # 30 <_prog_start-0x7fffffd0>
     3da:	1969                	addi	s2,s2,-6 # ffa <_prog_start-0x7ffff006>
     3dc:	00000083          	lb	ra,0(zero) # 0 <_prog_start-0x80000000>
     3e0:	0806                	slli	a6,a6,0x1
     3e2:	00026e07          	.4byte	0x26e07
     3e6:	0900                	addi	s0,sp,144
     3e8:	0000024b          	.4byte	0x24b
     3ec:	1804                	addi	s1,sp,48
     3ee:	00003513          	sltiu	a0,zero,0
     3f2:	0900                	addi	s0,sp,144
     3f4:	0189                	addi	gp,gp,2
     3f6:	0000                	unimp
     3f8:	3004                	.2byte	0x3004
     3fa:	5d14                	lw	a3,56(a0)
     3fc:	0000                	unimp
     3fe:	1100                	addi	s0,sp,160
     400:	0096                	slli	ra,ra,0x5
     402:	0000                	unimp
     404:	7809                	lui	a6,0xfffe2
     406:	04000003          	lb	zero,64(zero) # 40 <_prog_start-0x7fffffc0>
     40a:	143c                	addi	a5,sp,552
     40c:	00000077          	.4byte	0x77
     410:	0806                	slli	a6,a6,0x1
     412:	8d05                	sub	a0,a0,s1
     414:	0002                	c.slli64	zero
     416:	0600                	addi	s0,sp,768
     418:	0410                	addi	a2,sp,512
     41a:	0000032b          	.4byte	0x32b
     41e:	0819                	addi	a6,a6,6 # fffffffffffe2006 <out+0xffffffff7ffbfff6>
     420:	0000c807          	.4byte	0xc807
     424:	0600                	addi	s0,sp,768
     426:	0801                	addi	a6,a6,0
     428:	0000016f          	jal	sp,428 <_prog_start-0x7ffffbd8>
     42c:	c812                	sw	tp,16(sp)
     42e:	0000                	unimp
     430:	0700                	addi	s0,sp,896
     432:	000000cf          	.4byte	0xcf
     436:	0806                	slli	a6,a6,0x1
     438:	00026907          	.4byte	0x26907
     43c:	0200                	addi	s0,sp,256
     43e:	01ad                	addi	gp,gp,11
     440:	0000                	unimp
     442:	1305                	addi	t1,t1,-31 # fffffffffffe0fe1 <out+0xffffffff7ffbefd1>
     444:	fb22                	sd	s0,432(sp)
     446:	0000                	unimp
     448:	0900                	addi	s0,sp,144
     44a:	001a8803          	lb	a6,1(s5)
     44e:	0080                	addi	s0,sp,64
     450:	0000                	unimp
     452:	0700                	addi	s0,sp,896
     454:	00a2                	slli	ra,ra,0x8
     456:	0000                	unimp
     458:	f612                	sd	tp,296(sp)
     45a:	0000                	unimp
     45c:	0b00                	addi	s0,sp,400
     45e:	00000337          	lui	t1,0x0
     462:	1308                	addi	a0,sp,416
     464:	00a2                	slli	ra,ra,0x8
     466:	0000                	unimp
     468:	0309                	addi	t1,t1,2 # 2 <_prog_start-0x7ffffffe>
     46a:	0000                	unimp
     46c:	8002                	.2byte	0x8002
     46e:	0000                	unimp
     470:	0000                	unimp
     472:	0002530b          	.4byte	0x2530b
     476:	0900                	addi	s0,sp,144
     478:	0000a213          	slti	tp,ra,0
     47c:	0900                	addi	s0,sp,144
     47e:	02000403          	lb	s0,32(zero) # 20 <_prog_start-0x7fffffe0>
     482:	0080                	addi	s0,sp,64
     484:	0000                	unimp
     486:	0b00                	addi	s0,sp,400
     488:	0318                	addi	a4,sp,384
     48a:	0000                	unimp
     48c:	130a                	slli	t1,t1,0x22
     48e:	00a2                	slli	ra,ra,0x8
     490:	0000                	unimp
     492:	0309                	addi	t1,t1,2
     494:	0008                	.2byte	0x8
     496:	8002                	.2byte	0x8002
     498:	0000                	unimp
     49a:	0000                	unimp
     49c:	0003cd0b          	.4byte	0x3cd0b
     4a0:	0d00                	addi	s0,sp,656
     4a2:	5408                	lw	a0,40(s0)
     4a4:	0001                	nop
     4a6:	0900                	addi	s0,sp,144
     4a8:	001a9003          	lh	zero,1(s5)
     4ac:	0080                	addi	s0,sp,64
     4ae:	0000                	unimp
     4b0:	0700                	addi	s0,sp,896
     4b2:	00c1                	addi	ra,ra,16
     4b4:	0000                	unimp
     4b6:	a202                	.2byte	0xa202
     4b8:	01000003          	lb	zero,16(zero) # 10 <_prog_start-0x7ffffff0>
     4bc:	00f61b0f          	.4byte	0xf61b0f
     4c0:	0000                	unimp
     4c2:	0309                	addi	t1,t1,2
     4c4:	1a98                	addi	a4,sp,368
     4c6:	8000                	.2byte	0x8000
     4c8:	0000                	unimp
     4ca:	0000                	unimp
     4cc:	cc02                	sw	zero,24(sp)
     4ce:	0002                	c.slli64	zero
     4d0:	0100                	addi	s0,sp,128
     4d2:	1b10                	addi	a2,sp,432
     4d4:	00f6                	slli	ra,ra,0x1d
     4d6:	0000                	unimp
     4d8:	0309                	addi	t1,t1,2
     4da:	1aa0                	addi	s0,sp,376
     4dc:	8000                	.2byte	0x8000
     4de:	0000                	unimp
     4e0:	0000                	unimp
     4e2:	d202                	sw	zero,36(sp)
     4e4:	0002                	c.slli64	zero
     4e6:	0100                	addi	s0,sp,128
     4e8:	1b11                	addi	s6,s6,-28
     4ea:	00f6                	slli	ra,ra,0x1d
     4ec:	0000                	unimp
     4ee:	0309                	addi	t1,t1,2
     4f0:	1aa8                	addi	a0,sp,376
     4f2:	8000                	.2byte	0x8000
     4f4:	0000                	unimp
     4f6:	0000                	unimp
     4f8:	d802                	sw	zero,48(sp)
     4fa:	0002                	c.slli64	zero
     4fc:	0100                	addi	s0,sp,128
     4fe:	1b12                	slli	s6,s6,0x24
     500:	00f6                	slli	ra,ra,0x1d
     502:	0000                	unimp
     504:	0309                	addi	t1,t1,2
     506:	1ab0                	addi	a2,sp,376
     508:	8000                	.2byte	0x8000
     50a:	0000                	unimp
     50c:	0000                	unimp
     50e:	de02                	sw	zero,60(sp)
     510:	0002                	c.slli64	zero
     512:	0100                	addi	s0,sp,128
     514:	00f61b13          	slli	s6,a2,0xf
     518:	0000                	unimp
     51a:	0309                	addi	t1,t1,2
     51c:	1ab8                	addi	a4,sp,376
     51e:	8000                	.2byte	0x8000
     520:	0000                	unimp
     522:	0000                	unimp
     524:	e402                	sd	zero,8(sp)
     526:	0002                	c.slli64	zero
     528:	0100                	addi	s0,sp,128
     52a:	1b14                	addi	a3,sp,432
     52c:	00f6                	slli	ra,ra,0x1d
     52e:	0000                	unimp
     530:	0309                	addi	t1,t1,2
     532:	1ac0                	addi	s0,sp,372
     534:	8000                	.2byte	0x8000
     536:	0000                	unimp
     538:	0000                	unimp
     53a:	ea02                	sd	zero,272(sp)
     53c:	0002                	c.slli64	zero
     53e:	0100                	addi	s0,sp,128
     540:	1b15                	addi	s6,s6,-27
     542:	00f6                	slli	ra,ra,0x1d
     544:	0000                	unimp
     546:	0309                	addi	t1,t1,2
     548:	1ac8                	addi	a0,sp,372
     54a:	8000                	.2byte	0x8000
     54c:	0000                	unimp
     54e:	0000                	unimp
     550:	f002                	sd	zero,32(sp)
     552:	0002                	c.slli64	zero
     554:	0100                	addi	s0,sp,128
     556:	1b16                	slli	s6,s6,0x25
     558:	00f6                	slli	ra,ra,0x1d
     55a:	0000                	unimp
     55c:	0309                	addi	t1,t1,2
     55e:	1ad0                	addi	a2,sp,372
     560:	8000                	.2byte	0x8000
     562:	0000                	unimp
     564:	0000                	unimp
     566:	f602                	sd	zero,296(sp)
     568:	0002                	c.slli64	zero
     56a:	0100                	addi	s0,sp,128
     56c:	00f61b17          	auipc	s6,0xf61
     570:	0000                	unimp
     572:	0309                	addi	t1,t1,2
     574:	1ad8                	addi	a4,sp,372
     576:	8000                	.2byte	0x8000
     578:	0000                	unimp
     57a:	0000                	unimp
     57c:	3809                	addiw	a6,a6,-30
     57e:	0002                	c.slli64	zero
     580:	0200                	addi	s0,sp,256
     582:	1110                	addi	a2,sp,160
     584:	008a                	slli	ra,ra,0x2
     586:	0000                	unimp
     588:	1f11                	addi	t5,t5,-28
     58a:	0002                	c.slli64	zero
     58c:	0200                	addi	s0,sp,256
     58e:	03df 0000 1202      	.byte	0xdf, 0x03, 0x00, 0x00, 0x02, 0x12
     594:	4618                	lw	a4,8(a2)
     596:	0002                	c.slli64	zero
     598:	0900                	addi	s0,sp,144
     59a:	001ae003          	lwu	zero,1(s5)
     59e:	0080                	addi	s0,sp,64
     5a0:	0000                	unimp
     5a2:	0700                	addi	s0,sp,896
     5a4:	0000022b          	.4byte	0x22b
     5a8:	1f0c                	addi	a1,sp,944
     5aa:	0002                	c.slli64	zero
     5ac:	6000                	ld	s0,0(s0)
     5ae:	0002                	c.slli64	zero
     5b0:	0a00                	addi	s0,sp,272
     5b2:	00000083          	lb	ra,0(zero) # 0 <_prog_start-0x80000000>
     5b6:	00831303          	lh	t1,8(t1)
     5ba:	0000                	unimp
     5bc:	0f00                	addi	s0,sp,912
     5be:	6e69                	lui	t3,0x1a
     5c0:	0030                	addi	a2,sp,8
     5c2:	4b14                	lw	a3,16(a4)
     5c4:	0002                	c.slli64	zero
     5c6:	0900                	addi	s0,sp,144
     5c8:	02001003          	lh	zero,32(zero) # 20 <_prog_start-0x7fffffe0>
     5cc:	0080                	addi	s0,sp,64
     5ce:	0000                	unimp
     5d0:	0f00                	addi	s0,sp,912
     5d2:	6e69                	lui	t3,0x1a
     5d4:	0031                	c.nop	12
     5d6:	4b15                	li	s6,5
     5d8:	0002                	c.slli64	zero
     5da:	0900                	addi	s0,sp,144
     5dc:	02101003          	lh	zero,33(zero) # 21 <_prog_start-0x7fffffdf>
     5e0:	0080                	addi	s0,sp,64
     5e2:	0000                	unimp
     5e4:	0c00                	addi	s0,sp,528
     5e6:	021f 0000 029d      	.byte	0x1f, 0x02, 0x00, 0x00, 0x9d, 0x02
     5ec:	0000                	unimp
     5ee:	830a                	mv	t1,sp
     5f0:	0000                	unimp
     5f2:	0700                	addi	s0,sp,896
     5f4:	00008313          	mv	t1,ra
     5f8:	0000                	unimp
     5fa:	74756f0f          	.4byte	0x74756f0f
     5fe:	1600                	addi	s0,sp,800
     600:	0288                	addi	a0,sp,320
     602:	0000                	unimp
     604:	0309                	addi	t1,t1,2
     606:	2010                	.2byte	0x2010
     608:	8002                	.2byte	0x8002
     60a:	0000                	unimp
     60c:	0000                	unimp
     60e:	4f1a                	lw	t5,132(sp)
     610:	0001                	nop
     612:	0500                	addi	s0,sp,640
     614:	02c40d27          	.4byte	0x2c40d27
     618:	0000                	unimp
     61a:	d40d                	beqz	s0,544 <_prog_start-0x7ffffabc>
     61c:	0000                	unimp
     61e:	0800                	addi	s0,sp,16
     620:	1b00                	addi	s0,sp,432
     622:	02c1                	addi	t0,t0,16 # 3010 <_prog_start-0x7fffcff0>
     624:	0000                	unimp
     626:	1d01                	addi	s10,s10,-32 # 17fe0 <_prog_start-0x7ffe8020>
     628:	9611                	srai	a2,a2,0x24
     62a:	0000                	unimp
     62c:	0e00                	addi	s0,sp,784
     62e:	0359                	addi	t1,t1,22
     630:	0000                	unimp
     632:	9624                	.2byte	0x9624
     634:	0000                	unimp
     636:	e000                	sd	s0,0(s0)
     638:	0002                	c.slli64	zero
     63a:	0800                	addi	s0,sp,16
     63c:	0e00                	addi	s0,sp,784
     63e:	034e                	slli	t1,t1,0x13
     640:	0000                	unimp
     642:	00009623          	sh	zero,12(ra)
     646:	f000                	sd	s0,32(s0)
     648:	0002                	c.slli64	zero
     64a:	0800                	addi	s0,sp,16
     64c:	0e00                	addi	s0,sp,784
     64e:	00000343          	.4byte	0x343
     652:	9622                	add	a2,a2,s0
     654:	0000                	unimp
     656:	0000                	unimp
     658:	08000003          	lb	zero,128(zero) # 80 <_prog_start-0x7fffff80>
     65c:	0e00                	addi	s0,sp,784
     65e:	000002af          	.4byte	0x2af
     662:	9621                	srai	a2,a2,0x28
     664:	0000                	unimp
     666:	1000                	addi	s0,sp,32
     668:	08000003          	lb	zero,128(zero) # 80 <_prog_start-0x7fffff80>
     66c:	1000                	addi	s0,sp,32
     66e:	038e                	slli	t2,t2,0x3
     670:	0000                	unimp
     672:	1c1f 0003 0800      	.byte	0x1f, 0x1c, 0x03, 0x00, 0x00, 0x08
     678:	1000                	addi	s0,sp,32
     67a:	0000029b          	sext.w	t0,zero
     67e:	281a                	.2byte	0x281a
     680:	08000003          	lb	zero,128(zero) # 80 <_prog_start-0x7fffff80>
     684:	1000                	addi	s0,sp,32
     686:	02a6                	slli	t0,t0,0x9
     688:	0000                	unimp
     68a:	3419                	addiw	s0,s0,-26 # fffffffffffdffe6 <out+0xffffffff7ffbdfd6>
     68c:	08000003          	lb	zero,128(zero) # 80 <_prog_start-0x7fffff80>
     690:	1c00                	addi	s0,sp,560
     692:	03f1                	addi	t2,t2,28
     694:	0000                	unimp
     696:	7702                	ld	a4,32(sp)
     698:	5605                	li	a2,-31
     69a:	0000                	unimp
     69c:	2200                	.2byte	0x2200
     69e:	0011                	c.nop	4
     6a0:	0080                	addi	s0,sp,64
     6a2:	0000                	unimp
     6a4:	1e00                	addi	s0,sp,816
     6a6:	0009                	c.nop	2
     6a8:	0000                	unimp
     6aa:	0000                	unimp
     6ac:	0100                	addi	s0,sp,128
     6ae:	969c                	.2byte	0x969c
     6b0:	05000007          	.4byte	0x5000007
     6b4:	02c5                	addi	t0,t0,17
     6b6:	0000                	unimp
     6b8:	7702                	ld	a4,32(sp)
     6ba:	560e                	lw	a2,224(sp)
     6bc:	0000                	unimp
     6be:	0400                	addi	s0,sp,512
     6c0:	bc91                	j	114 <_prog_start-0x7ffffeec>
     6c2:	7f9e                	ld	t6,480(sp)
     6c4:	da05                	beqz	a2,5f4 <_prog_start-0x7ffffa0c>
     6c6:	02000003          	lb	zero,32(zero) # 20 <_prog_start-0x7fffffe0>
     6ca:	07961d77          	.4byte	0x7961d77
     6ce:	0000                	unimp
     6d0:	9104                	.2byte	0x9104
     6d2:	9eb0                	.2byte	0x9eb0
     6d4:	027f                	.2byte	0x27f
     6d6:	00000323          	sb	zero,6(zero) # 6 <_prog_start-0x7ffffffa>
     6da:	7a02                	ld	s4,32(sp)
     6dc:	a70c                	.2byte	0xa70c
     6de:	0000                	unimp
     6e0:	0300                	addi	s0,sp,384
     6e2:	f891                	bnez	s1,5f6 <_prog_start-0x7ffffa0a>
     6e4:	027e                	slli	tp,tp,0x1f
     6e6:	0381                	addi	t2,t2,0
     6e8:	0000                	unimp
     6ea:	7a02                	ld	s4,32(sp)
     6ec:	a715                	j	e10 <_prog_start-0x7ffff1f0>
     6ee:	0000                	unimp
     6f0:	0300                	addi	s0,sp,384
     6f2:	e891                	bnez	s1,706 <_prog_start-0x7ffff8fa>
     6f4:	027e                	slli	tp,tp,0x1f
     6f6:	0302                	c.slli64	t1
     6f8:	0000                	unimp
     6fa:	7a02                	ld	s4,32(sp)
     6fc:	a71c                	.2byte	0xa71c
     6fe:	0000                	unimp
     700:	0300                	addi	s0,sp,384
     702:	e091                	bnez	s1,706 <_prog_start-0x7ffff8fa>
     704:	027e                	slli	tp,tp,0x1f
     706:	00000387          	.4byte	0x387
     70a:	7a02                	ld	s4,32(sp)
     70c:	a724                	.2byte	0xa724
     70e:	0000                	unimp
     710:	0300                	addi	s0,sp,384
     712:	c891                	beqz	s1,726 <_prog_start-0x7ffff8da>
     714:	027e                	slli	tp,tp,0x1f
     716:	0309                	addi	t1,t1,2
     718:	0000                	unimp
     71a:	7e02                	ld	t3,32(sp)
     71c:	9b09                	andi	a4,a4,-30
     71e:	03000007          	.4byte	0x3000007
     722:	c891                	beqz	s1,736 <_prog_start-0x7ffff8ca>
     724:	025e                	slli	tp,tp,0x17
     726:	030e                	slli	t1,t1,0x3
     728:	0000                	unimp
     72a:	7f02                	ld	t5,32(sp)
     72c:	9b09                	andi	a4,a4,-30
     72e:	04000007          	.4byte	0x4000007
     732:	c891                	beqz	s1,746 <_prog_start-0x7ffff8ba>
     734:	7fbe                	ld	t6,488(sp)
     736:	1302                	slli	t1,t1,0x20
     738:	02000003          	lb	zero,32(zero) # 20 <_prog_start-0x7fffffe0>
     73c:	0980                	addi	s0,sp,208
     73e:	0000079b          	sext.w	a5,zero
     742:	9104                	.2byte	0x9104
     744:	9ec8                	.2byte	0x9ec8
     746:	017f                	.2byte	0x17f
     748:	079e006b          	.4byte	0x79e006b
     74c:	0056                	c.slli	zero,0x15
     74e:	0000                	unimp
     750:	9102                	jalr	sp
     752:	0454                	addi	a3,sp,516
     754:	114e                	slli	sp,sp,0x33
     756:	8000                	.2byte	0x8000
     758:	0000                	unimp
     75a:	0000                	unimp
     75c:	00ca                	slli	ra,ra,0x12
     75e:	0000                	unimp
     760:	0000                	unimp
     762:	0000                	unimp
     764:	0436                	slli	s0,s0,0xd
     766:	0000                	unimp
     768:	6901                	.2byte	0x6901
     76a:	8300                	.2byte	0x8300
     76c:	560c                	lw	a1,40(a2)
     76e:	0000                	unimp
     770:	0200                	addi	s0,sp,256
     772:	6c91                	lui	s9,0x4
     774:	00115403          	lhu	s0,1(sp)
     778:	0080                	addi	s0,sp,64
     77a:	0000                	unimp
     77c:	aa00                	.2byte	0xaa00
     77e:	0000                	unimp
     780:	0000                	unimp
     782:	0000                	unimp
     784:	0100                	addi	s0,sp,128
     786:	006a                	c.slli	zero,0x1a
     788:	0e84                	addi	s1,sp,848
     78a:	0056                	c.slli	zero,0x15
     78c:	0000                	unimp
     78e:	9102                	jalr	sp
     790:	0068                	addi	a0,sp,12
     792:	0400                	addi	s0,sp,512
     794:	1218                	addi	a4,sp,288
     796:	8000                	.2byte	0x8000
     798:	0000                	unimp
     79a:	0000                	unimp
     79c:	000c                	.2byte	0xc
     79e:	0000                	unimp
     7a0:	0000                	unimp
     7a2:	0000                	unimp
     7a4:	045c                	addi	a5,sp,516
     7a6:	0000                	unimp
     7a8:	fc02                	sd	zero,56(sp)
     7aa:	0002                	c.slli64	zero
     7ac:	0200                	addi	s0,sp,256
     7ae:	00830d8b          	.4byte	0x830d8b
     7b2:	0000                	unimp
     7b4:	7f809103          	lh	sp,2040(ra)
     7b8:	0400                	addi	s0,sp,512
     7ba:	1228                	addi	a0,sp,296
     7bc:	8000                	.2byte	0x8000
     7be:	0000                	unimp
     7c0:	0000                	unimp
     7c2:	00c8                	addi	a0,sp,68
     7c4:	0000                	unimp
     7c6:	0000                	unimp
     7c8:	0000                	unimp
     7ca:	04da                	slli	s1,s1,0x16
     7cc:	0000                	unimp
     7ce:	6901                	.2byte	0x6901
     7d0:	8d00                	.2byte	0x8d00
     7d2:	560c                	lw	a1,40(a2)
     7d4:	0000                	unimp
     7d6:	0200                	addi	s0,sp,256
     7d8:	6491                	lui	s1,0x4
     7da:	00122e03          	lw	t3,1(tp) # fffffffffffe0001 <out+0xffffffff7ffbdff1>
     7de:	0080                	addi	s0,sp,64
     7e0:	0000                	unimp
     7e2:	a800                	.2byte	0xa800
     7e4:	0000                	unimp
     7e6:	0000                	unimp
     7e8:	0000                	unimp
     7ea:	0100                	addi	s0,sp,128
     7ec:	006a                	c.slli	zero,0x1a
     7ee:	0e8e                	slli	t4,t4,0x3
     7f0:	0056                	c.slli	zero,0x15
     7f2:	0000                	unimp
     7f4:	9102                	jalr	sp
     7f6:	0360                	addi	s0,sp,396
     7f8:	1234                	addi	a3,sp,296
     7fa:	8000                	.2byte	0x8000
     7fc:	0000                	unimp
     7fe:	0000                	unimp
     800:	0088                	addi	a0,sp,64
     802:	0000                	unimp
     804:	0000                	unimp
     806:	0000                	unimp
     808:	7301                	lui	t1,0xfffe0
     80a:	6d75                	lui	s10,0x1d
     80c:	8f00                	.2byte	0x8f00
     80e:	1f0d                	addi	t5,t5,-29
     810:	0002                	c.slli64	zero
     812:	0200                	addi	s0,sp,256
     814:	5f91                	li	t6,-28
     816:	00123803          	ld	a6,1(tp) # 1 <_prog_start-0x7fffffff>
     81a:	0080                	addi	s0,sp,64
     81c:	0000                	unimp
     81e:	6600                	ld	s0,8(a2)
     820:	0000                	unimp
     822:	0000                	unimp
     824:	0000                	unimp
     826:	0100                	addi	s0,sp,128
     828:	1090006b          	.4byte	0x1090006b
     82c:	0056                	c.slli	zero,0x15
     82e:	0000                	unimp
     830:	9102                	jalr	sp
     832:	0058                	addi	a4,sp,4
     834:	0000                	unimp
     836:	0400                	addi	s0,sp,512
     838:	12f0                	addi	a2,sp,364
     83a:	8000                	.2byte	0x8000
     83c:	0000                	unimp
     83e:	0000                	unimp
     840:	000c                	.2byte	0xc
     842:	0000                	unimp
     844:	0000                	unimp
     846:	0000                	unimp
     848:	0500                	addi	s0,sp,640
     84a:	0000                	unimp
     84c:	fc02                	sd	zero,56(sp)
     84e:	0002                	c.slli64	zero
     850:	0200                	addi	s0,sp,256
     852:	0b95                	addi	s7,s7,5
     854:	00000083          	lb	ra,0(zero) # 0 <_prog_start-0x80000000>
     858:	7ef09103          	lh	sp,2031(ra)
     85c:	0400                	addi	s0,sp,512
     85e:	1320                	addi	s0,sp,424
     860:	8000                	.2byte	0x8000
     862:	0000                	unimp
     864:	0000                	unimp
     866:	000c                	.2byte	0xc
     868:	0000                	unimp
     86a:	0000                	unimp
     86c:	0000                	unimp
     86e:	0526                	slli	a0,a0,0x9
     870:	0000                	unimp
     872:	fc02                	sd	zero,56(sp)
     874:	0002                	c.slli64	zero
     876:	0200                	addi	s0,sp,256
     878:	0d9d                	addi	s11,s11,7
     87a:	00000083          	lb	ra,0(zero) # 0 <_prog_start-0x80000000>
     87e:	7ed89103          	lh	sp,2029(a7) # 47ed <_prog_start-0x7fffb813>
     882:	0400                	addi	s0,sp,512
     884:	1334                	addi	a3,sp,424
     886:	8000                	.2byte	0x8000
     888:	0000                	unimp
     88a:	0000                	unimp
     88c:	009e                	slli	ra,ra,0x7
     88e:	0000                	unimp
     890:	0000                	unimp
     892:	0000                	unimp
     894:	0566                	slli	a0,a0,0x19
     896:	0000                	unimp
     898:	6901                	.2byte	0x6901
     89a:	a100                	.2byte	0xa100
     89c:	560c                	lw	a1,40(a2)
     89e:	0000                	unimp
     8a0:	0200                	addi	s0,sp,256
     8a2:	5091                	li	ra,-28
     8a4:	00133a03          	ld	s4,1(t1) # fffffffffffe0001 <out+0xffffffff7ffbdff1>
     8a8:	0080                	addi	s0,sp,64
     8aa:	0000                	unimp
     8ac:	8000                	.2byte	0x8000
     8ae:	0000                	unimp
     8b0:	0000                	unimp
     8b2:	0000                	unimp
     8b4:	0100                	addi	s0,sp,128
     8b6:	006a                	c.slli	zero,0x1a
     8b8:	0ea2                	slli	t4,t4,0x8
     8ba:	0056                	c.slli	zero,0x15
     8bc:	0000                	unimp
     8be:	9102                	jalr	sp
     8c0:	004c                	addi	a1,sp,4
     8c2:	0400                	addi	s0,sp,512
     8c4:	13d6                	slli	t2,t2,0x35
     8c6:	8000                	.2byte	0x8000
     8c8:	0000                	unimp
     8ca:	0000                	unimp
     8cc:	00ae                	slli	ra,ra,0xb
     8ce:	0000                	unimp
     8d0:	0000                	unimp
     8d2:	0000                	unimp
     8d4:	05a6                	slli	a1,a1,0x9
     8d6:	0000                	unimp
     8d8:	6901                	.2byte	0x6901
     8da:	a800                	.2byte	0xa800
     8dc:	560c                	lw	a1,40(a2)
     8de:	0000                	unimp
     8e0:	0200                	addi	s0,sp,256
     8e2:	4891                	li	a7,4
     8e4:	0013dc03          	lhu	s8,1(t2)
     8e8:	0080                	addi	s0,sp,64
     8ea:	0000                	unimp
     8ec:	9000                	.2byte	0x9000
     8ee:	0000                	unimp
     8f0:	0000                	unimp
     8f2:	0000                	unimp
     8f4:	0100                	addi	s0,sp,128
     8f6:	006a                	c.slli	zero,0x1a
     8f8:	0ea9                	addi	t4,t4,10
     8fa:	0056                	c.slli	zero,0x15
     8fc:	0000                	unimp
     8fe:	9102                	jalr	sp
     900:	0044                	addi	s1,sp,4
     902:	0400                	addi	s0,sp,512
     904:	1488                	addi	a0,sp,608
     906:	8000                	.2byte	0x8000
     908:	0000                	unimp
     90a:	0000                	unimp
     90c:	00b2                	slli	ra,ra,0xc
     90e:	0000                	unimp
     910:	0000                	unimp
     912:	0000                	unimp
     914:	000005e7          	jalr	a1,zero # 0 <_prog_start-0x80000000>
     918:	6901                	.2byte	0x6901
     91a:	af00                	.2byte	0xaf00
     91c:	560c                	lw	a1,40(a2)
     91e:	0000                	unimp
     920:	0200                	addi	s0,sp,256
     922:	4091                	li	ra,4
     924:	00148e03          	lb	t3,1(s1) # 4001 <_prog_start-0x7fffbfff>
     928:	0080                	addi	s0,sp,64
     92a:	0000                	unimp
     92c:	9400                	.2byte	0x9400
     92e:	0000                	unimp
     930:	0000                	unimp
     932:	0000                	unimp
     934:	0100                	addi	s0,sp,128
     936:	006a                	c.slli	zero,0x1a
     938:	0eb0                	addi	a2,sp,856
     93a:	0056                	c.slli	zero,0x15
     93c:	0000                	unimp
     93e:	7fbc9103          	lh	sp,2043(s9) # 47fb <_prog_start-0x7fffb805>
     942:	0000                	unimp
     944:	3e04                	.2byte	0x3e04
     946:	0015                	c.nop	5
     948:	0080                	addi	s0,sp,64
     94a:	0000                	unimp
     94c:	ba00                	.2byte	0xba00
     94e:	0000                	unimp
     950:	0000                	unimp
     952:	0000                	unimp
     954:	2900                	.2byte	0x2900
     956:	0006                	c.slli	zero,0x1
     958:	0100                	addi	s0,sp,128
     95a:	0069                	c.nop	26
     95c:	0cb6                	slli	s9,s9,0xd
     95e:	0056                	c.slli	zero,0x15
     960:	0000                	unimp
     962:	7fb89103          	lh	sp,2043(a7)
     966:	00154403          	lbu	s0,1(a0)
     96a:	0080                	addi	s0,sp,64
     96c:	0000                	unimp
     96e:	9c00                	.2byte	0x9c00
     970:	0000                	unimp
     972:	0000                	unimp
     974:	0000                	unimp
     976:	0100                	addi	s0,sp,128
     978:	006a                	c.slli	zero,0x1a
     97a:	00560eb7          	lui	t4,0x560
     97e:	0000                	unimp
     980:	7fb49103          	lh	sp,2043(s1)
     984:	0000                	unimp
     986:	ba04                	.2byte	0xba04
     988:	00800017          	auipc	zero,0x800
     98c:	0000                	unimp
     98e:	6800                	ld	s0,16(s0)
     990:	0000                	unimp
     992:	0000                	unimp
     994:	0000                	unimp
     996:	6b00                	ld	s0,16(a4)
     998:	0006                	c.slli	zero,0x1
     99a:	0100                	addi	s0,sp,128
     99c:	0069                	c.nop	26
     99e:	0cd5                	addi	s9,s9,21
     9a0:	0056                	c.slli	zero,0x15
     9a2:	0000                	unimp
     9a4:	7fb09103          	lh	sp,2043(ra)
     9a8:	0017c003          	lbu	zero,1(a5)
     9ac:	0080                	addi	s0,sp,64
     9ae:	0000                	unimp
     9b0:	4a00                	lw	s0,16(a2)
     9b2:	0000                	unimp
     9b4:	0000                	unimp
     9b6:	0000                	unimp
     9b8:	0100                	addi	s0,sp,128
     9ba:	006a                	c.slli	zero,0x1a
     9bc:	0ed6                	slli	t4,t4,0x15
     9be:	0056                	c.slli	zero,0x15
     9c0:	0000                	unimp
     9c2:	7fac9103          	lh	sp,2042(s9)
     9c6:	0000                	unimp
     9c8:	2604                	.2byte	0x2604
     9ca:	0018                	.2byte	0x18
     9cc:	0080                	addi	s0,sp,64
     9ce:	0000                	unimp
     9d0:	7400                	ld	s0,40(s0)
     9d2:	0000                	unimp
     9d4:	0000                	unimp
     9d6:	0000                	unimp
     9d8:	ad00                	.2byte	0xad00
     9da:	0006                	c.slli	zero,0x1
     9dc:	0100                	addi	s0,sp,128
     9de:	0069                	c.nop	26
     9e0:	0cd9                	addi	s9,s9,22
     9e2:	0056                	c.slli	zero,0x15
     9e4:	0000                	unimp
     9e6:	7fa89103          	lh	sp,2042(a7)
     9ea:	00182c03          	lw	s8,1(a6)
     9ee:	0080                	addi	s0,sp,64
     9f0:	0000                	unimp
     9f2:	5600                	lw	s0,40(a2)
     9f4:	0000                	unimp
     9f6:	0000                	unimp
     9f8:	0000                	unimp
     9fa:	0100                	addi	s0,sp,128
     9fc:	006a                	c.slli	zero,0x1a
     9fe:	0eda                	slli	t4,t4,0x16
     a00:	0056                	c.slli	zero,0x15
     a02:	0000                	unimp
     a04:	7fa49103          	lh	sp,2042(s1)
     a08:	0000                	unimp
     a0a:	9e04                	.2byte	0x9e04
     a0c:	0018                	.2byte	0x18
     a0e:	0080                	addi	s0,sp,64
     a10:	0000                	unimp
     a12:	7200                	ld	s0,32(a2)
     a14:	0000                	unimp
     a16:	0000                	unimp
     a18:	0000                	unimp
     a1a:	ef00                	sd	s0,24(a4)
     a1c:	0006                	c.slli	zero,0x1
     a1e:	0100                	addi	s0,sp,128
     a20:	0069                	c.nop	26
     a22:	0cdd                	addi	s9,s9,23
     a24:	0056                	c.slli	zero,0x15
     a26:	0000                	unimp
     a28:	7fa09103          	lh	sp,2042(ra)
     a2c:	0018a403          	lw	s0,1(a7)
     a30:	0080                	addi	s0,sp,64
     a32:	0000                	unimp
     a34:	5400                	lw	s0,40(s0)
     a36:	0000                	unimp
     a38:	0000                	unimp
     a3a:	0000                	unimp
     a3c:	0100                	addi	s0,sp,128
     a3e:	006a                	c.slli	zero,0x1a
     a40:	0ede                	slli	t4,t4,0x17
     a42:	0056                	c.slli	zero,0x15
     a44:	0000                	unimp
     a46:	7f9c9103          	lh	sp,2041(s9)
     a4a:	0000                	unimp
     a4c:	1404                	addi	s1,sp,544
     a4e:	0019                	c.nop	6
     a50:	0080                	addi	s0,sp,64
     a52:	0000                	unimp
     a54:	7800                	ld	s0,48(s0)
     a56:	0000                	unimp
     a58:	0000                	unimp
     a5a:	0000                	unimp
     a5c:	3100                	.2byte	0x3100
     a5e:	01000007          	.4byte	0x1000007
     a62:	0069                	c.nop	26
     a64:	0ce1                	addi	s9,s9,24
     a66:	0056                	c.slli	zero,0x15
     a68:	0000                	unimp
     a6a:	7f989103          	lh	sp,2041(a7)
     a6e:	00191a03          	lh	s4,1(s2)
     a72:	0080                	addi	s0,sp,64
     a74:	0000                	unimp
     a76:	5a00                	lw	s0,48(a2)
     a78:	0000                	unimp
     a7a:	0000                	unimp
     a7c:	0000                	unimp
     a7e:	0100                	addi	s0,sp,128
     a80:	006a                	c.slli	zero,0x1a
     a82:	0ee2                	slli	t4,t4,0x18
     a84:	0056                	c.slli	zero,0x15
     a86:	0000                	unimp
     a88:	7f949103          	lh	sp,2041(s1)
     a8c:	0000                	unimp
     a8e:	8c04                	.2byte	0x8c04
     a90:	0019                	c.nop	6
     a92:	0080                	addi	s0,sp,64
     a94:	0000                	unimp
     a96:	0c00                	addi	s0,sp,528
     a98:	0000                	unimp
     a9a:	0000                	unimp
     a9c:	0000                	unimp
     a9e:	5700                	lw	s0,40(a4)
     aa0:	02000007          	.4byte	0x2000007
     aa4:	02fc                	addi	a5,sp,332
     aa6:	0000                	unimp
     aa8:	e502                	sd	zero,136(sp)
     aaa:	0000830b          	.4byte	0x830b
     aae:	0300                	addi	s0,sp,384
     ab0:	d091                	beqz	s1,9b4 <_prog_start-0x7ffff64c>
     ab2:	007e                	c.slli	zero,0x1f
     ab4:	0019ac03          	lw	s8,1(s3)
     ab8:	0080                	addi	s0,sp,64
     aba:	0000                	unimp
     abc:	6800                	ld	s0,16(s0)
     abe:	0000                	unimp
     ac0:	0000                	unimp
     ac2:	0000                	unimp
     ac4:	0100                	addi	s0,sp,128
     ac6:	0069                	c.nop	26
     ac8:	0ce8                	addi	a0,sp,604
     aca:	0056                	c.slli	zero,0x15
     acc:	0000                	unimp
     ace:	7f909103          	lh	sp,2041(ra)
     ad2:	0019b203          	ld	tp,1(s3)
     ad6:	0080                	addi	s0,sp,64
     ad8:	0000                	unimp
     ada:	4800                	lw	s0,16(s0)
     adc:	0000                	unimp
     ade:	0000                	unimp
     ae0:	0000                	unimp
     ae2:	0100                	addi	s0,sp,128
     ae4:	006a                	c.slli	zero,0x1a
     ae6:	0ee9                	addi	t4,t4,26 # 56001a <_prog_start-0x7fa9ffe6>
     ae8:	0056                	c.slli	zero,0x15
     aea:	0000                	unimp
     aec:	7f8c9103          	lh	sp,2040(s9)
     af0:	0000                	unimp
     af2:	0700                	addi	s0,sp,896
     af4:	000000c3          	.4byte	0xc3
     af8:	1f0c                	addi	a1,sp,944
     afa:	0002                	c.slli64	zero
     afc:	b100                	.2byte	0xb100
     afe:	0a000007          	.4byte	0xa000007
     b02:	00000083          	lb	ra,0(zero) # 0 <_prog_start-0x80000000>
     b06:	00830a3f 003f0000 	.8byte	0x3f000000830a3f
     b0e:	f614                	sd	a3,40(a2)
     b10:	5c000003          	lb	zero,1472(zero) # 5c0 <_prog_start-0x7ffffa40>
     b14:	0f14                	addi	a3,sp,912
     b16:	8000                	.2byte	0x8000
     b18:	0000                	unimp
     b1a:	0000                	unimp
     b1c:	020e                	slli	tp,tp,0x3
     b1e:	0000                	unimp
     b20:	0000                	unimp
     b22:	0000                	unimp
     b24:	9c01                	subw	s0,s0,s0
     b26:	00000917          	auipc	s2,0x0
     b2a:	4405                	li	s0,1
     b2c:	0002                	c.slli64	zero
     b2e:	0200                	addi	s0,sp,256
     b30:	195c                	addi	a5,sp,180
     b32:	00c1                	addi	ra,ra,16
     b34:	0000                	unimp
     b36:	67b89103          	lh	sp,1659(a7)
     b3a:	9d05                	subw	a0,a0,s1
     b3c:	02000003          	lb	zero,32(zero) # 20 <_prog_start-0x7fffffe0>
     b40:	255c                	.2byte	0x255c
     b42:	00c1                	addi	ra,ra,16
     b44:	0000                	unimp
     b46:	67b09103          	lh	sp,1659(ra)
     b4a:	3305                	addiw	t1,t1,-31
     b4c:	0002                	c.slli64	zero
     b4e:	0200                	addi	s0,sp,256
     b50:	315c                	.2byte	0x315c
     b52:	00c1                	addi	ra,ra,16
     b54:	0000                	unimp
     b56:	67a89103          	lh	sp,1658(a7)
     b5a:	0902                	c.slli64	s2
     b5c:	02000003          	lb	zero,32(zero) # 20 <_prog_start-0x7fffffe0>
     b60:	095d                	addi	s2,s2,23 # b3d <_prog_start-0x7ffff4c3>
     b62:	00000917          	auipc	s2,0x0
     b66:	77c09103          	lh	sp,1916(ra)
     b6a:	0e02                	c.slli64	t3
     b6c:	02000003          	lb	zero,32(zero) # 20 <_prog_start-0x7fffffe0>
     b70:	095e                	slli	s2,s2,0x17
     b72:	00000917          	auipc	s2,0x0
     b76:	6fc09103          	lh	sp,1788(ra)
     b7a:	1302                	slli	t1,t1,0x20
     b7c:	02000003          	lb	zero,32(zero) # 20 <_prog_start-0x7fffffe0>
     b80:	095f 0917 0000      	.byte	0x5f, 0x09, 0x17, 0x09, 0x00, 0x00
     b86:	67c09103          	lh	sp,1660(ra)
     b8a:	5f02                	lw	t5,32(sp)
     b8c:	0002                	c.slli64	zero
     b8e:	0200                	addi	s0,sp,256
     b90:	0a61                	addi	s4,s4,24
     b92:	092d                	addi	s2,s2,11 # b7d <_prog_start-0x7ffff483>
     b94:	0000                	unimp
     b96:	9102                	jalr	sp
     b98:	0250                	addi	a2,sp,260
     b9a:	0264                	addi	s1,sp,268
     b9c:	0000                	unimp
     b9e:	6202                	ld	tp,0(sp)
     ba0:	2d0a                	.2byte	0x2d0a
     ba2:	0009                	c.nop	2
     ba4:	0200                	addi	s0,sp,256
     ba6:	4891                	li	a7,4
     ba8:	ba02                	.2byte	0xba02
     baa:	0002                	c.slli64	zero
     bac:	0200                	addi	s0,sp,256
     bae:	092d0a63          	beq	s10,s2,c42 <_prog_start-0x7ffff3be>
     bb2:	0000                	unimp
     bb4:	9102                	jalr	sp
     bb6:	0440                	addi	s0,sp,516
     bb8:	0f6c                	addi	a1,sp,924
     bba:	8000                	.2byte	0x8000
     bbc:	0000                	unimp
     bbe:	0000                	unimp
     bc0:	00a6                	slli	ra,ra,0x9
     bc2:	0000                	unimp
     bc4:	0000                	unimp
     bc6:	0000                	unimp
     bc8:	089a                	slli	a7,a7,0x6
     bca:	0000                	unimp
     bcc:	6901                	.2byte	0x6901
     bce:	6600                	ld	s0,8(a2)
     bd0:	560c                	lw	a1,40(a2)
     bd2:	0000                	unimp
     bd4:	0200                	addi	s0,sp,256
     bd6:	6c91                	lui	s9,0x4
     bd8:	000f7203          	.4byte	0xf7203
     bdc:	0080                	addi	s0,sp,64
     bde:	0000                	unimp
     be0:	8800                	.2byte	0x8800
     be2:	0000                	unimp
     be4:	0000                	unimp
     be6:	0000                	unimp
     be8:	0100                	addi	s0,sp,128
     bea:	006a                	c.slli	zero,0x1a
     bec:	00560e67          	jalr	t3,5(a2) # fffffffffffe2005 <out+0xffffffff7ffbfff5>
     bf0:	0000                	unimp
     bf2:	9102                	jalr	sp
     bf4:	0068                	addi	a0,sp,12
     bf6:	0400                	addi	s0,sp,512
     bf8:	1012                	c.slli	zero,0x24
     bfa:	8000                	.2byte	0x8000
     bfc:	0000                	unimp
     bfe:	0000                	unimp
     c00:	008a                	slli	ra,ra,0x2
     c02:	0000                	unimp
     c04:	0000                	unimp
     c06:	0000                	unimp
     c08:	08da                	slli	a7,a7,0x16
     c0a:	0000                	unimp
     c0c:	6901                	.2byte	0x6901
     c0e:	6c00                	ld	s0,24(s0)
     c10:	560c                	lw	a1,40(a2)
     c12:	0000                	unimp
     c14:	0200                	addi	s0,sp,256
     c16:	6491                	lui	s1,0x4
     c18:	00101803          	lh	a6,1(zero) # 1 <_prog_start-0x7fffffff>
     c1c:	0080                	addi	s0,sp,64
     c1e:	0000                	unimp
     c20:	6c00                	ld	s0,24(s0)
     c22:	0000                	unimp
     c24:	0000                	unimp
     c26:	0000                	unimp
     c28:	0100                	addi	s0,sp,128
     c2a:	006a                	c.slli	zero,0x1a
     c2c:	0e6d                	addi	t3,t3,27 # 1a01b <_prog_start-0x7ffe5fe5>
     c2e:	0056                	c.slli	zero,0x15
     c30:	0000                	unimp
     c32:	9102                	jalr	sp
     c34:	0060                	addi	s0,sp,12
     c36:	0300                	addi	s0,sp,384
     c38:	109c                	addi	a5,sp,96
     c3a:	8000                	.2byte	0x8000
     c3c:	0000                	unimp
     c3e:	0000                	unimp
     c40:	0074                	addi	a3,sp,12
     c42:	0000                	unimp
     c44:	0000                	unimp
     c46:	0000                	unimp
     c48:	6901                	.2byte	0x6901
     c4a:	7100                	ld	s0,32(a0)
     c4c:	560c                	lw	a1,40(a2)
     c4e:	0000                	unimp
     c50:	0200                	addi	s0,sp,256
     c52:	5c91                	li	s9,-28
     c54:	0010a203          	lw	tp,1(ra)
     c58:	0080                	addi	s0,sp,64
     c5a:	0000                	unimp
     c5c:	5600                	lw	s0,40(a2)
     c5e:	0000                	unimp
     c60:	0000                	unimp
     c62:	0000                	unimp
     c64:	0100                	addi	s0,sp,128
     c66:	006a                	c.slli	zero,0x1a
     c68:	0e72                	slli	t3,t3,0x1c
     c6a:	0056                	c.slli	zero,0x15
     c6c:	0000                	unimp
     c6e:	9102                	jalr	sp
     c70:	0058                	addi	a4,sp,4
     c72:	0000                	unimp
     c74:	1f0c                	addi	a1,sp,944
     c76:	0002                	c.slli64	zero
     c78:	2d00                	.2byte	0x2d00
     c7a:	0009                	c.nop	2
     c7c:	0a00                	addi	s0,sp,272
     c7e:	00000083          	lb	ra,0(zero) # 0 <_prog_start-0x80000000>
     c82:	0a1f 0083 0000      	.byte	0x1f, 0x0a, 0x83, 0x00, 0x00, 0x00
     c88:	001f 1f07 0002      	.byte	0x1f, 0x00, 0x07, 0x1f, 0x02, 0x00
     c8e:	1400                	addi	s0,sp,544
     c90:	0280                	addi	s0,sp,320
     c92:	0000                	unimp
     c94:	d43a                	sw	a4,40(sp)
     c96:	000c                	.2byte	0xc
     c98:	0080                	addi	s0,sp,64
     c9a:	0000                	unimp
     c9c:	4000                	lw	s0,0(s0)
     c9e:	0002                	c.slli64	zero
     ca0:	0000                	unimp
     ca2:	0000                	unimp
     ca4:	0100                	addi	s0,sp,128
     ca6:	d79c                	sw	a5,40(a5)
     ca8:	000a                	c.slli	zero,0x2
     caa:	0500                	addi	s0,sp,640
     cac:	0244                	addi	s1,sp,260
     cae:	0000                	unimp
     cb0:	3a02                	.2byte	0x3a02
     cb2:	c119                	beqz	a0,cb8 <_prog_start-0x7ffff348>
     cb4:	0000                	unimp
     cb6:	0300                	addi	s0,sp,384
     cb8:	a891                	j	d0c <_prog_start-0x7ffff2f4>
     cba:	039d0567          	jalr	a0,57(s10) # 1d039 <_prog_start-0x7ffe2fc7>
     cbe:	0000                	unimp
     cc0:	3a02                	.2byte	0x3a02
     cc2:	c125                	beqz	a0,d22 <_prog_start-0x7ffff2de>
     cc4:	0000                	unimp
     cc6:	0300                	addi	s0,sp,384
     cc8:	a091                	j	d0c <_prog_start-0x7ffff2f4>
     cca:	02330567          	jalr	a0,35(t1)
     cce:	0000                	unimp
     cd0:	3a02                	.2byte	0x3a02
     cd2:	c131                	beqz	a0,d16 <_prog_start-0x7ffff2ea>
     cd4:	0000                	unimp
     cd6:	0300                	addi	s0,sp,384
     cd8:	9891                	andi	s1,s1,-28
     cda:	03090267          	jalr	tp,48(s2)
     cde:	0000                	unimp
     ce0:	3b02                	.2byte	0x3b02
     ce2:	1709                	addi	a4,a4,-30
     ce4:	0009                	c.nop	2
     ce6:	0300                	addi	s0,sp,384
     ce8:	b891                	j	53c <_prog_start-0x7ffffac4>
     cea:	030e0277          	.4byte	0x30e0277
     cee:	0000                	unimp
     cf0:	3c02                	.2byte	0x3c02
     cf2:	1709                	addi	a4,a4,-30
     cf4:	0009                	c.nop	2
     cf6:	0300                	addi	s0,sp,384
     cf8:	b891                	j	54c <_prog_start-0x7ffffab4>
     cfa:	0313026f          	jal	tp,3152a <_prog_start-0x7ffcead6>
     cfe:	0000                	unimp
     d00:	3d02                	.2byte	0x3d02
     d02:	1709                	addi	a4,a4,-30
     d04:	0009                	c.nop	2
     d06:	0300                	addi	s0,sp,384
     d08:	b891                	j	55c <_prog_start-0x7ffffaa4>
     d0a:	025f0267          	jalr	tp,37(t5)
     d0e:	0000                	unimp
     d10:	3f02                	.2byte	0x3f02
     d12:	2d0a                	.2byte	0x2d0a
     d14:	0009                	c.nop	2
     d16:	0200                	addi	s0,sp,256
     d18:	4891                	li	a7,4
     d1a:	6402                	ld	s0,0(sp)
     d1c:	0002                	c.slli64	zero
     d1e:	0200                	addi	s0,sp,256
     d20:	0a40                	addi	s0,sp,276
     d22:	092d                	addi	s2,s2,11
     d24:	0000                	unimp
     d26:	9102                	jalr	sp
     d28:	0240                	addi	s0,sp,260
     d2a:	02ba                	slli	t0,t0,0xe
     d2c:	0000                	unimp
     d2e:	4202                	lw	tp,0(sp)
     d30:	2d0a                	.2byte	0x2d0a
     d32:	0009                	c.nop	2
     d34:	0300                	addi	s0,sp,384
     d36:	b891                	j	58a <_prog_start-0x7ffffa76>
     d38:	047f                	.2byte	0x47f
     d3a:	0d2c                	addi	a1,sp,664
     d3c:	8000                	.2byte	0x8000
     d3e:	0000                	unimp
     d40:	0000                	unimp
     d42:	00a6                	slli	ra,ra,0x9
     d44:	0000                	unimp
     d46:	0000                	unimp
     d48:	0000                	unimp
     d4a:	0a1c                	addi	a5,sp,272
     d4c:	0000                	unimp
     d4e:	6901                	.2byte	0x6901
     d50:	4500                	lw	s0,8(a0)
     d52:	560c                	lw	a1,40(a2)
     d54:	0000                	unimp
     d56:	0200                	addi	s0,sp,256
     d58:	6c91                	lui	s9,0x4
     d5a:	000d3203          	ld	tp,0(s10)
     d5e:	0080                	addi	s0,sp,64
     d60:	0000                	unimp
     d62:	8800                	.2byte	0x8800
     d64:	0000                	unimp
     d66:	0000                	unimp
     d68:	0000                	unimp
     d6a:	0100                	addi	s0,sp,128
     d6c:	006a                	c.slli	zero,0x1a
     d6e:	0e46                	slli	t3,t3,0x11
     d70:	0056                	c.slli	zero,0x15
     d72:	0000                	unimp
     d74:	9102                	jalr	sp
     d76:	0068                	addi	a0,sp,12
     d78:	0400                	addi	s0,sp,512
     d7a:	0dd2                	slli	s11,s11,0x14
     d7c:	8000                	.2byte	0x8000
     d7e:	0000                	unimp
     d80:	0000                	unimp
     d82:	00bc                	addi	a5,sp,72
     d84:	0000                	unimp
     d86:	0000                	unimp
     d88:	0000                	unimp
     d8a:	0a9a                	slli	s5,s5,0x6
     d8c:	0000                	unimp
     d8e:	6901                	.2byte	0x6901
     d90:	4c00                	lw	s0,24(s0)
     d92:	560c                	lw	a1,40(a2)
     d94:	0000                	unimp
     d96:	0200                	addi	s0,sp,256
     d98:	6491                	lui	s1,0x4
     d9a:	000dd803          	lhu	a6,0(s11)
     d9e:	0080                	addi	s0,sp,64
     da0:	0000                	unimp
     da2:	9e00                	.2byte	0x9e00
     da4:	0000                	unimp
     da6:	0000                	unimp
     da8:	0000                	unimp
     daa:	0100                	addi	s0,sp,128
     dac:	006a                	c.slli	zero,0x1a
     dae:	0e4d                	addi	t3,t3,19
     db0:	0056                	c.slli	zero,0x15
     db2:	0000                	unimp
     db4:	9102                	jalr	sp
     db6:	0360                	addi	s0,sp,396
     db8:	0dde                	slli	s11,s11,0x17
     dba:	8000                	.2byte	0x8000
     dbc:	0000                	unimp
     dbe:	0000                	unimp
     dc0:	0080                	addi	s0,sp,64
     dc2:	0000                	unimp
     dc4:	0000                	unimp
     dc6:	0000                	unimp
     dc8:	7301                	lui	t1,0xfffe0
     dca:	6d75                	lui	s10,0x1d
     dcc:	4e00                	lw	s0,24(a2)
     dce:	1f0d                	addi	t5,t5,-29
     dd0:	0002                	c.slli64	zero
     dd2:	0200                	addi	s0,sp,256
     dd4:	5f91                	li	t6,-28
     dd6:	000de203          	lwu	tp,0(s11)
     dda:	0080                	addi	s0,sp,64
     ddc:	0000                	unimp
     dde:	5e00                	lw	s0,56(a2)
     de0:	0000                	unimp
     de2:	0000                	unimp
     de4:	0000                	unimp
     de6:	0100                	addi	s0,sp,128
     de8:	104f006b          	.4byte	0x104f006b
     dec:	0056                	c.slli	zero,0x15
     dee:	0000                	unimp
     df0:	9102                	jalr	sp
     df2:	0058                	addi	a4,sp,4
     df4:	0000                	unimp
     df6:	0300                	addi	s0,sp,384
     df8:	0e8e                	slli	t4,t4,0x3
     dfa:	8000                	.2byte	0x8000
     dfc:	0000                	unimp
     dfe:	0000                	unimp
     e00:	0074                	addi	a3,sp,12
     e02:	0000                	unimp
     e04:	0000                	unimp
     e06:	0000                	unimp
     e08:	6901                	.2byte	0x6901
     e0a:	5600                	lw	s0,40(a2)
     e0c:	560c                	lw	a1,40(a2)
     e0e:	0000                	unimp
     e10:	0200                	addi	s0,sp,256
     e12:	5491                	li	s1,-28
     e14:	000e9403          	lh	s0,0(t4)
     e18:	0080                	addi	s0,sp,64
     e1a:	0000                	unimp
     e1c:	5600                	lw	s0,40(a2)
     e1e:	0000                	unimp
     e20:	0000                	unimp
     e22:	0000                	unimp
     e24:	0100                	addi	s0,sp,128
     e26:	006a                	c.slli	zero,0x1a
     e28:	00560e57          	.4byte	0x560e57
     e2c:	0000                	unimp
     e2e:	9102                	jalr	sp
     e30:	0050                	addi	a2,sp,4
     e32:	0000                	unimp
     e34:	6415                	lui	s0,0x5
     e36:	02000003          	lb	zero,32(zero) # 20 <_prog_start-0x7fffffe0>
     e3a:	7a18                	ld	a4,48(a2)
     e3c:	000a                	c.slli	zero,0x2
     e3e:	0080                	addi	s0,sp,64
     e40:	0000                	unimp
     e42:	5a00                	lw	s0,48(a2)
     e44:	0002                	c.slli64	zero
     e46:	0000                	unimp
     e48:	0000                	unimp
     e4a:	0100                	addi	s0,sp,128
     e4c:	529c                	lw	a5,32(a3)
     e4e:	000c                	.2byte	0xc
     e50:	1d00                	addi	s0,sp,688
     e52:	6964                	ld	s1,208(a0)
     e54:	006e                	c.slli	zero,0x1b
     e56:	1802                	slli	a6,a6,0x20
     e58:	0000c113          	xori	sp,ra,0
     e5c:	0400                	addi	s0,sp,512
     e5e:	b891                	j	6b2 <_prog_start-0x7ffff94e>
     e60:	7f9f 3305 0002      	.byte	0x9f, 0x7f, 0x05, 0x33, 0x02, 0x00
     e66:	0200                	addi	s0,sp,256
     e68:	1e18                	addi	a4,sp,816
     e6a:	00c1                	addi	ra,ra,16
     e6c:	0000                	unimp
     e6e:	9104                	.2byte	0x9104
     e70:	9fb0                	.2byte	0x9fb0
     e72:	027f                	.2byte	0x27f
     e74:	0309                	addi	t1,t1,2 # fffffffffffe0002 <out+0xffffffff7ffbdff2>
     e76:	0000                	unimp
     e78:	1902                	slli	s2,s2,0x20
     e7a:	9b09                	andi	a4,a4,-30
     e7c:	03000007          	.4byte	0x3000007
     e80:	c891                	beqz	s1,e94 <_prog_start-0x7ffff16c>
     e82:	025f 030e 0000      	.byte	0x5f, 0x02, 0x0e, 0x03, 0x00, 0x00
     e88:	1a02                	slli	s4,s4,0x20
     e8a:	9b09                	andi	a4,a4,-30
     e8c:	04000007          	.4byte	0x4000007
     e90:	c891                	beqz	s1,ea4 <_prog_start-0x7ffff15c>
     e92:	13027fbf 02000003 	.8byte	0x200000313027fbf
     e9a:	079b091b          	addiw	s2,s6,121 # f615e5 <_prog_start-0x7f09ea1b>
     e9e:	0000                	unimp
     ea0:	9104                	.2byte	0x9104
     ea2:	9fc8                	.2byte	0x9fc8
     ea4:	027f                	.2byte	0x27f
     ea6:	02ba                	slli	t0,t0,0xe
     ea8:	0000                	unimp
     eaa:	1d02                	slli	s10,s10,0x20
     eac:	2d0a                	.2byte	0x2d0a
     eae:	0009                	c.nop	2
     eb0:	0200                	addi	s0,sp,256
     eb2:	4891                	li	a7,4
     eb4:	a804                	.2byte	0xa804
     eb6:	000a                	c.slli	zero,0x2
     eb8:	0080                	addi	s0,sp,64
     eba:	0000                	unimp
     ebc:	ca00                	sw	s0,16(a2)
     ebe:	0000                	unimp
     ec0:	0000                	unimp
     ec2:	0000                	unimp
     ec4:	9700                	.2byte	0x9700
     ec6:	0100000b          	.4byte	0x100000b
     eca:	0069                	c.nop	26
     ecc:	0c20                	addi	s0,sp,536
     ece:	0056                	c.slli	zero,0x15
     ed0:	0000                	unimp
     ed2:	9102                	jalr	sp
     ed4:	036c                	addi	a1,sp,396
     ed6:	0aae                	slli	s5,s5,0xb
     ed8:	8000                	.2byte	0x8000
     eda:	0000                	unimp
     edc:	0000                	unimp
     ede:	00aa                	slli	ra,ra,0xa
     ee0:	0000                	unimp
     ee2:	0000                	unimp
     ee4:	0000                	unimp
     ee6:	6a01                	.2byte	0x6a01
     ee8:	2100                	.2byte	0x2100
     eea:	560e                	lw	a2,224(sp)
     eec:	0000                	unimp
     eee:	0200                	addi	s0,sp,256
     ef0:	6891                	lui	a7,0x4
     ef2:	0000                	unimp
     ef4:	7204                	ld	s1,32(a2)
     ef6:	0080000b          	.4byte	0x80000b
     efa:	0000                	unimp
     efc:	c800                	sw	s0,16(s0)
     efe:	0000                	unimp
     f00:	0000                	unimp
     f02:	0000                	unimp
     f04:	1500                	addi	s0,sp,672
     f06:	000c                	.2byte	0xc
     f08:	0100                	addi	s0,sp,128
     f0a:	0069                	c.nop	26
     f0c:	0c28                	addi	a0,sp,536
     f0e:	0056                	c.slli	zero,0x15
     f10:	0000                	unimp
     f12:	9102                	jalr	sp
     f14:	0364                	addi	s1,sp,396
     f16:	0b78                	addi	a4,sp,412
     f18:	8000                	.2byte	0x8000
     f1a:	0000                	unimp
     f1c:	0000                	unimp
     f1e:	00a8                	addi	a0,sp,72
     f20:	0000                	unimp
     f22:	0000                	unimp
     f24:	0000                	unimp
     f26:	6a01                	.2byte	0x6a01
     f28:	2900                	.2byte	0x2900
     f2a:	560e                	lw	a2,224(sp)
     f2c:	0000                	unimp
     f2e:	0200                	addi	s0,sp,256
     f30:	6091                	lui	ra,0x4
     f32:	000b7e03          	.4byte	0xb7e03
     f36:	0080                	addi	s0,sp,64
     f38:	0000                	unimp
     f3a:	8800                	.2byte	0x8800
     f3c:	0000                	unimp
     f3e:	0000                	unimp
     f40:	0000                	unimp
     f42:	0100                	addi	s0,sp,128
     f44:	006d7573          	csrrci	a0,0x6,26
     f48:	0d2a                	slli	s10,s10,0xa
     f4a:	021f 0000 9102      	.byte	0x1f, 0x02, 0x00, 0x00, 0x02, 0x91
     f50:	035f 0b82 8000      	.byte	0x5f, 0x03, 0x82, 0x0b, 0x00, 0x80
     f56:	0000                	unimp
     f58:	0000                	unimp
     f5a:	0066                	c.slli	zero,0x19
     f5c:	0000                	unimp
     f5e:	0000                	unimp
     f60:	0000                	unimp
     f62:	6b01                	.2byte	0x6b01
     f64:	2b00                	.2byte	0x2b00
     f66:	5610                	lw	a2,40(a2)
     f68:	0000                	unimp
     f6a:	0200                	addi	s0,sp,256
     f6c:	5891                	li	a7,-28
     f6e:	0000                	unimp
     f70:	0000                	unimp
     f72:	000c3a03          	ld	s4,0(s8) # 1d000 <_prog_start-0x7ffe3000>
     f76:	0080                	addi	s0,sp,64
     f78:	0000                	unimp
     f7a:	7800                	ld	s0,48(s0)
     f7c:	0000                	unimp
     f7e:	0000                	unimp
     f80:	0000                	unimp
     f82:	0100                	addi	s0,sp,128
     f84:	0069                	c.nop	26
     f86:	0c32                	slli	s8,s8,0xc
     f88:	0056                	c.slli	zero,0x15
     f8a:	0000                	unimp
     f8c:	9102                	jalr	sp
     f8e:	0354                	addi	a3,sp,388
     f90:	0c40                	addi	s0,sp,532
     f92:	8000                	.2byte	0x8000
     f94:	0000                	unimp
     f96:	0000                	unimp
     f98:	0058                	addi	a4,sp,4
     f9a:	0000                	unimp
     f9c:	0000                	unimp
     f9e:	0000                	unimp
     fa0:	6a01                	.2byte	0x6a01
     fa2:	3300                	.2byte	0x3300
     fa4:	560e                	lw	a2,224(sp)
     fa6:	0000                	unimp
     fa8:	0200                	addi	s0,sp,256
     faa:	5091                	li	ra,-28
     fac:	0000                	unimp
     fae:	1600                	addi	s0,sp,800
     fb0:	03c1                	addi	t2,t2,16
     fb2:	0000                	unimp
     fb4:	085c                	addi	a5,sp,20
     fb6:	000a                	c.slli	zero,0x2
     fb8:	0080                	addi	s0,sp,64
     fba:	0000                	unimp
     fbc:	7200                	ld	s0,32(a2)
     fbe:	0000                	unimp
     fc0:	0000                	unimp
     fc2:	0000                	unimp
     fc4:	0100                	addi	s0,sp,128
     fc6:	7e9c                	ld	a5,56(a3)
     fc8:	000c                	.2byte	0xc
     fca:	0200                	addi	s0,sp,256
     fcc:	00000403          	lb	s0,0(zero) # 0 <_prog_start-0x80000000>
     fd0:	5f01                	li	t5,-32
     fd2:	960e                	add	a2,a2,gp
     fd4:	0000                	unimp
     fd6:	0200                	addi	s0,sp,256
     fd8:	6c91                	lui	s9,0x4
     fda:	1600                	addi	s0,sp,800
     fdc:	0000036b          	.4byte	0x36b
     fe0:	00089843          	.4byte	0x89843
     fe4:	0080                	addi	s0,sp,64
     fe6:	0000                	unimp
     fe8:	7000                	ld	s0,32(s0)
     fea:	0001                	nop
     fec:	0000                	unimp
     fee:	0000                	unimp
     ff0:	0100                	addi	s0,sp,128
     ff2:	e99c                	sd	a5,16(a1)
     ff4:	000c                	.2byte	0xc
     ff6:	0300                	addi	s0,sp,384
     ff8:	08d2                	slli	a7,a7,0x14
     ffa:	8000                	.2byte	0x8000
     ffc:	0000                	unimp
     ffe:	0000                	unimp
    1000:	0114                	addi	a3,sp,128
    1002:	0000                	unimp
    1004:	0000                	unimp
    1006:	0000                	unimp
    1008:	3e02                	.2byte	0x3e02
    100a:	0002                	c.slli64	zero
    100c:	0100                	addi	s0,sp,128
    100e:	0cfe1447          	.4byte	0xcfe1447
    1012:	0000                	unimp
    1014:	9102                	jalr	sp
    1016:	0268                	addi	a0,sp,268
    1018:	0244                	addi	s1,sp,260
    101a:	0000                	unimp
    101c:	4901                	li	s2,0
    101e:	0000c113          	xori	sp,ra,0
    1022:	0200                	addi	s0,sp,256
    1024:	6091                	lui	ra,0x4
    1026:	9d02                	jalr	s10
    1028:	01000003          	lb	zero,16(zero) # 10 <_prog_start-0x7ffffff0>
    102c:	134a                	slli	t1,t1,0x32
    102e:	00c1                	addi	ra,ra,16 # 4010 <_prog_start-0x7fffbff0>
    1030:	0000                	unimp
    1032:	9102                	jalr	sp
    1034:	0258                	addi	a4,sp,260
    1036:	00000233          	add	tp,zero,zero
    103a:	4b01                	li	s6,0
    103c:	0000c113          	xori	sp,ra,0
    1040:	0200                	addi	s0,sp,256
    1042:	5091                	li	ra,-28
    1044:	0000                	unimp
    1046:	fe1e                	sd	t2,312(sp)
    1048:	000c                	.2byte	0xc
    104a:	0d00                	addi	s0,sp,656
    104c:	00c1                	addi	ra,ra,16
    104e:	0000                	unimp
    1050:	c10d                	beqz	a0,1072 <_prog_start-0x7fffef8e>
    1052:	0000                	unimp
    1054:	0d00                	addi	s0,sp,656
    1056:	00c1                	addi	ra,ra,16
    1058:	0000                	unimp
    105a:	0700                	addi	s0,sp,896
    105c:	0ce9                	addi	s9,s9,26 # 401a <_prog_start-0x7fffbfe6>
    105e:	0000                	unimp
    1060:	a715                	j	1784 <_prog_start-0x7fffe87c>
    1062:	01000003          	lb	zero,16(zero) # 10 <_prog_start-0x7ffffff0>
    1066:	8e3a                	mv	t3,a4
    1068:	00800007          	.4byte	0x800007
    106c:	0000                	unimp
    106e:	0a00                	addi	s0,sp,272
    1070:	0001                	nop
    1072:	0000                	unimp
    1074:	0000                	unimp
    1076:	0100                	addi	s0,sp,128
    1078:	5d9c                	lw	a5,56(a1)
    107a:	000d                	c.nop	3
    107c:	0500                	addi	s0,sp,640
    107e:	023e                	slli	tp,tp,0xf
    1080:	0000                	unimp
    1082:	3a01                	addiw	s4,s4,-32
    1084:	c11a                	sw	t1,128(sp)
    1086:	0000                	unimp
    1088:	0200                	addi	s0,sp,256
    108a:	6891                	lui	a7,0x4
    108c:	4405                	li	s0,1
    108e:	0002                	c.slli64	zero
    1090:	0100                	addi	s0,sp,128
    1092:	273a                	.2byte	0x273a
    1094:	00c1                	addi	ra,ra,16
    1096:	0000                	unimp
    1098:	9102                	jalr	sp
    109a:	0560                	addi	s0,sp,652
    109c:	039d                	addi	t2,t2,7
    109e:	0000                	unimp
    10a0:	3a01                	addiw	s4,s4,-32
    10a2:	0000c133          	xor	sp,ra,zero
    10a6:	0200                	addi	s0,sp,256
    10a8:	5891                	li	a7,-28
    10aa:	3305                	addiw	t1,t1,-31
    10ac:	0002                	c.slli64	zero
    10ae:	0100                	addi	s0,sp,128
    10b0:	3f3a                	.2byte	0x3f3a
    10b2:	00c1                	addi	ra,ra,16
    10b4:	0000                	unimp
    10b6:	9102                	jalr	sp
    10b8:	0050                	addi	a2,sp,4
    10ba:	b51f 0003 0100      	.byte	0x1f, 0xb5, 0x03, 0x00, 0x00, 0x01
    10c0:	062a                	slli	a2,a2,0xa
    10c2:	0718                	addi	a4,sp,896
    10c4:	8000                	.2byte	0x8000
    10c6:	0000                	unimp
    10c8:	0000                	unimp
    10ca:	0076                	c.slli	zero,0x1d
    10cc:	0000                	unimp
    10ce:	0000                	unimp
    10d0:	0000                	unimp
    10d2:	9c01                	subw	s0,s0,s0
    10d4:	e405                	bnez	s0,10fc <_prog_start-0x7fffef04>
    10d6:	01000003          	lb	zero,16(zero) # 10 <_prog_start-0x7ffffff0>
    10da:	1b2a                	slli	s6,s6,0x2a
    10dc:	0096                	slli	ra,ra,0x5
    10de:	0000                	unimp
    10e0:	9102                	jalr	sp
    10e2:	006c                	addi	a1,sp,12
	...

Disassembly of section .debug_abbrev:

0000000000000000 <.debug_abbrev>:
   0:	1101                	addi	sp,sp,-32
   2:	1000                	addi	s0,sp,32
   4:	12011117          	auipc	sp,0x12011
   8:	1b0e030f          	.4byte	0x1b0e030f
   c:	250e                	.2byte	0x250e
   e:	130e                	slli	t1,t1,0x23
  10:	0005                	c.nop	1
  12:	0000                	unimp
  14:	1101                	addi	sp,sp,-32 # 12010fe4 <_prog_start-0x6dfef01c>
  16:	1000                	addi	s0,sp,32
  18:	12011117          	auipc	sp,0x12011
  1c:	1b0e030f          	.4byte	0x1b0e030f
  20:	250e                	.2byte	0x250e
  22:	130e                	slli	t1,t1,0x23
  24:	0005                	c.nop	1
  26:	0000                	unimp
  28:	3401                	addiw	s0,s0,-32 # 4fe0 <_prog_start-0x7fffb020>
  2a:	0300                	addi	s0,sp,384
  2c:	3a08                	.2byte	0x3a08
  2e:	390b3b0b          	.4byte	0x390b3b0b
  32:	0213490b          	.4byte	0x213490b
  36:	0018                	.2byte	0x18
  38:	0200                	addi	s0,sp,256
  3a:	0024                	addi	s1,sp,8
  3c:	0b3e0b0b          	.4byte	0xb3e0b0b
  40:	00000e03          	lb	t3,0(zero) # 0 <_prog_start-0x80000000>
  44:	03001603          	lh	a2,48(zero) # 30 <_prog_start-0x7fffffd0>
  48:	3a0e                	.2byte	0x3a0e
  4a:	390b3b0b          	.4byte	0x390b3b0b
  4e:	0013490b          	.4byte	0x13490b
  52:	0400                	addi	s0,sp,512
  54:	0034                	addi	a3,sp,8
  56:	0b3a0e03          	lb	t3,179(s4)
  5a:	0b390b3b          	.4byte	0xb390b3b
  5e:	1349                	addi	t1,t1,-14
  60:	1802                	slli	a6,a6,0x20
  62:	0000                	unimp
  64:	0505                	addi	a0,a0,1
  66:	0300                	addi	s0,sp,384
  68:	3a08                	.2byte	0x3a08
  6a:	390b3b0b          	.4byte	0x390b3b0b
  6e:	0213490b          	.4byte	0x213490b
  72:	0018                	.2byte	0x18
  74:	0600                	addi	s0,sp,768
  76:	0111010b          	.4byte	0x111010b
  7a:	0712                	slli	a4,a4,0x4
  7c:	0000                	unimp
  7e:	11010b07          	.4byte	0x11010b07
  82:	1201                	addi	tp,tp,-32 # ffffffffffffffe0 <out+0xffffffff7ffddfd0>
  84:	00130107          	.4byte	0x130107
  88:	0800                	addi	s0,sp,16
  8a:	210b000f          	.4byte	0x210b000f
  8e:	4908                	lw	a0,16(a0)
  90:	09000013          	li	zero,144
  94:	0026                	c.slli	zero,0x9
  96:	1349                	addi	t1,t1,-14
  98:	0000                	unimp
  9a:	2e0a                	.2byte	0x2e0a
  9c:	3f01                	addiw	t5,t5,-32
  9e:	0319                	addi	t1,t1,6
  a0:	3a0e                	.2byte	0x3a0e
  a2:	0221                	addi	tp,tp,8 # 8 <_prog_start-0x7ffffff8>
  a4:	21390b3b          	.4byte	0x21390b3b
  a8:	2706                	.2byte	0x2706
  aa:	1119                	addi	sp,sp,-26 # 12010ffe <_prog_start-0x6dfef002>
  ac:	1201                	addi	tp,tp,-32 # ffffffffffffffe0 <out+0xffffffff7ffddfd0>
  ae:	7c184007          	.4byte	0x7c184007
  b2:	0119                	addi	sp,sp,6
  b4:	0b000013          	li	zero,176
  b8:	0111                	addi	sp,sp,4
  ba:	0e25                	addi	t3,t3,9
  bc:	1f030b13          	addi	s6,t1,496
  c0:	01111f1b          	slliw	t5,sp,0x11
  c4:	0712                	slli	a4,a4,0x4
  c6:	1710                	addi	a2,sp,928
  c8:	0000                	unimp
  ca:	0f0c                	addi	a1,sp,912
  cc:	0b00                	addi	s0,sp,400
  ce:	000e030b          	.4byte	0xe030b
  d2:	0d00                	addi	s0,sp,656
  d4:	0024                	addi	s1,sp,8
  d6:	0b3e0b0b          	.4byte	0xb3e0b0b
  da:	00000803          	lb	a6,0(zero) # 0 <_prog_start-0x80000000>
  de:	350e                	.2byte	0x350e
  e0:	4900                	lw	s0,16(a0)
  e2:	0f000013          	li	zero,240
  e6:	0018                	.2byte	0x18
  e8:	0000                	unimp
  ea:	0110                	addi	a2,sp,128
  ec:	4901                	li	s2,0
  ee:	00130113          	addi	sp,t1,1
  f2:	1100                	addi	s0,sp,160
  f4:	0021                	c.nop	8
  f6:	1349                	addi	t1,t1,-14
  f8:	00000b2f          	.4byte	0xb2f
  fc:	2e12                	.2byte	0x2e12
  fe:	0301                	addi	t1,t1,0
 100:	3a0e                	.2byte	0x3a0e
 102:	390b3b0b          	.4byte	0x390b3b0b
 106:	1119270b          	.4byte	0x1119270b
 10a:	1201                	addi	tp,tp,-32 # ffffffffffffffe0 <out+0xffffffff7ffddfd0>
 10c:	7c184007          	.4byte	0x7c184007
 110:	0119                	addi	sp,sp,6
 112:	13000013          	li	zero,304
 116:	012e                	slli	sp,sp,0xb
 118:	0b3a0e03          	lb	t3,179(s4)
 11c:	0b390b3b          	.4byte	0xb390b3b
 120:	01111927          	.4byte	0x1111927
 124:	0712                	slli	a4,a4,0x4
 126:	1840                	addi	s0,sp,52
 128:	197a                	slli	s2,s2,0x3e
 12a:	0000                	unimp
 12c:	0100                	addi	s0,sp,128
 12e:	0034                	addi	a3,sp,8
 130:	213a0803          	lb	a6,531(s4)
 134:	3b02                	.2byte	0x3b02
 136:	490b390b          	.4byte	0x490b390b
 13a:	00180213          	addi	tp,a6,1
 13e:	0200                	addi	s0,sp,256
 140:	0034                	addi	a3,sp,8
 142:	0b3a0e03          	lb	t3,179(s4)
 146:	0b390b3b          	.4byte	0xb390b3b
 14a:	1349                	addi	t1,t1,-14
 14c:	1802                	slli	a6,a6,0x20
 14e:	0000                	unimp
 150:	11010b03          	lb	s6,272(sp)
 154:	1201                	addi	tp,tp,-32 # ffffffffffffffe0 <out+0xffffffff7ffddfd0>
 156:	04000007          	.4byte	0x4000007
 15a:	0111010b          	.4byte	0x111010b
 15e:	0712                	slli	a4,a4,0x4
 160:	1301                	addi	t1,t1,-32
 162:	0000                	unimp
 164:	0505                	addi	a0,a0,1
 166:	0300                	addi	s0,sp,384
 168:	3a0e                	.2byte	0x3a0e
 16a:	390b3b0b          	.4byte	0x390b3b0b
 16e:	0213490b          	.4byte	0x213490b
 172:	0018                	.2byte	0x18
 174:	0600                	addi	s0,sp,768
 176:	0024                	addi	s1,sp,8
 178:	0b3e0b0b          	.4byte	0xb3e0b0b
 17c:	00000e03          	lb	t3,0(zero) # 0 <_prog_start-0x80000000>
 180:	0b000f07          	.4byte	0xb000f07
 184:	0821                	addi	a6,a6,8
 186:	1349                	addi	t1,t1,-14
 188:	0000                	unimp
 18a:	1808                	addi	a0,sp,48
 18c:	0000                	unimp
 18e:	0900                	addi	s0,sp,144
 190:	0016                	c.slli	zero,0x5
 192:	0b3a0e03          	lb	t3,179(s4)
 196:	0b390b3b          	.4byte	0xb390b3b
 19a:	1349                	addi	t1,t1,-14
 19c:	0000                	unimp
 19e:	210a                	.2byte	0x210a
 1a0:	4900                	lw	s0,16(a0)
 1a2:	000b2f13          	slti	t5,s6,0
 1a6:	0b00                	addi	s0,sp,400
 1a8:	0034                	addi	a3,sp,8
 1aa:	213a0e03          	lb	t3,531(s4)
 1ae:	3b01                	addiw	s6,s6,-32
 1b0:	490b390b          	.4byte	0x490b390b
 1b4:	02193f13          	sltiu	t5,s2,33
 1b8:	0018                	.2byte	0x18
 1ba:	0c00                	addi	s0,sp,528
 1bc:	0101                	addi	sp,sp,0
 1be:	1349                	addi	t1,t1,-14
 1c0:	1301                	addi	t1,t1,-32
 1c2:	0000                	unimp
 1c4:	050d                	addi	a0,a0,3
 1c6:	4900                	lw	s0,16(a0)
 1c8:	0e000013          	li	zero,224
 1cc:	012e                	slli	sp,sp,0xb
 1ce:	0e03193f 3b01213a 	.8byte	0x3b01213a0e03193f
 1d6:	1121390b          	.4byte	0x1121390b
 1da:	1349                	addi	t1,t1,-14
 1dc:	193c                	addi	a5,sp,184
 1de:	1301                	addi	t1,t1,-32
 1e0:	0000                	unimp
 1e2:	0300340f          	.4byte	0x300340f
 1e6:	3a08                	.2byte	0x3a08
 1e8:	0221                	addi	tp,tp,8 # 8 <_prog_start-0x7ffffff8>
 1ea:	21390b3b          	.4byte	0x21390b3b
 1ee:	3f134907          	.4byte	0x3f134907
 1f2:	0219                	addi	tp,tp,6 # 6 <_prog_start-0x7ffffffa>
 1f4:	0018                	.2byte	0x18
 1f6:	1000                	addi	s0,sp,32
 1f8:	012e                	slli	sp,sp,0xb
 1fa:	0e03193f 3b01213a 	.8byte	0x3b01213a0e03193f
 202:	0d21390b          	.4byte	0xd21390b
 206:	193c                	addi	a5,sp,184
 208:	1301                	addi	t1,t1,-32
 20a:	0000                	unimp
 20c:	3511                	addiw	a0,a0,-28
 20e:	4900                	lw	s0,16(a0)
 210:	12000013          	li	zero,288
 214:	0026                	c.slli	zero,0x9
 216:	1349                	addi	t1,t1,-14
 218:	0000                	unimp
 21a:	49002113          	slti	sp,zero,1168
 21e:	ff212f13          	slti	t5,sp,-14
 222:	14000007          	.4byte	0x14000007
 226:	012e                	slli	sp,sp,0xb
 228:	0e03193f 3b02213a 	.8byte	0x3b02213a0e03193f
 230:	0621390b          	.4byte	0x621390b
 234:	01111927          	.4byte	0x1111927
 238:	0712                	slli	a4,a4,0x4
 23a:	1840                	addi	s0,sp,52
 23c:	197a                	slli	s2,s2,0x3e
 23e:	1301                	addi	t1,t1,-32
 240:	0000                	unimp
 242:	2e15                	addiw	t3,t3,5
 244:	3f01                	addiw	t5,t5,-32
 246:	0319                	addi	t1,t1,6
 248:	3a0e                	.2byte	0x3a0e
 24a:	390b3b0b          	.4byte	0x390b3b0b
 24e:	0621                	addi	a2,a2,8
 250:	01111927          	.4byte	0x1111927
 254:	0712                	slli	a4,a4,0x4
 256:	1840                	addi	s0,sp,52
 258:	197c                	addi	a5,sp,188
 25a:	1301                	addi	t1,t1,-32
 25c:	0000                	unimp
 25e:	2e16                	.2byte	0x2e16
 260:	3f01                	addiw	t5,t5,-32
 262:	0319                	addi	t1,t1,6
 264:	3a0e                	.2byte	0x3a0e
 266:	0121                	addi	sp,sp,8
 268:	21390b3b          	.4byte	0x21390b3b
 26c:	1106                	slli	sp,sp,0x21
 26e:	1201                	addi	tp,tp,-32 # ffffffffffffffe0 <out+0xffffffff7ffddfd0>
 270:	7c184007          	.4byte	0x7c184007
 274:	0119                	addi	sp,sp,6
 276:	17000013          	li	zero,368
 27a:	0111                	addi	sp,sp,4
 27c:	0e25                	addi	t3,t3,9
 27e:	1f030b13          	addi	s6,t1,496
 282:	01111f1b          	slliw	t5,sp,0x11
 286:	0712                	slli	a4,a4,0x4
 288:	1710                	addi	a2,sp,928
 28a:	0000                	unimp
 28c:	2418                	.2byte	0x2418
 28e:	0b00                	addi	s0,sp,400
 290:	030b3e0b          	.4byte	0x30b3e0b
 294:	0008                	.2byte	0x8
 296:	1900                	addi	s0,sp,176
 298:	0b0b000f          	.4byte	0xb0b000f
 29c:	0000                	unimp
 29e:	2e1a                	.2byte	0x2e1a
 2a0:	3f01                	addiw	t5,t5,-32
 2a2:	0319                	addi	t1,t1,6
 2a4:	3a0e                	.2byte	0x3a0e
 2a6:	390b3b0b          	.4byte	0x390b3b0b
 2aa:	3c19270b          	.4byte	0x3c19270b
 2ae:	0119                	addi	sp,sp,6
 2b0:	1b000013          	li	zero,432
 2b4:	002e                	c.slli	zero,0xb
 2b6:	0e03193f 0b3b0b3a 	.8byte	0xb3b0b3a0e03193f
 2be:	0b39                	addi	s6,s6,14
 2c0:	13491927          	.4byte	0x13491927
 2c4:	193c                	addi	a5,sp,184
 2c6:	0000                	unimp
 2c8:	2e1c                	.2byte	0x2e1c
 2ca:	3f01                	addiw	t5,t5,-32
 2cc:	0319                	addi	t1,t1,6
 2ce:	3a0e                	.2byte	0x3a0e
 2d0:	390b3b0b          	.4byte	0x390b3b0b
 2d4:	4919270b          	.4byte	0x4919270b
 2d8:	12011113          	.4byte	0x12011113
 2dc:	7c184007          	.4byte	0x7c184007
 2e0:	0119                	addi	sp,sp,6
 2e2:	1d000013          	li	zero,464
 2e6:	0005                	c.nop	1
 2e8:	0b3a0803          	lb	a6,179(s4)
 2ec:	0b390b3b          	.4byte	0xb390b3b
 2f0:	1349                	addi	t1,t1,-14
 2f2:	1802                	slli	a6,a6,0x20
 2f4:	0000                	unimp
 2f6:	151e                	slli	a0,a0,0x27
 2f8:	2701                	sext.w	a4,a4
 2fa:	0119                	addi	sp,sp,6
 2fc:	1f000013          	li	zero,496
 300:	012e                	slli	sp,sp,0xb
 302:	0e03193f 0b3b0b3a 	.8byte	0xb3b0b3a0e03193f
 30a:	0b39                	addi	s6,s6,14
 30c:	01111927          	.4byte	0x1111927
 310:	0712                	slli	a4,a4,0x4
 312:	1840                	addi	s0,sp,52
 314:	197c                	addi	a5,sp,188
 316:	0000                	unimp
	...

Disassembly of section .debug_aranges:

0000000000000000 <.debug_aranges>:
   0:	002c                	addi	a1,sp,8
   2:	0000                	unimp
   4:	0002                	c.slli64	zero
   6:	0000                	unimp
   8:	0000                	unimp
   a:	0008                	.2byte	0x8
   c:	0000                	unimp
   e:	0000                	unimp
  10:	0000                	unimp
  12:	8000                	.2byte	0x8000
  14:	0000                	unimp
  16:	0000                	unimp
  18:	025c                	addi	a5,sp,260
	...
  2e:	0000                	unimp
  30:	002c                	addi	a1,sp,8
  32:	0000                	unimp
  34:	0002                	c.slli64	zero
  36:	0029                	c.nop	10
  38:	0000                	unimp
  3a:	0008                	.2byte	0x8
  3c:	0000                	unimp
  3e:	0000                	unimp
  40:	025c                	addi	a5,sp,260
  42:	8000                	.2byte	0x8000
  44:	0000                	unimp
  46:	0000                	unimp
  48:	0160                	addi	s0,sp,140
	...
  5e:	0000                	unimp
  60:	002c                	addi	a1,sp,8
  62:	0000                	unimp
  64:	0002                	c.slli64	zero
  66:	0052                	c.slli	zero,0x14
  68:	0000                	unimp
  6a:	0008                	.2byte	0x8
  6c:	0000                	unimp
  6e:	0000                	unimp
  70:	03bc                	addi	a5,sp,456
  72:	8000                	.2byte	0x8000
  74:	0000                	unimp
  76:	0000                	unimp
  78:	035c                	addi	a5,sp,388
	...
  8e:	0000                	unimp
  90:	002c                	addi	a1,sp,8
  92:	0000                	unimp
  94:	0002                	c.slli64	zero
  96:	035d                	addi	t1,t1,23
  98:	0000                	unimp
  9a:	0008                	.2byte	0x8
  9c:	0000                	unimp
  9e:	0000                	unimp
  a0:	0718                	addi	a4,sp,896
  a2:	8000                	.2byte	0x8000
  a4:	0000                	unimp
  a6:	0000                	unimp
  a8:	1328                	addi	a0,sp,424
	...

Disassembly of section .debug_str:

0000000000000000 <.debug_str>:
   0:	6d6f682f          	.4byte	0x6d6f682f
   4:	2f65                	addiw	t5,t5,25
   6:	6962                	ld	s2,24(sp)
   8:	686e                	ld	a6,216(sp)
   a:	7565696b          	.4byte	0x7565696b
   e:	6f64                	ld	s1,216(a4)
  10:	726f572f          	.4byte	0x726f572f
  14:	6170736b          	.4byte	0x6170736b
  18:	502f6563          	bltu	t5,sp,522 <_prog_start-0x7ffffade>
  1c:	4468                	lw	a0,76(s0)
  1e:	6854                	ld	a3,144(s0)
  20:	7365                	lui	t1,0xffff9
  22:	7369                	lui	t1,0xffffa
  24:	77654e2f          	.4byte	0x77654e2f
  28:	7246                	ld	tp,112(sp)
  2a:	6d61                	lui	s10,0x18
  2c:	7765                	lui	a4,0xffff9
  2e:	2f6b726f          	jal	tp,b7324 <_prog_start-0x7ff48cdc>
  32:	7266                	ld	tp,120(sp)
  34:	6d61                	lui	s10,0x18
  36:	7765                	lui	a4,0xffff9
  38:	2f6b726f          	jal	tp,b732e <_prog_start-0x7ff48cd2>
  3c:	74666f73          	csrrsi	t5,0x746,12
  40:	65726177          	.4byte	0x65726177
  44:	74614d2f          	.4byte	0x74614d2f
  48:	754d                	lui	a0,0xffff3
  4a:	5f6c                	lw	a1,124(a4)
  4c:	61727453          	.4byte	0x61727453
  50:	6e657373          	csrrci	t1,0x6e6,10
  54:	6372732f          	.4byte	0x6372732f
  58:	7472632f          	.4byte	0x7472632f
  5c:	2e30                	.2byte	0x2e30
  5e:	682f0053          	.4byte	0x682f0053
  62:	2f656d6f          	jal	s10,56358 <_prog_start-0x7ffa9ca8>
  66:	6962                	ld	s2,24(sp)
  68:	686e                	ld	a6,216(sp)
  6a:	7565696b          	.4byte	0x7565696b
  6e:	6f64                	ld	s1,216(a4)
  70:	726f572f          	.4byte	0x726f572f
  74:	6170736b          	.4byte	0x6170736b
  78:	502f6563          	bltu	t5,sp,582 <_prog_start-0x7ffffa7e>
  7c:	4468                	lw	a0,76(s0)
  7e:	6854                	ld	a3,144(s0)
  80:	7365                	lui	t1,0xffff9
  82:	7369                	lui	t1,0xffffa
  84:	77654e2f          	.4byte	0x77654e2f
  88:	7246                	ld	tp,112(sp)
  8a:	6d61                	lui	s10,0x18
  8c:	7765                	lui	a4,0xffff9
  8e:	2f6b726f          	jal	tp,b7384 <_prog_start-0x7ff48c7c>
  92:	7266                	ld	tp,120(sp)
  94:	6d61                	lui	s10,0x18
  96:	7765                	lui	a4,0xffff9
  98:	2f6b726f          	jal	tp,b738e <_prog_start-0x7ff48c72>
  9c:	74666f73          	csrrsi	t5,0x746,12
  a0:	65726177          	.4byte	0x65726177
  a4:	74614d2f          	.4byte	0x74614d2f
  a8:	754d                	lui	a0,0xffff3
  aa:	5f6c                	lw	a1,124(a4)
  ac:	61727453          	.4byte	0x61727453
  b0:	6e657373          	csrrci	t1,0x6e6,10
  b4:	4700                	lw	s0,8(a4)
  b6:	554e                	lw	a0,240(sp)
  b8:	4120                	lw	s0,64(a0)
  ba:	2e322053          	.4byte	0x2e322053
  be:	2f003933          	.4byte	0x2f003933
  c2:	6f68                	ld	a0,216(a4)
  c4:	656d                	lui	a0,0x1b
  c6:	6e69622f          	.4byte	0x6e69622f
  ca:	6b68                	ld	a0,208(a4)
  cc:	6569                	lui	a0,0x1a
  ce:	6475                	lui	s0,0x1d
  d0:	6f572f6f          	jal	t5,72fc4 <_prog_start-0x7ff8d03c>
  d4:	6b72                	ld	s6,280(sp)
  d6:	63617073          	csrci	0x636,2
  da:	2f65                	addiw	t5,t5,25
  dc:	6850                	ld	a2,144(s0)
  de:	5444                	lw	s1,44(s0)
  e0:	6568                	ld	a0,200(a0)
  e2:	2f736973          	csrrsi	s2,0x2f7,6
  e6:	654e                	ld	a0,208(sp)
  e8:	61724677          	.4byte	0x61724677
  ec:	656d                	lui	a0,0x1b
  ee:	6b726f77          	.4byte	0x6b726f77
  f2:	6172662f          	.4byte	0x6172662f
  f6:	656d                	lui	a0,0x1b
  f8:	6b726f77          	.4byte	0x6b726f77
  fc:	666f732f          	.4byte	0x666f732f
 100:	7774                	ld	a3,232(a4)
 102:	7261                	lui	tp,0xffff8
 104:	2f65                	addiw	t5,t5,25
 106:	614d                	addi	sp,sp,176
 108:	4d74                	lw	a3,92(a0)
 10a:	6c75                	lui	s8,0x1d
 10c:	535f 7274 7361      	.byte	0x5f, 0x53, 0x74, 0x72, 0x61, 0x73
 112:	2f6e6573          	csrrsi	a0,0x2f6,28
 116:	2f637273          	csrrci	tp,0x2f6,6
 11a:	6874                	ld	a3,208(s0)
 11c:	6572                	ld	a0,280(sp)
 11e:	6461                	lui	s0,0x18
 120:	532e                	lw	t1,232(sp)
 122:	6900                	ld	s0,16(a0)
 124:	68635f73          	csrrwi	t5,0x686,6
 128:	7261                	lui	tp,0xffff8
 12a:	5f00                	lw	s0,56(a4)
 12c:	625f 6975 746c      	.byte	0x5f, 0x62, 0x75, 0x69, 0x6c, 0x74
 132:	6e69                	lui	t3,0x1a
 134:	765f 5f61 696c      	.byte	0x5f, 0x76, 0x61, 0x5f, 0x6c, 0x69
 13a:	5f007473          	csrrci	s0,0x5f0,0
 13e:	695f 746e 3233      	.byte	0x5f, 0x69, 0x6e, 0x74, 0x33, 0x32
 144:	745f 6900 5f73      	.byte	0x5f, 0x74, 0x00, 0x69, 0x73, 0x5f
 14a:	6f6c                	ld	a1,216(a4)
 14c:	676e                	ld	a4,216(sp)
 14e:	6b00                	ld	s0,16(a4)
 150:	7270                	ld	a2,224(a2)
 152:	6e69                	lui	t3,0x1a
 154:	6674                	ld	a3,200(a2)
 156:	5f00                	lw	s0,56(a4)
 158:	675f 756e 5f63      	.byte	0x5f, 0x67, 0x6e, 0x75, 0x63, 0x5f
 15e:	6176                	ld	sp,344(sp)
 160:	6c5f 7369 0074      	.byte	0x5f, 0x6c, 0x69, 0x73, 0x74, 0x00
 166:	6e75                	lui	t3,0x1d
 168:	6e676973          	csrrsi	s2,0x6e6,14
 16c:	6465                	lui	s0,0x19
 16e:	6320                	ld	s0,64(a4)
 170:	6168                	ld	a0,192(a0)
 172:	0072                	c.slli	zero,0x1c
 174:	726f6873          	csrrsi	a6,mhpmevent6h,30
 178:	2074                	.2byte	0x2074
 17a:	6e75                	lui	t3,0x1d
 17c:	6e676973          	csrrsi	s2,0x6e6,14
 180:	6465                	lui	s0,0x19
 182:	6920                	ld	s0,80(a0)
 184:	746e                	ld	s0,248(sp)
 186:	5f00                	lw	s0,56(a4)
 188:	755f 6e69 3374      	.byte	0x5f, 0x75, 0x69, 0x6e, 0x74, 0x33
 18e:	5f32                	lw	t5,44(sp)
 190:	0074                	addi	a3,sp,12
 192:	7369                	lui	t1,0xffffa
 194:	665f 726f 616d      	.byte	0x5f, 0x66, 0x6f, 0x72, 0x6d, 0x61
 19a:	0074                	addi	a3,sp,12
 19c:	726f6873          	csrrsi	a6,mhpmevent6h,30
 1a0:	2074                	.2byte	0x2074
 1a2:	6e69                	lui	t3,0x1a
 1a4:	0074                	addi	a3,sp,12
 1a6:	6b5f 7570 7374      	.byte	0x5f, 0x6b, 0x70, 0x75, 0x74, 0x73
 1ac:	7500                	ld	s0,40(a0)
 1ae:	7261                	lui	tp,0xffff8
 1b0:	0074                	addi	a3,sp,12
 1b2:	7475706b          	.4byte	0x7475706b
 1b6:	425f0063          	beq	t5,t0,5d6 <_prog_start-0x7ffffa2a>
 1ba:	006c6f6f          	jal	t5,c61c0 <_prog_start-0x7ff39e40>
 1be:	20554e47          	.4byte	0x20554e47
 1c2:	20313143          	.4byte	0x20313143
 1c6:	3231                	addiw	tp,tp,-20 # ffffffffffff7fec <out+0xffffffff7ffd5fdc>
 1c8:	322e                	.2byte	0x322e
 1ca:	302e                	.2byte	0x302e
 1cc:	2d20                	.2byte	0x2d20
 1ce:	636d                	lui	t1,0x1b
 1d0:	6f6d                	lui	t5,0x1b
 1d2:	6564                	ld	s1,200(a0)
 1d4:	3d6c                	.2byte	0x3d6c
 1d6:	656d                	lui	a0,0x1b
 1d8:	6164                	ld	s1,192(a0)
 1da:	796e                	ld	s2,248(sp)
 1dc:	2d20                	.2byte	0x2d20
 1de:	616d                	addi	sp,sp,240
 1e0:	6962                	ld	s2,24(sp)
 1e2:	6c3d                	lui	s8,0xf
 1e4:	3670                	.2byte	0x3670
 1e6:	2034                	.2byte	0x2034
 1e8:	6d2d                	lui	s10,0xb
 1ea:	7574                	ld	a3,232(a0)
 1ec:	656e                	ld	a0,216(sp)
 1ee:	723d                	lui	tp,0xfffef
 1f0:	656b636f          	jal	t1,b6846 <_prog_start-0x7ff497ba>
 1f4:	2074                	.2byte	0x2074
 1f6:	6d2d                	lui	s10,0xb
 1f8:	7369                	lui	t1,0xffffa
 1fa:	2d61                	addiw	s10,s10,24 # b018 <_prog_start-0x7fff4fe8>
 1fc:	63657073          	csrci	0x636,10
 200:	323d                	addiw	tp,tp,-17 # fffffffffffeefef <out+0xffffffff7ffccfdf>
 202:	322e                	.2byte	0x322e
 204:	2d20                	.2byte	0x2d20
 206:	616d                	addi	sp,sp,240
 208:	6372                	ld	t1,280(sp)
 20a:	3d68                	.2byte	0x3d68
 20c:	7672                	ld	a2,312(sp)
 20e:	3436                	.2byte	0x3436
 210:	6d69                	lui	s10,0x1a
 212:	6361                	lui	t1,0x18
 214:	2d20                	.2byte	0x2d20
 216:	4f2d2067          	.4byte	0x4f2d2067
 21a:	2030                	.2byte	0x2030
 21c:	732d                	lui	t1,0xfffeb
 21e:	6474                	ld	a3,200(s0)
 220:	673d                	lui	a4,0xf
 222:	756e                	ld	a0,248(sp)
 224:	3131                	addiw	sp,sp,-20
 226:	2d20                	.2byte	0x2d20
 228:	6e66                	ld	t3,88(sp)
 22a:	6f632d6f          	jal	s10,32920 <_prog_start-0x7ffcd6e0>
 22e:	6d6d                	lui	s10,0x1b
 230:	64006e6f          	jal	t3,6870 <_prog_start-0x7fff9790>
 234:	0074756f          	jal	a0,47a3a <_prog_start-0x7ffb85c6>
 238:	616d                	addi	sp,sp,240
 23a:	5f74                	lw	a3,124(a4)
 23c:	0074                	addi	a3,sp,12
 23e:	7566                	ld	a0,120(sp)
 240:	636e                	ld	t1,216(sp)
 242:	0074                	addi	a3,sp,12
 244:	6964                	ld	s1,208(a0)
 246:	306e                	.2byte	0x306e
 248:	5f00                	lw	s0,56(a4)
 24a:	755f 6e69 3874      	.byte	0x5f, 0x75, 0x69, 0x6e, 0x74, 0x38
 250:	745f 7400 7268      	.byte	0x5f, 0x74, 0x00, 0x74, 0x68, 0x72
 256:	6165                	addi	sp,sp,112
 258:	5f64                	lw	s1,124(a4)
 25a:	6972                	ld	s2,280(sp)
 25c:	7864                	ld	s1,240(s0)
 25e:	6400                	ld	s0,8(s0)
 260:	6e69                	lui	t3,0x1a
 262:	0041                	c.nop	16
 264:	6964                	ld	s1,208(a0)
 266:	426e                	lw	tp,216(sp)
 268:	6c00                	ld	s0,24(s0)
 26a:	20676e6f          	jal	t3,76470 <_prog_start-0x7ff89b90>
 26e:	6f6c                	ld	a1,216(a4)
 270:	676e                	ld	a4,216(sp)
 272:	7520                	ld	s0,104(a0)
 274:	736e                	ld	t1,248(sp)
 276:	6769                	lui	a4,0x1a
 278:	656e                	ld	a0,216(sp)
 27a:	2064                	.2byte	0x2064
 27c:	6e69                	lui	t3,0x1a
 27e:	0074                	addi	a3,sp,12
 280:	61727473          	csrrci	s0,0x617,4
 284:	6e657373          	csrrci	t1,0x6e6,10
 288:	6d5f 6c75 6c00      	.byte	0x5f, 0x6d, 0x75, 0x6c, 0x00, 0x6c
 28e:	20676e6f          	jal	t3,76494 <_prog_start-0x7ff89b6c>
 292:	6f6c                	ld	a1,216(a4)
 294:	676e                	ld	a4,216(sp)
 296:	6920                	ld	s0,80(a0)
 298:	746e                	ld	s0,248(sp)
 29a:	6d00                	ld	s0,24(a0)
 29c:	7875                	lui	a6,0xffffd
 29e:	755f 6c6e 636f      	.byte	0x5f, 0x75, 0x6e, 0x6c, 0x6f, 0x63
 2a4:	756d006b          	.4byte	0x756d006b
 2a8:	5f78                	lw	a4,124(a4)
 2aa:	6f6c                	ld	a1,216(a4)
 2ac:	72006b63          	bltu	zero,zero,9e2 <_prog_start-0x7ffff61e>
 2b0:	6165                	addi	sp,sp,112
 2b2:	5f64                	lw	s1,124(a4)
 2b4:	6c66                	ld	s8,88(sp)
 2b6:	6761                	lui	a4,0x18
 2b8:	0030                	addi	a2,sp,8
 2ba:	616d                	addi	sp,sp,240
 2bc:	4f74                	lw	a3,92(a4)
 2be:	7475                	lui	s0,0xffffd
 2c0:	6700                	ld	s0,8(a4)
 2c2:	7465                	lui	s0,0xffff9
 2c4:	685f 7261 6974      	.byte	0x5f, 0x68, 0x61, 0x72, 0x74, 0x69
 2ca:	0064                	addi	s1,sp,12
 2cc:	65726f63          	bltu	tp,s7,92a <_prog_start-0x7ffff6d6>
 2d0:	0030                	addi	a2,sp,8
 2d2:	65726f63          	bltu	tp,s7,930 <_prog_start-0x7ffff6d0>
 2d6:	0031                	c.nop	12
 2d8:	65726f63          	bltu	tp,s7,936 <_prog_start-0x7ffff6ca>
 2dc:	0032                	c.slli	zero,0xc
 2de:	65726f63          	bltu	tp,s7,93c <_prog_start-0x7ffff6c4>
 2e2:	6f630033          	.4byte	0x6f630033
 2e6:	6572                	ld	a0,280(sp)
 2e8:	0034                	addi	a3,sp,8
 2ea:	65726f63          	bltu	tp,s7,948 <_prog_start-0x7ffff6b8>
 2ee:	0035                	c.nop	13
 2f0:	65726f63          	bltu	tp,s7,94e <_prog_start-0x7ffff6b2>
 2f4:	0036                	c.slli	zero,0xd
 2f6:	65726f63          	bltu	tp,s7,954 <_prog_start-0x7ffff6ac>
 2fa:	5f5f0037          	lui	zero,0x5f5f0
 2fe:	6d74                	ld	a3,216(a0)
 300:	0070                	addi	a2,sp,12
 302:	7374                	ld	a3,224(a4)
 304:	675f 7061 6d00      	.byte	0x5f, 0x67, 0x61, 0x70, 0x00, 0x6d
 30a:	7461                	lui	s0,0xffff8
 30c:	0041                	c.nop	16
 30e:	616d                	addi	sp,sp,240
 310:	4274                	lw	a3,68(a2)
 312:	6d00                	ld	s0,24(a0)
 314:	7461                	lui	s0,0xffff8
 316:	68740043          	.4byte	0x68740043
 31a:	6572                	ld	a0,280(sp)
 31c:	6461                	lui	s0,0x18
 31e:	635f 746e 7400      	.byte	0x5f, 0x63, 0x6e, 0x74, 0x00, 0x74
 324:	735f 6174 7472      	.byte	0x5f, 0x73, 0x74, 0x61, 0x72, 0x74
 32a:	6c00                	ld	s0,24(s0)
 32c:	20676e6f          	jal	t3,76532 <_prog_start-0x7ff89ace>
 330:	6f64                	ld	s1,216(a4)
 332:	6275                	lui	tp,0x1d
 334:	656c                	ld	a1,200(a0)
 336:	7400                	ld	s0,40(s0)
 338:	7268                	ld	a0,224(a2)
 33a:	6165                	addi	sp,sp,112
 33c:	5f64                	lw	s1,124(a4)
 33e:	78646977          	.4byte	0x78646977
 342:	7200                	ld	s0,32(a2)
 344:	6165                	addi	sp,sp,112
 346:	5f64                	lw	s1,124(a4)
 348:	6c66                	ld	s8,88(sp)
 34a:	6761                	lui	a4,0x18
 34c:	0031                	c.nop	12
 34e:	6572                	ld	a0,280(sp)
 350:	6461                	lui	s0,0x18
 352:	665f 616c 3267      	.byte	0x5f, 0x66, 0x6c, 0x61, 0x67, 0x32
 358:	7200                	ld	s0,32(a2)
 35a:	6165                	addi	sp,sp,112
 35c:	5f64                	lw	s1,124(a4)
 35e:	6c66                	ld	s8,88(sp)
 360:	6761                	lui	a4,0x18
 362:	616d0033          	.4byte	0x616d0033
 366:	4d74                	lw	a3,92(a0)
 368:	6c75                	lui	s8,0x1d
 36a:	7400                	ld	s0,40(s0)
 36c:	7268                	ld	a0,224(a2)
 36e:	6165                	addi	sp,sp,112
 370:	5f64                	lw	s1,124(a4)
 372:	7572                	ld	a0,312(sp)
 374:	006e                	c.slli	zero,0x1b
 376:	5f5f 6975 746e      	.byte	0x5f, 0x5f, 0x75, 0x69, 0x6e, 0x74
 37c:	3436                	.2byte	0x3436
 37e:	745f 7400 655f      	.byte	0x5f, 0x74, 0x00, 0x74, 0x5f, 0x65
 384:	646e                	ld	s0,216(sp)
 386:	7400                	ld	s0,40(s0)
 388:	5f6d                	li	t5,-5
 38a:	00706167          	.4byte	0x706167
 38e:	745f 7268 6165      	.byte	0x5f, 0x74, 0x68, 0x72, 0x65, 0x61
 394:	3064                	.2byte	0x3064
 396:	655f 746e 7972      	.byte	0x5f, 0x65, 0x6e, 0x74, 0x72, 0x79
 39c:	6400                	ld	s0,8(s0)
 39e:	6e69                	lui	t3,0x1a
 3a0:	0031                	c.nop	12
 3a2:	736d                	lui	t1,0xffffb
 3a4:	7069                	c.lui	zero,0xffffa
 3a6:	7400                	ld	s0,40(s0)
 3a8:	7268                	ld	a0,224(a2)
 3aa:	6165                	addi	sp,sp,112
 3ac:	5f64                	lw	s1,124(a4)
 3ae:	61657263          	bgeu	a0,s6,9b2 <_prog_start-0x7ffff64e>
 3b2:	6574                	ld	a3,200(a0)
 3b4:	7400                	ld	s0,40(s0)
 3b6:	7268                	ld	a0,224(a2)
 3b8:	6165                	addi	sp,sp,112
 3ba:	5f64                	lw	s1,124(a4)
 3bc:	6e69                	lui	t3,0x1a
 3be:	7469                	lui	s0,0xffffa
 3c0:	7400                	ld	s0,40(s0)
 3c2:	7268                	ld	a0,224(a2)
 3c4:	6165                	addi	sp,sp,112
 3c6:	5f64                	lw	s1,124(a4)
 3c8:	6f6a                	ld	t5,152(sp)
 3ca:	6e69                	lui	t3,0x1a
 3cc:	7400                	ld	s0,40(s0)
 3ce:	7268                	ld	a0,224(a2)
 3d0:	6165                	addi	sp,sp,112
 3d2:	5f64                	lw	s1,124(a4)
 3d4:	7571                	lui	a0,0xffffc
 3d6:	7565                	lui	a0,0xffff9
 3d8:	0065                	c.nop	25
 3da:	7261                	lui	tp,0xffff8
 3dc:	64007667          	.4byte	0x64007667
 3e0:	6d75                	lui	s10,0x1d
 3e2:	0070                	addi	a2,sp,12
 3e4:	6874                	ld	a3,208(s0)
 3e6:	6572                	ld	a0,280(sp)
 3e8:	6461                	lui	s0,0x18
 3ea:	635f 756f 746e      	.byte	0x5f, 0x63, 0x6f, 0x75, 0x6e, 0x74
 3f0:	6d00                	ld	s0,24(a0)
 3f2:	6961                	lui	s2,0x18
 3f4:	006e                	c.slli	zero,0x1b
 3f6:	61727473          	csrrci	s0,0x617,4
 3fa:	6e657373          	csrrci	t1,0x6e6,10
 3fe:	615f 6464 6300      	.byte	0x5f, 0x61, 0x64, 0x64, 0x00, 0x63
 404:	5f65726f          	jal	tp,579fa <_prog_start-0x7ffa8606>
 408:	74617473          	csrrci	s0,0x746,2
 40c:	7375                	lui	t1,0xffffd
	...

Disassembly of section .debug_frame:

0000000000000000 <.debug_frame>:
   0:	000c                	.2byte	0xc
   2:	0000                	unimp
   4:	ffff                	.2byte	0xffff
   6:	ffff                	.2byte	0xffff
   8:	7c010003          	lb	zero,1984(sp)
   c:	0d01                	addi	s10,s10,0 # 1d000 <_prog_start-0x7ffe3000>
   e:	0002                	c.slli64	zero
  10:	002c                	addi	a1,sp,8
  12:	0000                	unimp
  14:	0000                	unimp
  16:	0000                	unimp
  18:	03bc                	addi	a5,sp,456
  1a:	8000                	.2byte	0x8000
  1c:	0000                	unimp
  1e:	0000                	unimp
  20:	003e                	c.slli	zero,0xf
  22:	0000                	unimp
  24:	0000                	unimp
  26:	0000                	unimp
  28:	0e42                	slli	t3,t3,0x10
  2a:	4230                	lw	a2,64(a2)
  2c:	0288                	addi	a0,sp,320
  2e:	0c42                	slli	s8,s8,0x10
  30:	0008                	.2byte	0x8
  32:	c874                	sw	a3,84(s0)
  34:	020c                	addi	a1,sp,256
  36:	4230                	lw	a2,64(a2)
  38:	000e                	c.slli	zero,0x3
  3a:	0000                	unimp
  3c:	0000                	unimp
  3e:	0000                	unimp
  40:	002c                	addi	a1,sp,8
  42:	0000                	unimp
  44:	0000                	unimp
  46:	0000                	unimp
  48:	03fa                	slli	t2,t2,0x1e
  4a:	8000                	.2byte	0x8000
  4c:	0000                	unimp
  4e:	0000                	unimp
  50:	0044                	addi	s1,sp,4
  52:	0000                	unimp
  54:	0000                	unimp
  56:	0000                	unimp
  58:	0e42                	slli	t3,t3,0x10
  5a:	4430                	lw	a2,72(s0)
  5c:	0281                	addi	t0,t0,0
  5e:	0488                	addi	a0,sp,576
  60:	0c42                	slli	s8,s8,0x10
  62:	0008                	.2byte	0x8
  64:	c176                	sw	t4,128(sp)
  66:	c842                	sw	a6,16(sp)
  68:	020c                	addi	a1,sp,256
  6a:	4230                	lw	a2,64(a2)
  6c:	000e                	c.slli	zero,0x3
  6e:	0000                	unimp
  70:	002c                	addi	a1,sp,8
  72:	0000                	unimp
  74:	0000                	unimp
  76:	0000                	unimp
  78:	043e                	slli	s0,s0,0xf
  7a:	8000                	.2byte	0x8000
  7c:	0000                	unimp
  7e:	0000                	unimp
  80:	002a                	c.slli	zero,0xa
  82:	0000                	unimp
  84:	0000                	unimp
  86:	0000                	unimp
  88:	0e42                	slli	t3,t3,0x10
  8a:	4420                	lw	s0,72(s0)
  8c:	0281                	addi	t0,t0,0
  8e:	0488                	addi	a0,sp,576
  90:	0c42                	slli	s8,s8,0x10
  92:	0008                	.2byte	0x8
  94:	c15c                	sw	a5,4(a0)
  96:	c842                	sw	a6,16(sp)
  98:	020c                	addi	a1,sp,256
  9a:	4220                	lw	s0,64(a2)
  9c:	000e                	c.slli	zero,0x3
  9e:	0000                	unimp
  a0:	0034                	addi	a3,sp,8
  a2:	0000                	unimp
  a4:	0000                	unimp
  a6:	0000                	unimp
  a8:	0468                	addi	a0,sp,524
  aa:	8000                	.2byte	0x8000
  ac:	0000                	unimp
  ae:	0000                	unimp
  b0:	02b0                	addi	a2,sp,328
  b2:	0000                	unimp
  b4:	0000                	unimp
  b6:	0000                	unimp
  b8:	0e42                	slli	t3,t3,0x10
  ba:	01f0                	addi	a2,sp,204
  bc:	8144                	.2byte	0x8144
  be:	8812                	mv	a6,tp
  c0:	4214                	lw	a3,0(a2)
  c2:	080c                	addi	a1,sp,16
  c4:	0340                	addi	s0,sp,388
  c6:	02a2                	slli	t0,t0,0x8
  c8:	42c1                	li	t0,16
  ca:	0cc8                	addi	a0,sp,596
  cc:	f002                	sd	zero,32(sp)
  ce:	4201                	li	tp,0
  d0:	000e                	c.slli	zero,0x3
  d2:	0000                	unimp
  d4:	0000                	unimp
  d6:	0000                	unimp
  d8:	000c                	.2byte	0xc
  da:	0000                	unimp
  dc:	ffff                	.2byte	0xffff
  de:	ffff                	.2byte	0xffff
  e0:	7c010003          	lb	zero,1984(sp)
  e4:	0d01                	addi	s10,s10,0
  e6:	0002                	c.slli64	zero
  e8:	002c                	addi	a1,sp,8
  ea:	0000                	unimp
  ec:	00d8                	addi	a4,sp,68
  ee:	0000                	unimp
  f0:	0718                	addi	a4,sp,896
  f2:	8000                	.2byte	0x8000
  f4:	0000                	unimp
  f6:	0000                	unimp
  f8:	0076                	c.slli	zero,0x1d
  fa:	0000                	unimp
  fc:	0000                	unimp
  fe:	0000                	unimp
 100:	0e42                	slli	t3,t3,0x10
 102:	4420                	lw	s0,72(s0)
 104:	0281                	addi	t0,t0,0
 106:	0488                	addi	a0,sp,576
 108:	0c42                	slli	s8,s8,0x10
 10a:	0008                	.2byte	0x8
 10c:	6802                	ld	a6,0(sp)
 10e:	42c1                	li	t0,16
 110:	0cc8                	addi	a0,sp,596
 112:	2002                	.2byte	0x2002
 114:	0e42                	slli	t3,t3,0x10
 116:	0000                	unimp
 118:	002c                	addi	a1,sp,8
 11a:	0000                	unimp
 11c:	00d8                	addi	a4,sp,68
 11e:	0000                	unimp
 120:	078e                	slli	a5,a5,0x3
 122:	8000                	.2byte	0x8000
 124:	0000                	unimp
 126:	0000                	unimp
 128:	010a                	slli	sp,sp,0x2
 12a:	0000                	unimp
 12c:	0000                	unimp
 12e:	0000                	unimp
 130:	0e42                	slli	t3,t3,0x10
 132:	4430                	lw	a2,72(s0)
 134:	0281                	addi	t0,t0,0
 136:	0488                	addi	a0,sp,576
 138:	0c42                	slli	s8,s8,0x10
 13a:	0008                	.2byte	0x8
 13c:	c100fc03          	.4byte	0xc100fc03
 140:	c842                	sw	a6,16(sp)
 142:	020c                	addi	a1,sp,256
 144:	4230                	lw	a2,64(a2)
 146:	000e                	c.slli	zero,0x3
 148:	002c                	addi	a1,sp,8
 14a:	0000                	unimp
 14c:	00d8                	addi	a4,sp,68
 14e:	0000                	unimp
 150:	0898                	addi	a4,sp,80
 152:	8000                	.2byte	0x8000
 154:	0000                	unimp
 156:	0000                	unimp
 158:	0170                	addi	a2,sp,140
 15a:	0000                	unimp
 15c:	0000                	unimp
 15e:	0000                	unimp
 160:	0e42                	slli	t3,t3,0x10
 162:	4430                	lw	a2,72(s0)
 164:	0281                	addi	t0,t0,0
 166:	0488                	addi	a0,sp,576
 168:	0c42                	slli	s8,s8,0x10
 16a:	0008                	.2byte	0x8
 16c:	c1016203          	lwu	tp,-1008(sp)
 170:	c842                	sw	a6,16(sp)
 172:	020c                	addi	a1,sp,256
 174:	4230                	lw	a2,64(a2)
 176:	000e                	c.slli	zero,0x3
 178:	002c                	addi	a1,sp,8
 17a:	0000                	unimp
 17c:	00d8                	addi	a4,sp,68
 17e:	0000                	unimp
 180:	0a08                	addi	a0,sp,272
 182:	8000                	.2byte	0x8000
 184:	0000                	unimp
 186:	0000                	unimp
 188:	0072                	c.slli	zero,0x1c
 18a:	0000                	unimp
 18c:	0000                	unimp
 18e:	0000                	unimp
 190:	0e42                	slli	t3,t3,0x10
 192:	4420                	lw	s0,72(s0)
 194:	0281                	addi	t0,t0,0
 196:	0488                	addi	a0,sp,576
 198:	0c42                	slli	s8,s8,0x10
 19a:	0008                	.2byte	0x8
 19c:	6402                	ld	s0,0(sp)
 19e:	42c1                	li	t0,16
 1a0:	0cc8                	addi	a0,sp,596
 1a2:	2002                	.2byte	0x2002
 1a4:	0e42                	slli	t3,t3,0x10
 1a6:	0000                	unimp
 1a8:	0034                	addi	a3,sp,8
 1aa:	0000                	unimp
 1ac:	00d8                	addi	a4,sp,68
 1ae:	0000                	unimp
 1b0:	0a7a                	slli	s4,s4,0x1e
 1b2:	8000                	.2byte	0x8000
 1b4:	0000                	unimp
 1b6:	0000                	unimp
 1b8:	025a                	slli	tp,tp,0x16
 1ba:	0000                	unimp
 1bc:	0000                	unimp
 1be:	0000                	unimp
 1c0:	0e42                	slli	t3,t3,0x10
 1c2:	4450                	lw	a2,12(s0)
 1c4:	0281                	addi	t0,t0,0
 1c6:	0488                	addi	a0,sp,576
 1c8:	0c42                	slli	s8,s8,0x10
 1ca:	0008                	.2byte	0x8
 1cc:	0c024a03          	lbu	s4,192(tp) # ffffffffffff80c0 <out+0xffffffff7ffd60b0>
 1d0:	5002                	.2byte	0x5002
 1d2:	c142                	sw	a6,128(sp)
 1d4:	c842                	sw	a6,16(sp)
 1d6:	0e42                	slli	t3,t3,0x10
	...
 1e0:	002c                	addi	a1,sp,8
 1e2:	0000                	unimp
 1e4:	00d8                	addi	a4,sp,68
 1e6:	0000                	unimp
 1e8:	0cd4                	addi	a3,sp,596
 1ea:	8000                	.2byte	0x8000
 1ec:	0000                	unimp
 1ee:	0000                	unimp
 1f0:	0240                	addi	s0,sp,260
 1f2:	0000                	unimp
 1f4:	0000                	unimp
 1f6:	0000                	unimp
 1f8:	0e44                	addi	s1,sp,788
 1fa:	0ff0                	addi	a2,sp,988
 1fc:	8844                	.2byte	0x8844
 1fe:	4402                	lw	s0,0(sp)
 200:	080c                	addi	a1,sp,16
 202:	0300                	addi	s0,sp,384
 204:	022a                	slli	tp,tp,0xa
 206:	020c                	addi	a1,sp,256
 208:	0ff0                	addi	a2,sp,988
 20a:	c844                	sw	s1,20(s0)
 20c:	0e44                	addi	s1,sp,788
 20e:	0000                	unimp
 210:	002c                	addi	a1,sp,8
 212:	0000                	unimp
 214:	00d8                	addi	a4,sp,68
 216:	0000                	unimp
 218:	0f14                	addi	a3,sp,912
 21a:	8000                	.2byte	0x8000
 21c:	0000                	unimp
 21e:	0000                	unimp
 220:	020e                	slli	tp,tp,0x3
 222:	0000                	unimp
 224:	0000                	unimp
 226:	0000                	unimp
 228:	0e44                	addi	s1,sp,788
 22a:	0ff0                	addi	a2,sp,988
 22c:	8844                	.2byte	0x8844
 22e:	4402                	lw	s0,0(sp)
 230:	080c                	addi	a1,sp,16
 232:	0300                	addi	s0,sp,384
 234:	01f8                	addi	a4,sp,204
 236:	020c                	addi	a1,sp,256
 238:	0ff0                	addi	a2,sp,988
 23a:	c844                	sw	s1,20(s0)
 23c:	0e44                	addi	s1,sp,788
 23e:	0000                	unimp
 240:	0034                	addi	a3,sp,8
 242:	0000                	unimp
 244:	00d8                	addi	a4,sp,68
 246:	0000                	unimp
 248:	1122                	slli	sp,sp,0x28
 24a:	8000                	.2byte	0x8000
 24c:	0000                	unimp
 24e:	0000                	unimp
 250:	091e                	slli	s2,s2,0x7
 252:	0000                	unimp
 254:	0000                	unimp
 256:	0000                	unimp
 258:	0e42                	slli	t3,t3,0x10
 25a:	01d0                	addi	a2,sp,196
 25c:	8144                	.2byte	0x8144
 25e:	8802                	jr	a6
 260:	4204                	lw	s1,0(a2)
 262:	080c                	addi	a1,sp,16
 264:	0300                	addi	s0,sp,384
 266:	090e                	slli	s2,s2,0x3
 268:	020c                	addi	a1,sp,256
 26a:	01d0                	addi	a2,sp,196
 26c:	c142                	sw	a6,128(sp)
 26e:	c842                	sw	a6,16(sp)
 270:	0e42                	slli	t3,t3,0x10
 272:	0000                	unimp
 274:	0000                	unimp
	...
