
/home/binhkieudo/Workspace/PhDThesis/NewFramework/framework/software/MatMul_Strassen/build/main.elf:     file format elf64-littleriscv


Disassembly of section .text:

0000000080000000 <_prog_start>:
  .option norvc
  .globl _thread0_entry
  .globl _prog_start

_prog_start:
  li a0, THREAD_QUEUE_ADDR
    80000000:	0090051b          	addiw	a0,zero,9
    80000004:	01c51513          	slli	a0,a0,0x1c
  li t0, 0
    80000008:	00000293          	li	t0,0
  amoswap.w t0, t0, (a0)
    8000000c:	085522af          	amoswap.w	t0,t0,(a0)
  csrr s0, mhartid
    80000010:	f1402473          	csrr	s0,mhartid
  csrw mie, zero
    80000014:	30401073          	csrw	mie,zero
  beq s0, zero, _main
    80000018:	22040063          	beqz	s0,80000238 <_main>

000000008000001c <_thread_end>:
_thread_end:
  csrr s0, mhartid
    8000001c:	f1402473          	csrr	s0,mhartid

0000000080000020 <__clear_flag1>:
  // Ensure that you the interrupt flag is clear before sleep
# __clear_flag0: // Core 0 does not enter this way
#   li t0, 0
#   bne s0, t0, __clear_flag1
__clear_flag1:
  li t0, 1
    80000020:	00100293          	li	t0,1
  bne s0, t0, __clear_flag2
    80000024:	00541a63          	bne	s0,t0,80000038 <__clear_flag2>
  li s0, (CLINT_CTRL_ADDR + CLINT_MSIP1)
    80000028:	02000437          	lui	s0,0x2000
    8000002c:	0044041b          	addiw	s0,s0,4 # 2000004 <_prog_start-0x7dfffffc>
  amoswap.w t0, zero, (s0)
    80000030:	080422af          	amoswap.w	t0,zero,(s0)
  j __core_sleep
    80000034:	0880006f          	j	800000bc <__core_sleep>

0000000080000038 <__clear_flag2>:
__clear_flag2:
  li t0, 2
    80000038:	00200293          	li	t0,2
  bne s0, t0, __clear_flag3
    8000003c:	00541a63          	bne	s0,t0,80000050 <__clear_flag3>
  li s0, (CLINT_CTRL_ADDR + CLINT_MSIP2)
    80000040:	02000437          	lui	s0,0x2000
    80000044:	0084041b          	addiw	s0,s0,8 # 2000008 <_prog_start-0x7dfffff8>
  amoswap.w t0, zero, (s0)
    80000048:	080422af          	amoswap.w	t0,zero,(s0)
  j __core_sleep
    8000004c:	0700006f          	j	800000bc <__core_sleep>

0000000080000050 <__clear_flag3>:
__clear_flag3:
  li t0, 3
    80000050:	00300293          	li	t0,3
  bne s0, t0, __clear_flag4
    80000054:	00541a63          	bne	s0,t0,80000068 <__clear_flag4>
  li s0, (CLINT_CTRL_ADDR + CLINT_MSIP3)
    80000058:	02000437          	lui	s0,0x2000
    8000005c:	00c4041b          	addiw	s0,s0,12 # 200000c <_prog_start-0x7dfffff4>
  amoswap.w t0, zero, (s0)
    80000060:	080422af          	amoswap.w	t0,zero,(s0)
  j __core_sleep
    80000064:	0580006f          	j	800000bc <__core_sleep>

0000000080000068 <__clear_flag4>:
__clear_flag4:
  li t0, 4
    80000068:	00400293          	li	t0,4
  bne s0, t0, __clear_flag5
    8000006c:	00541a63          	bne	s0,t0,80000080 <__clear_flag5>
  li s0, (CLINT_CTRL_ADDR + CLINT_MSIP4)
    80000070:	02000437          	lui	s0,0x2000
    80000074:	0104041b          	addiw	s0,s0,16 # 2000010 <_prog_start-0x7dfffff0>
  amoswap.w t0, zero, (s0)
    80000078:	080422af          	amoswap.w	t0,zero,(s0)
  j __core_sleep
    8000007c:	0400006f          	j	800000bc <__core_sleep>

0000000080000080 <__clear_flag5>:
__clear_flag5:
  li t0, 5
    80000080:	00500293          	li	t0,5
  bne s0, t0, __clear_flag6
    80000084:	00541a63          	bne	s0,t0,80000098 <__clear_flag6>
  li s0, (CLINT_CTRL_ADDR + CLINT_MSIP5)
    80000088:	02000437          	lui	s0,0x2000
    8000008c:	0144041b          	addiw	s0,s0,20 # 2000014 <_prog_start-0x7dffffec>
  amoswap.w t0, zero, (s0)
    80000090:	080422af          	amoswap.w	t0,zero,(s0)
  j __core_sleep
    80000094:	0280006f          	j	800000bc <__core_sleep>

0000000080000098 <__clear_flag6>:
__clear_flag6:
  li t0, 6
    80000098:	00600293          	li	t0,6
  bne s0, t0, __clear_flag7
    8000009c:	00541a63          	bne	s0,t0,800000b0 <__clear_flag7>
  li s0, (CLINT_CTRL_ADDR + CLINT_MSIP6)
    800000a0:	02000437          	lui	s0,0x2000
    800000a4:	0184041b          	addiw	s0,s0,24 # 2000018 <_prog_start-0x7dffffe8>
  amoswap.w t0, zero, (s0)
    800000a8:	080422af          	amoswap.w	t0,zero,(s0)
  j __core_sleep
    800000ac:	0100006f          	j	800000bc <__core_sleep>

00000000800000b0 <__clear_flag7>:
__clear_flag7:
  li s0, (CLINT_CTRL_ADDR + CLINT_MSIP7)
    800000b0:	02000437          	lui	s0,0x2000
    800000b4:	01c4041b          	addiw	s0,s0,28 # 200001c <_prog_start-0x7dffffe4>
  amoswap.w t0, zero, (s0)
    800000b8:	080422af          	amoswap.w	t0,zero,(s0)

00000000800000bc <__core_sleep>:
__core_sleep:
  li s2, 0x8 // Enable interrupt
    800000bc:	00800913          	li	s2,8
  csrw mie, s2
    800000c0:	30491073          	csrw	mie,s2
  wfi
    800000c4:	10500073          	wfi
  csrw mie, zero // Disable interrupt
    800000c8:	30401073          	csrw	mie,zero
  call _thread_entry
    800000cc:	144000ef          	jal	ra,80000210 <_thread_entry>
  j _thread_end
    800000d0:	f4dff06f          	j	8000001c <_thread_end>

00000000800000d4 <_thread0_entry>:
_thread0_entry: // Thread 0 must store activation table first
  // a0 store address link
  csrw mie, zero
    800000d4:	30401073          	csrw	mie,zero
  addi sp, sp, -248
    800000d8:	f0810113          	addi	sp,sp,-248
  sd ra, 0(sp)
    800000dc:	00113023          	sd	ra,0(sp)
  sd sp, 8(sp)
    800000e0:	00213423          	sd	sp,8(sp)
  sd gp, 16(sp)
    800000e4:	00313823          	sd	gp,16(sp)
  sd tp, 24(sp)
    800000e8:	00413c23          	sd	tp,24(sp)
  sd t0, 32(sp)
    800000ec:	02513023          	sd	t0,32(sp)
  sd t1, 40(sp)
    800000f0:	02613423          	sd	t1,40(sp)
  sd t2, 48(sp)
    800000f4:	02713823          	sd	t2,48(sp)
  sd s0, 56(sp)
    800000f8:	02813c23          	sd	s0,56(sp)
  sd s1, 64(sp)
    800000fc:	04913023          	sd	s1,64(sp)
  sd a0, 72(sp)
    80000100:	04a13423          	sd	a0,72(sp)
  sd a1, 80(sp)
    80000104:	04b13823          	sd	a1,80(sp)
  sd a2, 88(sp)
    80000108:	04c13c23          	sd	a2,88(sp)
  sd a3, 96(sp)
    8000010c:	06d13023          	sd	a3,96(sp)
  sd a4, 104(sp)
    80000110:	06e13423          	sd	a4,104(sp)
  sd a5, 112(sp)
    80000114:	06f13823          	sd	a5,112(sp)
  sd a6, 120(sp)
    80000118:	07013c23          	sd	a6,120(sp)
  sd a7, 128(sp)
    8000011c:	09113023          	sd	a7,128(sp)
  sd s2, 136(sp)
    80000120:	09213423          	sd	s2,136(sp)
  sd s3, 144(sp)
    80000124:	09313823          	sd	s3,144(sp)
  sd s4, 152(sp)
    80000128:	09413c23          	sd	s4,152(sp)
  sd s5, 160(sp)
    8000012c:	0b513023          	sd	s5,160(sp)
  sd s6, 168(sp)
    80000130:	0b613423          	sd	s6,168(sp)
  sd s7, 176(sp)
    80000134:	0b713823          	sd	s7,176(sp)
  sd s8, 184(sp)
    80000138:	0b813c23          	sd	s8,184(sp)
  sd s9, 192(sp)
    8000013c:	0d913023          	sd	s9,192(sp)
  sd s10, 200(sp)
    80000140:	0da13423          	sd	s10,200(sp)
  sd s11, 208(sp)
    80000144:	0db13823          	sd	s11,208(sp)
  sd t3, 216(sp)
    80000148:	0dc13c23          	sd	t3,216(sp)
  sd t4, 224(sp)
    8000014c:	0fd13023          	sd	t4,224(sp)
  sd t5, 232(sp)
    80000150:	0fe13423          	sd	t5,232(sp)
  sd t6, 240(sp)
    80000154:	0ff13823          	sd	t6,240(sp)
  // Then store sp at first address of private memory
  li t0, (PRIVATE_MEM_0 + PRIVATE_MEM_SIZE - 16)
    80000158:	400082b7          	lui	t0,0x40008
    8000015c:	ff02829b          	addiw	t0,t0,-16 # 40007ff0 <_prog_start-0x3fff8010>
  sd sp, 0(t0)
    80000160:	0022b023          	sd	sp,0(t0)
  li sp, (PRIVATE_MEM_0 + PRIVATE_MEM_SIZE - 32)
    80000164:	40008137          	lui	sp,0x40008
    80000168:	fe01011b          	addiw	sp,sp,-32 # 40007fe0 <_prog_start-0x3fff8020>
  call thread_run
    8000016c:	72c000ef          	jal	ra,80000898 <thread_run>
  // Cleaf flag
  li s0, (CLINT_CTRL_ADDR + CLINT_MSIP0)
    80000170:	02000437          	lui	s0,0x2000
  amoswap.w t0, zero, (s0)
    80000174:	080422af          	amoswap.w	t0,zero,(s0)
  // Enable interrupt
  li s2, 0x8
    80000178:	00800913          	li	s2,8
  csrw mie, s2
    8000017c:	30491073          	csrw	mie,s2
  // After return, restore activate table
  // firstly recover origianl sp
  li t0, (PRIVATE_MEM_0 + PRIVATE_MEM_SIZE - 16)
    80000180:	400082b7          	lui	t0,0x40008
    80000184:	ff02829b          	addiw	t0,t0,-16 # 40007ff0 <_prog_start-0x3fff8010>
  ld sp, 0(t0)
    80000188:	0002b103          	ld	sp,0(t0)
  ld ra, 0(sp)
    8000018c:	00013083          	ld	ra,0(sp)
  ld gp, 16(sp)
    80000190:	01013183          	ld	gp,16(sp)
  ld tp, 24(sp)
    80000194:	01813203          	ld	tp,24(sp)
  ld t0, 32(sp)
    80000198:	02013283          	ld	t0,32(sp)
  ld t1, 40(sp)
    8000019c:	02813303          	ld	t1,40(sp)
  ld t2, 48(sp)
    800001a0:	03013383          	ld	t2,48(sp)
  ld s0, 56(sp)
    800001a4:	03813403          	ld	s0,56(sp)
  ld s1, 64(sp)
    800001a8:	04013483          	ld	s1,64(sp)
  ld a0, 72(sp)
    800001ac:	04813503          	ld	a0,72(sp)
  ld a1, 80(sp)
    800001b0:	05013583          	ld	a1,80(sp)
  ld a2, 88(sp)
    800001b4:	05813603          	ld	a2,88(sp)
  ld a3, 96(sp)
    800001b8:	06013683          	ld	a3,96(sp)
  ld a4, 104(sp)
    800001bc:	06813703          	ld	a4,104(sp)
  ld a5, 112(sp)
    800001c0:	07013783          	ld	a5,112(sp)
  ld a6, 120(sp)
    800001c4:	07813803          	ld	a6,120(sp)
  ld a7, 128(sp)
    800001c8:	08013883          	ld	a7,128(sp)
  ld s2, 136(sp)
    800001cc:	08813903          	ld	s2,136(sp)
  ld s3, 144(sp)
    800001d0:	09013983          	ld	s3,144(sp)
  ld s4, 152(sp)
    800001d4:	09813a03          	ld	s4,152(sp)
  ld s5, 160(sp)
    800001d8:	0a013a83          	ld	s5,160(sp)
  ld s6, 168(sp)
    800001dc:	0a813b03          	ld	s6,168(sp)
  ld s7, 176(sp)
    800001e0:	0b013b83          	ld	s7,176(sp)
  ld s8, 184(sp)
    800001e4:	0b813c03          	ld	s8,184(sp)
  ld s9, 192(sp)
    800001e8:	0c013c83          	ld	s9,192(sp)
  ld s10, 200(sp)
    800001ec:	0c813d03          	ld	s10,200(sp)
  ld s11, 208(sp)
    800001f0:	0d013d83          	ld	s11,208(sp)
  ld t3, 216(sp)
    800001f4:	0d813e03          	ld	t3,216(sp)
  ld t4, 224(sp)
    800001f8:	0e013e83          	ld	t4,224(sp)
  ld t5, 232(sp)
    800001fc:	0e813f03          	ld	t5,232(sp)
  ld t6, 240(sp)
    80000200:	0f013f83          	ld	t6,240(sp)
  ld sp, 8(sp)
    80000204:	00813103          	ld	sp,8(sp)
  addi sp, sp, 248
    80000208:	0f810113          	addi	sp,sp,248
  ret // Return to the main thread
    8000020c:	00008067          	ret

0000000080000210 <_thread_entry>:
_thread_entry: // For other cores
  csrw mie, zero
    80000210:	30401073          	csrw	mie,zero
  csrr a0, mhartid
    80000214:	f1402573          	csrr	a0,mhartid
  li t0, 0x40000000
    80000218:	400002b7          	lui	t0,0x40000
  slli sp, a0, 15
    8000021c:	00f51113          	slli	sp,a0,0xf
  or  sp, sp, t0
    80000220:	00516133          	or	sp,sp,t0
  li t0, 0x7ff0
    80000224:	000082b7          	lui	t0,0x8
    80000228:	ff02829b          	addiw	t0,t0,-16 # 7ff0 <_prog_start-0x7fff8010>
  add sp, sp, t0
    8000022c:	00510133          	add	sp,sp,t0
  call thread_run
    80000230:	668000ef          	jal	ra,80000898 <thread_run>
  j _thread_end
    80000234:	de9ff06f          	j	8000001c <_thread_end>

0000000080000238 <_main>:
_main: // Hart 0
  csrw mie, zero
    80000238:	30401073          	csrw	mie,zero
  csrr a0, mhartid
    8000023c:	f1402573          	csrr	a0,mhartid
  li sp, (MEMORY_MEM_ADDR + 0x7fff0)
    80000240:	00001137          	lui	sp,0x1
    80000244:	0011011b          	addiw	sp,sp,1 # 1001 <_prog_start-0x7fffefff>
    80000248:	01311113          	slli	sp,sp,0x13
    8000024c:	ff010113          	addi	sp,sp,-16
  call main
    80000250:	6d3000ef          	jal	ra,80001122 <main>

0000000080000254 <_loopback>:
_loopback:
  wfi
    80000254:	10500073          	wfi
    80000258:	ffdff06f          	j	80000254 <_loopback>

000000008000025c <mux_lock>:
  .globl read_flag6
  .globl read_flag7

// ====== Lock ====================  
mux_lock:
    addi sp, sp, -24
    8000025c:	fe810113          	addi	sp,sp,-24
    sd  t0, 16(sp)
    80000260:	00513823          	sd	t0,16(sp)
    sd  t1, 8(sp)
    80000264:	00613423          	sd	t1,8(sp)
    sd  a0, 0(sp)    
    80000268:	00a13023          	sd	a0,0(sp)
    li t0, 1
    8000026c:	00100293          	li	t0,1
    li a0, THREAD_QUEUE_ADDR
    80000270:	0090051b          	addiw	a0,zero,9
    80000274:	01c51513          	slli	a0,a0,0x1c

0000000080000278 <_again>:
_again:
    lw t1, 0(a0)   // Check if lock is held
    80000278:	00052303          	lw	t1,0(a0)
    bnez t1, _again  // Retry if held
    8000027c:	fe031ee3          	bnez	t1,80000278 <_again>
    amoswap.w t1, t0, (a0)
    80000280:	0855232f          	amoswap.w	t1,t0,(a0)
    bnez t1, _again  // Retry if held
    80000284:	fe031ae3          	bnez	t1,80000278 <_again>
    ld  t0, 16(sp)
    80000288:	01013283          	ld	t0,16(sp)
    ld  t1, 8(sp)
    8000028c:	00813303          	ld	t1,8(sp)
    ld  a0, 0(sp) 
    80000290:	00013503          	ld	a0,0(sp)
    addi sp, sp, 24
    80000294:	01810113          	addi	sp,sp,24
    ret
    80000298:	00008067          	ret

000000008000029c <mux_unlock>:

// ====== Unlock ==================
mux_unlock:
    addi sp, sp, -16
    8000029c:	ff010113          	addi	sp,sp,-16
    sd  t0, 8(sp)
    800002a0:	00513423          	sd	t0,8(sp)
    sd  t1, 0(sp)
    800002a4:	00613023          	sd	t1,0(sp)
    li t0, 0
    800002a8:	00000293          	li	t0,0
    li a0, THREAD_QUEUE_ADDR
    800002ac:	0090051b          	addiw	a0,zero,9
    800002b0:	01c51513          	slli	a0,a0,0x1c
    lw t1, 0(a0)   // Check if lock is held
    800002b4:	00052303          	lw	t1,0(a0)
    beqz t1, _exit_unlock
    800002b8:	00030463          	beqz	t1,800002c0 <_exit_unlock>
    amoswap.w t0, t0, (a0)
    800002bc:	085522af          	amoswap.w	t0,t0,(a0)

00000000800002c0 <_exit_unlock>:
_exit_unlock:
    ld  t0, 8(sp)
    800002c0:	00813283          	ld	t0,8(sp)
    ld  t1, 0(sp)
    800002c4:	00013303          	ld	t1,0(sp)
    addi sp, sp, 16    
    800002c8:	01010113          	addi	sp,sp,16
    ret
    800002cc:	00008067          	ret

00000000800002d0 <get_hartid>:

// ====== Get hartid ==============
get_hartid:
    csrr a0, mhartid
    800002d0:	f1402573          	csrr	a0,mhartid
    ret
    800002d4:	00008067          	ret

00000000800002d8 <atomic_write>:

// ====== Atomic write ============
atomic_write:
    addi sp, sp, -8
    800002d8:	ff810113          	addi	sp,sp,-8
    sd t0, 0(sp)
    800002dc:	00513023          	sd	t0,0(sp)
    amoswap.w t0, a1, (a0)
    800002e0:	08b522af          	amoswap.w	t0,a1,(a0)
    ld t0, 0(sp)
    800002e4:	00013283          	ld	t0,0(sp)
    addi sp, sp, 8    
    800002e8:	00810113          	addi	sp,sp,8
    ret
    800002ec:	00008067          	ret

00000000800002f0 <sem_wait>:

// ====== Semaphore wait ==========
sem_wait:
    addi sp, sp, -16
    800002f0:	ff010113          	addi	sp,sp,-16
    sd  t0, 8(sp)
    800002f4:	00513423          	sd	t0,8(sp)
    sd  s0, 0(sp)
    800002f8:	00813023          	sd	s0,0(sp)
    amoswap.w t0, zero, (a0) // Clear interrupt flag
    800002fc:	080522af          	amoswap.w	t0,zero,(a0)
    li s0, 0x8 // Enable interrupt
    80000300:	00800413          	li	s0,8
    csrw mie, s0
    80000304:	30441073          	csrw	mie,s0
    wfi
    80000308:	10500073          	wfi
    csrw mie, zero // Disable interrupt
    8000030c:	30401073          	csrw	mie,zero
    amoswap.w t0, zero, (a0) // Clear interrupt flag
    80000310:	080522af          	amoswap.w	t0,zero,(a0)
    ld  t0, 8(sp)
    80000314:	00813283          	ld	t0,8(sp)
    ld  s0, 0(sp)
    80000318:	00013403          	ld	s0,0(sp)
    addi sp, sp, 16
    8000031c:	01010113          	addi	sp,sp,16
    ret
    80000320:	00008067          	ret

0000000080000324 <sem_signal>:

// ====== Semaphore signal ========
sem_signal:
    addi sp, sp, -8
    80000324:	ff810113          	addi	sp,sp,-8
    sd t0, 0(sp)
    80000328:	00513023          	sd	t0,0(sp)
    li t0, 1 // Set interrupt flag of target core
    8000032c:	00100293          	li	t0,1
    amoswap.w t1, t0, (a0)
    80000330:	0855232f          	amoswap.w	t1,t0,(a0)
    ld t0, 0(sp)
    80000334:	00013283          	ld	t0,0(sp)
    addi sp, sp, 8
    80000338:	00810113          	addi	sp,sp,8
    ret
    8000033c:	00008067          	ret

0000000080000340 <read_flag0>:

// ===== Check core status ========
read_flag0:
  li t0, (CLINT_CTRL_ADDR + CLINT_MSIP0)
    80000340:	020002b7          	lui	t0,0x2000
  amoor.w a0, zero, (t0)
    80000344:	4002a52f          	amoor.w	a0,zero,(t0)
  ret
    80000348:	00008067          	ret

000000008000034c <read_flag1>:
read_flag1:
  li t0, (CLINT_CTRL_ADDR + CLINT_MSIP1)
    8000034c:	020002b7          	lui	t0,0x2000
    80000350:	0042829b          	addiw	t0,t0,4 # 2000004 <_prog_start-0x7dfffffc>
  amoor.w a0, zero, (t0)
    80000354:	4002a52f          	amoor.w	a0,zero,(t0)
  ret
    80000358:	00008067          	ret

000000008000035c <read_flag2>:
read_flag2:
  li t0, (CLINT_CTRL_ADDR + CLINT_MSIP2)
    8000035c:	020002b7          	lui	t0,0x2000
    80000360:	0082829b          	addiw	t0,t0,8 # 2000008 <_prog_start-0x7dfffff8>
  amoor.w a0, zero, (t0)
    80000364:	4002a52f          	amoor.w	a0,zero,(t0)
  ret
    80000368:	00008067          	ret

000000008000036c <read_flag3>:
read_flag3:
  li t0, (CLINT_CTRL_ADDR + CLINT_MSIP3)
    8000036c:	020002b7          	lui	t0,0x2000
    80000370:	00c2829b          	addiw	t0,t0,12 # 200000c <_prog_start-0x7dfffff4>
  amoor.w a0, zero, (t0)
    80000374:	4002a52f          	amoor.w	a0,zero,(t0)
  ret
    80000378:	00008067          	ret

000000008000037c <read_flag4>:
read_flag4:
  li t0, (CLINT_CTRL_ADDR + CLINT_MSIP4)
    8000037c:	020002b7          	lui	t0,0x2000
    80000380:	0102829b          	addiw	t0,t0,16 # 2000010 <_prog_start-0x7dfffff0>
  amoor.w a0, zero, (t0)
    80000384:	4002a52f          	amoor.w	a0,zero,(t0)
  ret
    80000388:	00008067          	ret

000000008000038c <read_flag5>:
read_flag5:
  li t0, (CLINT_CTRL_ADDR + CLINT_MSIP5)
    8000038c:	020002b7          	lui	t0,0x2000
    80000390:	0142829b          	addiw	t0,t0,20 # 2000014 <_prog_start-0x7dffffec>
  amoor.w a0, zero, (t0)
    80000394:	4002a52f          	amoor.w	a0,zero,(t0)
  ret
    80000398:	00008067          	ret

000000008000039c <read_flag6>:
read_flag6:
  li t0, (CLINT_CTRL_ADDR + CLINT_MSIP6)
    8000039c:	020002b7          	lui	t0,0x2000
    800003a0:	0182829b          	addiw	t0,t0,24 # 2000018 <_prog_start-0x7dffffe8>
  amoor.w a0, zero, (t0)
    800003a4:	4002a52f          	amoor.w	a0,zero,(t0)
  ret
    800003a8:	00008067          	ret

00000000800003ac <read_flag7>:
read_flag7:
  li t0, (CLINT_CTRL_ADDR + CLINT_MSIP7)
    800003ac:	020002b7          	lui	t0,0x2000
    800003b0:	01c2829b          	addiw	t0,t0,28 # 200001c <_prog_start-0x7dffffe4>
  amoor.w a0, zero, (t0)
    800003b4:	4002a52f          	amoor.w	a0,zero,(t0)
    800003b8:	00008067          	ret

00000000800003bc <kputc>:
  #define UART_CTRL_ADDR _UART_CTRL_ADDR(UART_NUM)
#endif
static volatile uint32_t * const uart = (void *)(UART_CTRL_ADDR);

static inline void kputc(char c)
{
    800003bc:	7179                	addi	sp,sp,-48
    800003be:	f422                	sd	s0,40(sp)
    800003c0:	1800                	addi	s0,sp,48
    800003c2:	87aa                	mv	a5,a0
    800003c4:	fcf40fa3          	sb	a5,-33(s0) # 1ffffdf <_prog_start-0x7e000021>
	volatile uint32_t *tx = &REG32(uart, UART_REG_TXFIFO);
    800003c8:	640007b7          	lui	a5,0x64000
    800003cc:	fef43423          	sd	a5,-24(s0)
#ifdef __riscv_atomic
	int32_t r;
	do {
		__asm__ __volatile__ (
    800003d0:	fe843703          	ld	a4,-24(s0)
    800003d4:	fdf44783          	lbu	a5,-33(s0)
    800003d8:	86be                	mv	a3,a5
    800003da:	fe843783          	ld	a5,-24(s0)
    800003de:	40d727af          	amoor.w	a5,a3,(a4)
    800003e2:	fef42223          	sw	a5,-28(s0)
			"amoor.w %0, %2, %1\n"
			: "=r" (r), "+A" (*tx)
			: "r" (c));
	} while (r < 0);
    800003e6:	fe442783          	lw	a5,-28(s0)
    800003ea:	2781                	sext.w	a5,a5
    800003ec:	fe07c2e3          	bltz	a5,800003d0 <kputc+0x14>
#else
	while ((int32_t)(*tx) < 0);
	*tx = c;
#endif
}
    800003f0:	0001                	nop
    800003f2:	0001                	nop
    800003f4:	7422                	ld	s0,40(sp)
    800003f6:	6145                	addi	sp,sp,48
    800003f8:	8082                	ret

00000000800003fa <_kputs>:
#include <stdbool.h>

#include "kprintf.h"

static inline void _kputs(const char *s)
{
    800003fa:	7179                	addi	sp,sp,-48
    800003fc:	f406                	sd	ra,40(sp)
    800003fe:	f022                	sd	s0,32(sp)
    80000400:	1800                	addi	s0,sp,48
    80000402:	fca43c23          	sd	a0,-40(s0)
	char c;
	for (; (c = *s) != '\0'; s++)
    80000406:	a819                	j	8000041c <_kputs+0x22>
		kputc(c);
    80000408:	fef44783          	lbu	a5,-17(s0)
    8000040c:	853e                	mv	a0,a5
    8000040e:	fafff0ef          	jal	ra,800003bc <kputc>
	for (; (c = *s) != '\0'; s++)
    80000412:	fd843783          	ld	a5,-40(s0)
    80000416:	0785                	addi	a5,a5,1 # 64000001 <_prog_start-0x1bffffff>
    80000418:	fcf43c23          	sd	a5,-40(s0)
    8000041c:	fd843783          	ld	a5,-40(s0)
    80000420:	0007c783          	lbu	a5,0(a5)
    80000424:	fef407a3          	sb	a5,-17(s0)
    80000428:	fef44783          	lbu	a5,-17(s0)
    8000042c:	0ff7f793          	zext.b	a5,a5
    80000430:	ffe1                	bnez	a5,80000408 <_kputs+0xe>
}
    80000432:	0001                	nop
    80000434:	0001                	nop
    80000436:	70a2                	ld	ra,40(sp)
    80000438:	7402                	ld	s0,32(sp)
    8000043a:	6145                	addi	sp,sp,48
    8000043c:	8082                	ret

000000008000043e <kputs>:

void kputs(const char *s)
{
    8000043e:	1101                	addi	sp,sp,-32
    80000440:	ec06                	sd	ra,24(sp)
    80000442:	e822                	sd	s0,16(sp)
    80000444:	1000                	addi	s0,sp,32
    80000446:	fea43423          	sd	a0,-24(s0)
	_kputs(s);
    8000044a:	fe843503          	ld	a0,-24(s0)
    8000044e:	fadff0ef          	jal	ra,800003fa <_kputs>
	kputc('\r');
    80000452:	4535                	li	a0,13
    80000454:	f69ff0ef          	jal	ra,800003bc <kputc>
	kputc('\n');
    80000458:	4529                	li	a0,10
    8000045a:	f63ff0ef          	jal	ra,800003bc <kputc>
}
    8000045e:	0001                	nop
    80000460:	60e2                	ld	ra,24(sp)
    80000462:	6442                	ld	s0,16(sp)
    80000464:	6105                	addi	sp,sp,32
    80000466:	8082                	ret

0000000080000468 <kprintf>:

void kprintf(const char *fmt, ...)
{
    80000468:	7151                	addi	sp,sp,-240
    8000046a:	f506                	sd	ra,168(sp)
    8000046c:	f122                	sd	s0,160(sp)
    8000046e:	1900                	addi	s0,sp,176
    80000470:	f4a43c23          	sd	a0,-168(s0)
    80000474:	e40c                	sd	a1,8(s0)
    80000476:	e810                	sd	a2,16(s0)
    80000478:	ec14                	sd	a3,24(s0)
    8000047a:	f018                	sd	a4,32(s0)
    8000047c:	f41c                	sd	a5,40(s0)
    8000047e:	03043823          	sd	a6,48(s0)
    80000482:	03143c23          	sd	a7,56(s0)
		va_list vl;
	bool is_format, is_long, is_char;
	char c;

	va_start(vl, fmt);
    80000486:	04040793          	addi	a5,s0,64
    8000048a:	f4f43823          	sd	a5,-176(s0)
    8000048e:	f5043783          	ld	a5,-176(s0)
    80000492:	fc878793          	addi	a5,a5,-56
    80000496:	faf43423          	sd	a5,-88(s0)
	is_format = false;
    8000049a:	fe0407a3          	sb	zero,-17(s0)
	is_long = false;
    8000049e:	fe040723          	sb	zero,-18(s0)
	is_char = false;
    800004a2:	fe0406a3          	sb	zero,-19(s0)
	while ((c = *fmt++) != '\0') {
    800004a6:	a499                	j	800006ec <kprintf+0x284>
		if (is_format) {
    800004a8:	fef44783          	lbu	a5,-17(s0)
    800004ac:	0ff7f793          	zext.b	a5,a5
    800004b0:	20078d63          	beqz	a5,800006ca <kprintf+0x262>
			switch (c) {
    800004b4:	fbf44783          	lbu	a5,-65(s0)
    800004b8:	2781                	sext.w	a5,a5
    800004ba:	f9d7869b          	addiw	a3,a5,-99
    800004be:	0006871b          	sext.w	a4,a3
    800004c2:	47d5                	li	a5,21
    800004c4:	1ee7ec63          	bltu	a5,a4,800006bc <kprintf+0x254>
    800004c8:	02069793          	slli	a5,a3,0x20
    800004cc:	9381                	srli	a5,a5,0x20
    800004ce:	00279713          	slli	a4,a5,0x2
    800004d2:	00001797          	auipc	a5,0x1
    800004d6:	61678793          	addi	a5,a5,1558 # 80001ae8 <dump+0x8>
    800004da:	97ba                	add	a5,a5,a4
    800004dc:	439c                	lw	a5,0(a5)
    800004de:	0007871b          	sext.w	a4,a5
    800004e2:	00001797          	auipc	a5,0x1
    800004e6:	60678793          	addi	a5,a5,1542 # 80001ae8 <dump+0x8>
    800004ea:	97ba                	add	a5,a5,a4
    800004ec:	8782                	jr	a5
			case 'l':
				unsigned long n;
				n = va_arg(vl, unsigned long);
    800004ee:	fa843783          	ld	a5,-88(s0)
    800004f2:	00878713          	addi	a4,a5,8
    800004f6:	fae43423          	sd	a4,-88(s0)
    800004fa:	639c                	ld	a5,0(a5)
    800004fc:	fef43023          	sd	a5,-32(s0)
				char c[64];
				for (int i = 0; i < 64; i ++) c[i] = 0;
    80000500:	fc042e23          	sw	zero,-36(s0)
    80000504:	a821                	j	8000051c <kprintf+0xb4>
    80000506:	fdc42783          	lw	a5,-36(s0)
    8000050a:	17c1                	addi	a5,a5,-16
    8000050c:	97a2                	add	a5,a5,s0
    8000050e:	f6078c23          	sb	zero,-136(a5)
    80000512:	fdc42783          	lw	a5,-36(s0)
    80000516:	2785                	addiw	a5,a5,1
    80000518:	fcf42e23          	sw	a5,-36(s0)
    8000051c:	fdc42783          	lw	a5,-36(s0)
    80000520:	0007871b          	sext.w	a4,a5
    80000524:	03f00793          	li	a5,63
    80000528:	fce7dfe3          	bge	a5,a4,80000506 <kprintf+0x9e>
				if (n == 0) {
    8000052c:	fe043783          	ld	a5,-32(s0)
    80000530:	e7bd                	bnez	a5,8000059e <kprintf+0x136>
					kputc ('0');
    80000532:	03000513          	li	a0,48
    80000536:	e87ff0ef          	jal	ra,800003bc <kputc>
					break;
    8000053a:	a249                	j	800006bc <kprintf+0x254>
				}
				for (;n != 0;) {
					for (int i = 63; i > 0; i--) c[i] = c[i-1];
    8000053c:	03f00793          	li	a5,63
    80000540:	fcf42c23          	sw	a5,-40(s0)
    80000544:	a025                	j	8000056c <kprintf+0x104>
    80000546:	fd842783          	lw	a5,-40(s0)
    8000054a:	37fd                	addiw	a5,a5,-1
    8000054c:	2781                	sext.w	a5,a5
    8000054e:	17c1                	addi	a5,a5,-16
    80000550:	97a2                	add	a5,a5,s0
    80000552:	f787c703          	lbu	a4,-136(a5)
    80000556:	fd842783          	lw	a5,-40(s0)
    8000055a:	17c1                	addi	a5,a5,-16
    8000055c:	97a2                	add	a5,a5,s0
    8000055e:	f6e78c23          	sb	a4,-136(a5)
    80000562:	fd842783          	lw	a5,-40(s0)
    80000566:	37fd                	addiw	a5,a5,-1
    80000568:	fcf42c23          	sw	a5,-40(s0)
    8000056c:	fd842783          	lw	a5,-40(s0)
    80000570:	2781                	sext.w	a5,a5
    80000572:	fcf04ae3          	bgtz	a5,80000546 <kprintf+0xde>
					c[0] = '0' + (n%10);
    80000576:	fe043703          	ld	a4,-32(s0)
    8000057a:	47a9                	li	a5,10
    8000057c:	02f777b3          	remu	a5,a4,a5
    80000580:	0ff7f793          	zext.b	a5,a5
    80000584:	0307879b          	addiw	a5,a5,48
    80000588:	0ff7f793          	zext.b	a5,a5
    8000058c:	f6f40423          	sb	a5,-152(s0)
					n = n / 10;
    80000590:	fe043703          	ld	a4,-32(s0)
    80000594:	47a9                	li	a5,10
    80000596:	02f757b3          	divu	a5,a4,a5
    8000059a:	fef43023          	sd	a5,-32(s0)
				for (;n != 0;) {
    8000059e:	fe043783          	ld	a5,-32(s0)
    800005a2:	ffc9                	bnez	a5,8000053c <kprintf+0xd4>
				}
				for (int i = 0; c[i] != 0; i++) kputc(c[i]);
    800005a4:	fc042a23          	sw	zero,-44(s0)
    800005a8:	a839                	j	800005c6 <kprintf+0x15e>
    800005aa:	fd442783          	lw	a5,-44(s0)
    800005ae:	17c1                	addi	a5,a5,-16
    800005b0:	97a2                	add	a5,a5,s0
    800005b2:	f787c783          	lbu	a5,-136(a5)
    800005b6:	853e                	mv	a0,a5
    800005b8:	e05ff0ef          	jal	ra,800003bc <kputc>
    800005bc:	fd442783          	lw	a5,-44(s0)
    800005c0:	2785                	addiw	a5,a5,1
    800005c2:	fcf42a23          	sw	a5,-44(s0)
    800005c6:	fd442783          	lw	a5,-44(s0)
    800005ca:	17c1                	addi	a5,a5,-16
    800005cc:	97a2                	add	a5,a5,s0
    800005ce:	f787c783          	lbu	a5,-136(a5)
    800005d2:	ffe1                	bnez	a5,800005aa <kprintf+0x142>
				break;
    800005d4:	a0e5                	j	800006bc <kprintf+0x254>
			case 'h':
				is_char = true;
    800005d6:	4785                	li	a5,1
    800005d8:	fef406a3          	sb	a5,-19(s0)
    800005dc:	aa01                	j	800006ec <kprintf+0x284>
				continue;
			case 'x': {
				unsigned long n;
				long i;
				if (is_long) {
    800005de:	fee44783          	lbu	a5,-18(s0)
    800005e2:	0ff7f793          	zext.b	a5,a5
    800005e6:	cf99                	beqz	a5,80000604 <kprintf+0x19c>
					n = va_arg(vl, unsigned long);
    800005e8:	fa843783          	ld	a5,-88(s0)
    800005ec:	00878713          	addi	a4,a5,8
    800005f0:	fae43423          	sd	a4,-88(s0)
    800005f4:	639c                	ld	a5,0(a5)
    800005f6:	fcf43423          	sd	a5,-56(s0)
					i = (sizeof(unsigned long) << 3) - 4;
    800005fa:	03c00793          	li	a5,60
    800005fe:	fcf43023          	sd	a5,-64(s0)
    80000602:	a041                	j	80000682 <kprintf+0x21a>
				} else {
					n = va_arg(vl, unsigned int);
    80000604:	fa843783          	ld	a5,-88(s0)
    80000608:	00878713          	addi	a4,a5,8
    8000060c:	fae43423          	sd	a4,-88(s0)
    80000610:	439c                	lw	a5,0(a5)
    80000612:	1782                	slli	a5,a5,0x20
    80000614:	9381                	srli	a5,a5,0x20
    80000616:	fcf43423          	sd	a5,-56(s0)
					i = is_char ? 4 : (sizeof(unsigned int) << 3) - 4;
    8000061a:	fed44783          	lbu	a5,-19(s0)
    8000061e:	0ff7f793          	zext.b	a5,a5
    80000622:	c399                	beqz	a5,80000628 <kprintf+0x1c0>
    80000624:	4791                	li	a5,4
    80000626:	a011                	j	8000062a <kprintf+0x1c2>
    80000628:	47f1                	li	a5,28
    8000062a:	fcf43023          	sd	a5,-64(s0)
				}
				for (; i >= 0; i -= 4) {
    8000062e:	a891                	j	80000682 <kprintf+0x21a>
					long d;
					d = (n >> i) & 0xF;
    80000630:	fc043783          	ld	a5,-64(s0)
    80000634:	2781                	sext.w	a5,a5
    80000636:	873e                	mv	a4,a5
    80000638:	fc843783          	ld	a5,-56(s0)
    8000063c:	00e7d7b3          	srl	a5,a5,a4
    80000640:	8bbd                	andi	a5,a5,15
    80000642:	faf43823          	sd	a5,-80(s0)
					kputc(d < 10 ? '0' + d : 'a' + d - 10);
    80000646:	fb043703          	ld	a4,-80(s0)
    8000064a:	47a5                	li	a5,9
    8000064c:	00e7cb63          	blt	a5,a4,80000662 <kprintf+0x1fa>
    80000650:	fb043783          	ld	a5,-80(s0)
    80000654:	0ff7f793          	zext.b	a5,a5
    80000658:	0307879b          	addiw	a5,a5,48
    8000065c:	0ff7f793          	zext.b	a5,a5
    80000660:	a809                	j	80000672 <kprintf+0x20a>
    80000662:	fb043783          	ld	a5,-80(s0)
    80000666:	0ff7f793          	zext.b	a5,a5
    8000066a:	0577879b          	addiw	a5,a5,87
    8000066e:	0ff7f793          	zext.b	a5,a5
    80000672:	853e                	mv	a0,a5
    80000674:	d49ff0ef          	jal	ra,800003bc <kputc>
				for (; i >= 0; i -= 4) {
    80000678:	fc043783          	ld	a5,-64(s0)
    8000067c:	17f1                	addi	a5,a5,-4
    8000067e:	fcf43023          	sd	a5,-64(s0)
    80000682:	fc043783          	ld	a5,-64(s0)
    80000686:	fa07d5e3          	bgez	a5,80000630 <kprintf+0x1c8>
				}
				break;
    8000068a:	a80d                	j	800006bc <kprintf+0x254>
			}
			case 's':
				_kputs(va_arg(vl, const char *));
    8000068c:	fa843783          	ld	a5,-88(s0)
    80000690:	00878713          	addi	a4,a5,8
    80000694:	fae43423          	sd	a4,-88(s0)
    80000698:	639c                	ld	a5,0(a5)
    8000069a:	853e                	mv	a0,a5
    8000069c:	d5fff0ef          	jal	ra,800003fa <_kputs>
				break;
    800006a0:	a831                	j	800006bc <kprintf+0x254>
			case 'c':
				kputc(va_arg(vl, int));
    800006a2:	fa843783          	ld	a5,-88(s0)
    800006a6:	00878713          	addi	a4,a5,8
    800006aa:	fae43423          	sd	a4,-88(s0)
    800006ae:	439c                	lw	a5,0(a5)
    800006b0:	0ff7f793          	zext.b	a5,a5
    800006b4:	853e                	mv	a0,a5
    800006b6:	d07ff0ef          	jal	ra,800003bc <kputc>
				break;
    800006ba:	0001                	nop
			}
			is_format = false;
    800006bc:	fe0407a3          	sb	zero,-17(s0)
			is_long = false;
    800006c0:	fe040723          	sb	zero,-18(s0)
			is_char = false;
    800006c4:	fe0406a3          	sb	zero,-19(s0)
    800006c8:	a015                	j	800006ec <kprintf+0x284>
		} else if (c == '%') {
    800006ca:	fbf44783          	lbu	a5,-65(s0)
    800006ce:	0ff7f713          	zext.b	a4,a5
    800006d2:	02500793          	li	a5,37
    800006d6:	00f71663          	bne	a4,a5,800006e2 <kprintf+0x27a>
			is_format = true;
    800006da:	4785                	li	a5,1
    800006dc:	fef407a3          	sb	a5,-17(s0)
    800006e0:	a031                	j	800006ec <kprintf+0x284>
		} else {
			kputc(c);
    800006e2:	fbf44783          	lbu	a5,-65(s0)
    800006e6:	853e                	mv	a0,a5
    800006e8:	cd5ff0ef          	jal	ra,800003bc <kputc>
	while ((c = *fmt++) != '\0') {
    800006ec:	f5843783          	ld	a5,-168(s0)
    800006f0:	00178713          	addi	a4,a5,1
    800006f4:	f4e43c23          	sd	a4,-168(s0)
    800006f8:	0007c783          	lbu	a5,0(a5)
    800006fc:	faf40fa3          	sb	a5,-65(s0)
    80000700:	fbf44783          	lbu	a5,-65(s0)
    80000704:	0ff7f793          	zext.b	a5,a5
    80000708:	da0790e3          	bnez	a5,800004a8 <kprintf+0x40>
		}
	}
	va_end(vl);
}
    8000070c:	0001                	nop
    8000070e:	0001                	nop
    80000710:	70aa                	ld	ra,168(sp)
    80000712:	740a                	ld	s0,160(sp)
    80000714:	616d                	addi	sp,sp,240
    80000716:	8082                	ret

0000000080000718 <thread_init>:
extern uint32_t read_flag4();
extern uint32_t read_flag5();
extern uint32_t read_flag6();
extern uint32_t read_flag7();

void thread_init(uint32_t thread_count) {
    80000718:	1101                	addi	sp,sp,-32
    8000071a:	ec06                	sd	ra,24(sp)
    8000071c:	e822                	sd	s0,16(sp)
    8000071e:	1000                	addi	s0,sp,32
    80000720:	87aa                	mv	a5,a0
    80000722:	fef42623          	sw	a5,-20(s0)
    mux_lock();
    80000726:	b37ff0ef          	jal	ra,8000025c <mux_lock>
    thread_cnt = thread_count;
    8000072a:	00020797          	auipc	a5,0x20
    8000072e:	8de78793          	addi	a5,a5,-1826 # 80020008 <thread_cnt>
    80000732:	fec42703          	lw	a4,-20(s0)
    80000736:	c398                	sw	a4,0(a5)
    thread_widx = 0;
    80000738:	00020797          	auipc	a5,0x20
    8000073c:	8c878793          	addi	a5,a5,-1848 # 80020000 <thread_widx>
    80000740:	0007a023          	sw	zero,0(a5)
    thread_ridx = 0;
    80000744:	00020797          	auipc	a5,0x20
    80000748:	8c078793          	addi	a5,a5,-1856 # 80020004 <thread_ridx>
    8000074c:	0007a023          	sw	zero,0(a5)
    mux_unlock();
    80000750:	b4dff0ef          	jal	ra,8000029c <mux_unlock>
    // Active cores from sleep
    REG32(msip, CLINT_MSIP1) = CLINT_MSIPEN;
    80000754:	00001797          	auipc	a5,0x1
    80000758:	34478793          	addi	a5,a5,836 # 80001a98 <msip>
    8000075c:	639c                	ld	a5,0(a5)
    8000075e:	0791                	addi	a5,a5,4
    80000760:	4705                	li	a4,1
    80000762:	c398                	sw	a4,0(a5)
    REG32(msip, CLINT_MSIP2) = CLINT_MSIPEN;
    80000764:	00001797          	auipc	a5,0x1
    80000768:	33478793          	addi	a5,a5,820 # 80001a98 <msip>
    8000076c:	639c                	ld	a5,0(a5)
    8000076e:	07a1                	addi	a5,a5,8
    80000770:	4705                	li	a4,1
    80000772:	c398                	sw	a4,0(a5)
    REG32(msip, CLINT_MSIP3) = CLINT_MSIPEN;
    80000774:	00001797          	auipc	a5,0x1
    80000778:	32478793          	addi	a5,a5,804 # 80001a98 <msip>
    8000077c:	639c                	ld	a5,0(a5)
    8000077e:	07b1                	addi	a5,a5,12
    80000780:	4705                	li	a4,1
    80000782:	c398                	sw	a4,0(a5)
    // REG32(msip, CLINT_MSIP4) = CLINT_MSIPEN;
    // REG32(msip, CLINT_MSIP5) = CLINT_MSIPEN;
    // REG32(msip, CLINT_MSIP6) = CLINT_MSIPEN;
    // REG32(msip, CLINT_MSIP7) = CLINT_MSIPEN;
}
    80000784:	0001                	nop
    80000786:	60e2                	ld	ra,24(sp)
    80000788:	6442                	ld	s0,16(sp)
    8000078a:	6105                	addi	sp,sp,32
    8000078c:	8082                	ret

000000008000078e <thread_create>:

void thread_create(void* funct, void *din0, void *din1, void *dout) {
    8000078e:	7179                	addi	sp,sp,-48
    80000790:	f406                	sd	ra,40(sp)
    80000792:	f022                	sd	s0,32(sp)
    80000794:	1800                	addi	s0,sp,48
    80000796:	fea43423          	sd	a0,-24(s0)
    8000079a:	feb43023          	sd	a1,-32(s0)
    8000079e:	fcc43c23          	sd	a2,-40(s0)
    800007a2:	fcd43823          	sd	a3,-48(s0)
    mux_lock();
    800007a6:	ab7ff0ef          	jal	ra,8000025c <mux_lock>
    thread_queue[thread_widx++] = funct;
    800007aa:	00001797          	auipc	a5,0x1
    800007ae:	2e678793          	addi	a5,a5,742 # 80001a90 <thread_queue>
    800007b2:	6398                	ld	a4,0(a5)
    800007b4:	00020797          	auipc	a5,0x20
    800007b8:	84c78793          	addi	a5,a5,-1972 # 80020000 <thread_widx>
    800007bc:	439c                	lw	a5,0(a5)
    800007be:	2781                	sext.w	a5,a5
    800007c0:	2781                	sext.w	a5,a5
    800007c2:	0017869b          	addiw	a3,a5,1
    800007c6:	0006861b          	sext.w	a2,a3
    800007ca:	00020697          	auipc	a3,0x20
    800007ce:	83668693          	addi	a3,a3,-1994 # 80020000 <thread_widx>
    800007d2:	c290                	sw	a2,0(a3)
    800007d4:	1782                	slli	a5,a5,0x20
    800007d6:	9381                	srli	a5,a5,0x20
    800007d8:	078e                	slli	a5,a5,0x3
    800007da:	97ba                	add	a5,a5,a4
    800007dc:	fe843703          	ld	a4,-24(s0)
    800007e0:	e398                	sd	a4,0(a5)
    thread_queue[thread_widx++] = din0;
    800007e2:	00001797          	auipc	a5,0x1
    800007e6:	2ae78793          	addi	a5,a5,686 # 80001a90 <thread_queue>
    800007ea:	6398                	ld	a4,0(a5)
    800007ec:	00020797          	auipc	a5,0x20
    800007f0:	81478793          	addi	a5,a5,-2028 # 80020000 <thread_widx>
    800007f4:	439c                	lw	a5,0(a5)
    800007f6:	2781                	sext.w	a5,a5
    800007f8:	2781                	sext.w	a5,a5
    800007fa:	0017869b          	addiw	a3,a5,1
    800007fe:	0006861b          	sext.w	a2,a3
    80000802:	0001f697          	auipc	a3,0x1f
    80000806:	7fe68693          	addi	a3,a3,2046 # 80020000 <thread_widx>
    8000080a:	c290                	sw	a2,0(a3)
    8000080c:	1782                	slli	a5,a5,0x20
    8000080e:	9381                	srli	a5,a5,0x20
    80000810:	078e                	slli	a5,a5,0x3
    80000812:	97ba                	add	a5,a5,a4
    80000814:	fe043703          	ld	a4,-32(s0)
    80000818:	e398                	sd	a4,0(a5)
    thread_queue[thread_widx++] = din1;
    8000081a:	00001797          	auipc	a5,0x1
    8000081e:	27678793          	addi	a5,a5,630 # 80001a90 <thread_queue>
    80000822:	6398                	ld	a4,0(a5)
    80000824:	0001f797          	auipc	a5,0x1f
    80000828:	7dc78793          	addi	a5,a5,2012 # 80020000 <thread_widx>
    8000082c:	439c                	lw	a5,0(a5)
    8000082e:	2781                	sext.w	a5,a5
    80000830:	2781                	sext.w	a5,a5
    80000832:	0017869b          	addiw	a3,a5,1
    80000836:	0006861b          	sext.w	a2,a3
    8000083a:	0001f697          	auipc	a3,0x1f
    8000083e:	7c668693          	addi	a3,a3,1990 # 80020000 <thread_widx>
    80000842:	c290                	sw	a2,0(a3)
    80000844:	1782                	slli	a5,a5,0x20
    80000846:	9381                	srli	a5,a5,0x20
    80000848:	078e                	slli	a5,a5,0x3
    8000084a:	97ba                	add	a5,a5,a4
    8000084c:	fd843703          	ld	a4,-40(s0)
    80000850:	e398                	sd	a4,0(a5)
    thread_queue[thread_widx++] = dout;
    80000852:	00001797          	auipc	a5,0x1
    80000856:	23e78793          	addi	a5,a5,574 # 80001a90 <thread_queue>
    8000085a:	6398                	ld	a4,0(a5)
    8000085c:	0001f797          	auipc	a5,0x1f
    80000860:	7a478793          	addi	a5,a5,1956 # 80020000 <thread_widx>
    80000864:	439c                	lw	a5,0(a5)
    80000866:	2781                	sext.w	a5,a5
    80000868:	2781                	sext.w	a5,a5
    8000086a:	0017869b          	addiw	a3,a5,1
    8000086e:	0006861b          	sext.w	a2,a3
    80000872:	0001f697          	auipc	a3,0x1f
    80000876:	78e68693          	addi	a3,a3,1934 # 80020000 <thread_widx>
    8000087a:	c290                	sw	a2,0(a3)
    8000087c:	1782                	slli	a5,a5,0x20
    8000087e:	9381                	srli	a5,a5,0x20
    80000880:	078e                	slli	a5,a5,0x3
    80000882:	97ba                	add	a5,a5,a4
    80000884:	fd043703          	ld	a4,-48(s0)
    80000888:	e398                	sd	a4,0(a5)
    mux_unlock();
    8000088a:	a13ff0ef          	jal	ra,8000029c <mux_unlock>
}
    8000088e:	0001                	nop
    80000890:	70a2                	ld	ra,40(sp)
    80000892:	7402                	ld	s0,32(sp)
    80000894:	6145                	addi	sp,sp,48
    80000896:	8082                	ret

0000000080000898 <thread_run>:

void thread_run() {
    80000898:	7179                	addi	sp,sp,-48
    8000089a:	f406                	sd	ra,40(sp)
    8000089c:	f022                	sd	s0,32(sp)
    8000089e:	1800                	addi	s0,sp,48
    while (1) {
        mux_lock();
    800008a0:	9bdff0ef          	jal	ra,8000025c <mux_lock>
        if ((thread_ridx < thread_widx) && (thread_cnt >0)) {
    800008a4:	0001f797          	auipc	a5,0x1f
    800008a8:	76078793          	addi	a5,a5,1888 # 80020004 <thread_ridx>
    800008ac:	439c                	lw	a5,0(a5)
    800008ae:	0007871b          	sext.w	a4,a5
    800008b2:	0001f797          	auipc	a5,0x1f
    800008b6:	74e78793          	addi	a5,a5,1870 # 80020000 <thread_widx>
    800008ba:	439c                	lw	a5,0(a5)
    800008bc:	2781                	sext.w	a5,a5
    800008be:	12f77463          	bgeu	a4,a5,800009e6 <thread_run+0x14e>
    800008c2:	0001f797          	auipc	a5,0x1f
    800008c6:	74678793          	addi	a5,a5,1862 # 80020008 <thread_cnt>
    800008ca:	439c                	lw	a5,0(a5)
    800008cc:	2781                	sext.w	a5,a5
    800008ce:	10078c63          	beqz	a5,800009e6 <thread_run+0x14e>
            void (*funct)(void*, void*, void*);
            funct = thread_queue[thread_ridx++];
    800008d2:	00001797          	auipc	a5,0x1
    800008d6:	1be78793          	addi	a5,a5,446 # 80001a90 <thread_queue>
    800008da:	6398                	ld	a4,0(a5)
    800008dc:	0001f797          	auipc	a5,0x1f
    800008e0:	72878793          	addi	a5,a5,1832 # 80020004 <thread_ridx>
    800008e4:	439c                	lw	a5,0(a5)
    800008e6:	2781                	sext.w	a5,a5
    800008e8:	2781                	sext.w	a5,a5
    800008ea:	0017869b          	addiw	a3,a5,1
    800008ee:	0006861b          	sext.w	a2,a3
    800008f2:	0001f697          	auipc	a3,0x1f
    800008f6:	71268693          	addi	a3,a3,1810 # 80020004 <thread_ridx>
    800008fa:	c290                	sw	a2,0(a3)
    800008fc:	1782                	slli	a5,a5,0x20
    800008fe:	9381                	srli	a5,a5,0x20
    80000900:	078e                	slli	a5,a5,0x3
    80000902:	97ba                	add	a5,a5,a4
    80000904:	639c                	ld	a5,0(a5)
    80000906:	fef43423          	sd	a5,-24(s0)
            void* din0 = thread_queue[thread_ridx++];
    8000090a:	00001797          	auipc	a5,0x1
    8000090e:	18678793          	addi	a5,a5,390 # 80001a90 <thread_queue>
    80000912:	6398                	ld	a4,0(a5)
    80000914:	0001f797          	auipc	a5,0x1f
    80000918:	6f078793          	addi	a5,a5,1776 # 80020004 <thread_ridx>
    8000091c:	439c                	lw	a5,0(a5)
    8000091e:	2781                	sext.w	a5,a5
    80000920:	2781                	sext.w	a5,a5
    80000922:	0017869b          	addiw	a3,a5,1
    80000926:	0006861b          	sext.w	a2,a3
    8000092a:	0001f697          	auipc	a3,0x1f
    8000092e:	6da68693          	addi	a3,a3,1754 # 80020004 <thread_ridx>
    80000932:	c290                	sw	a2,0(a3)
    80000934:	1782                	slli	a5,a5,0x20
    80000936:	9381                	srli	a5,a5,0x20
    80000938:	078e                	slli	a5,a5,0x3
    8000093a:	97ba                	add	a5,a5,a4
    8000093c:	639c                	ld	a5,0(a5)
    8000093e:	fef43023          	sd	a5,-32(s0)
            void* din1 = thread_queue[thread_ridx++];
    80000942:	00001797          	auipc	a5,0x1
    80000946:	14e78793          	addi	a5,a5,334 # 80001a90 <thread_queue>
    8000094a:	6398                	ld	a4,0(a5)
    8000094c:	0001f797          	auipc	a5,0x1f
    80000950:	6b878793          	addi	a5,a5,1720 # 80020004 <thread_ridx>
    80000954:	439c                	lw	a5,0(a5)
    80000956:	2781                	sext.w	a5,a5
    80000958:	2781                	sext.w	a5,a5
    8000095a:	0017869b          	addiw	a3,a5,1
    8000095e:	0006861b          	sext.w	a2,a3
    80000962:	0001f697          	auipc	a3,0x1f
    80000966:	6a268693          	addi	a3,a3,1698 # 80020004 <thread_ridx>
    8000096a:	c290                	sw	a2,0(a3)
    8000096c:	1782                	slli	a5,a5,0x20
    8000096e:	9381                	srli	a5,a5,0x20
    80000970:	078e                	slli	a5,a5,0x3
    80000972:	97ba                	add	a5,a5,a4
    80000974:	639c                	ld	a5,0(a5)
    80000976:	fcf43c23          	sd	a5,-40(s0)
            void *dout = thread_queue[thread_ridx++];
    8000097a:	00001797          	auipc	a5,0x1
    8000097e:	11678793          	addi	a5,a5,278 # 80001a90 <thread_queue>
    80000982:	6398                	ld	a4,0(a5)
    80000984:	0001f797          	auipc	a5,0x1f
    80000988:	68078793          	addi	a5,a5,1664 # 80020004 <thread_ridx>
    8000098c:	439c                	lw	a5,0(a5)
    8000098e:	2781                	sext.w	a5,a5
    80000990:	2781                	sext.w	a5,a5
    80000992:	0017869b          	addiw	a3,a5,1
    80000996:	0006861b          	sext.w	a2,a3
    8000099a:	0001f697          	auipc	a3,0x1f
    8000099e:	66a68693          	addi	a3,a3,1642 # 80020004 <thread_ridx>
    800009a2:	c290                	sw	a2,0(a3)
    800009a4:	1782                	slli	a5,a5,0x20
    800009a6:	9381                	srli	a5,a5,0x20
    800009a8:	078e                	slli	a5,a5,0x3
    800009aa:	97ba                	add	a5,a5,a4
    800009ac:	639c                	ld	a5,0(a5)
    800009ae:	fcf43823          	sd	a5,-48(s0)
            thread_cnt--;
    800009b2:	0001f797          	auipc	a5,0x1f
    800009b6:	65678793          	addi	a5,a5,1622 # 80020008 <thread_cnt>
    800009ba:	439c                	lw	a5,0(a5)
    800009bc:	2781                	sext.w	a5,a5
    800009be:	37fd                	addiw	a5,a5,-1
    800009c0:	0007871b          	sext.w	a4,a5
    800009c4:	0001f797          	auipc	a5,0x1f
    800009c8:	64478793          	addi	a5,a5,1604 # 80020008 <thread_cnt>
    800009cc:	c398                	sw	a4,0(a5)
            mux_unlock();
    800009ce:	8cfff0ef          	jal	ra,8000029c <mux_unlock>
            funct(din0, din1, dout);
    800009d2:	fe843783          	ld	a5,-24(s0)
    800009d6:	fd043603          	ld	a2,-48(s0)
    800009da:	fd843583          	ld	a1,-40(s0)
    800009de:	fe043503          	ld	a0,-32(s0)
    800009e2:	9782                	jalr	a5
            break;
    800009e4:	a829                	j	800009fe <thread_run+0x166>
        }
        else if (thread_cnt > 0) {
    800009e6:	0001f797          	auipc	a5,0x1f
    800009ea:	62278793          	addi	a5,a5,1570 # 80020008 <thread_cnt>
    800009ee:	439c                	lw	a5,0(a5)
    800009f0:	2781                	sext.w	a5,a5
    800009f2:	c781                	beqz	a5,800009fa <thread_run+0x162>
            mux_unlock();
    800009f4:	8a9ff0ef          	jal	ra,8000029c <mux_unlock>
    800009f8:	b565                	j	800008a0 <thread_run+0x8>
        }
        else {
            mux_unlock();
    800009fa:	8a3ff0ef          	jal	ra,8000029c <mux_unlock>
            break;
        }
    }
    return;
    800009fe:	0001                	nop
}
    80000a00:	70a2                	ld	ra,40(sp)
    80000a02:	7402                	ld	s0,32(sp)
    80000a04:	6145                	addi	sp,sp,48
    80000a06:	8082                	ret

0000000080000a08 <thread_join>:

void thread_join() {
    80000a08:	1101                	addi	sp,sp,-32
    80000a0a:	ec06                	sd	ra,24(sp)
    80000a0c:	e822                	sd	s0,16(sp)
    80000a0e:	1000                	addi	s0,sp,32
    _thread0_entry();
    80000a10:	ec4ff0ef          	jal	ra,800000d4 <_thread0_entry>

    uint32_t core_status = 0;
    80000a14:	fe042623          	sw	zero,-20(s0)

    while (1) {
        core_status = 0;
    80000a18:	fe042623          	sw	zero,-20(s0)
        core_status += read_flag0();
    80000a1c:	925ff0ef          	jal	ra,80000340 <read_flag0>
    80000a20:	87aa                	mv	a5,a0
    80000a22:	2781                	sext.w	a5,a5
    80000a24:	fec42703          	lw	a4,-20(s0)
    80000a28:	9fb9                	addw	a5,a5,a4
    80000a2a:	fef42623          	sw	a5,-20(s0)
        core_status += read_flag1();
    80000a2e:	91fff0ef          	jal	ra,8000034c <read_flag1>
    80000a32:	87aa                	mv	a5,a0
    80000a34:	2781                	sext.w	a5,a5
    80000a36:	fec42703          	lw	a4,-20(s0)
    80000a3a:	9fb9                	addw	a5,a5,a4
    80000a3c:	fef42623          	sw	a5,-20(s0)
        core_status += read_flag2();
    80000a40:	91dff0ef          	jal	ra,8000035c <read_flag2>
    80000a44:	87aa                	mv	a5,a0
    80000a46:	2781                	sext.w	a5,a5
    80000a48:	fec42703          	lw	a4,-20(s0)
    80000a4c:	9fb9                	addw	a5,a5,a4
    80000a4e:	fef42623          	sw	a5,-20(s0)
        core_status += read_flag3();
    80000a52:	91bff0ef          	jal	ra,8000036c <read_flag3>
    80000a56:	87aa                	mv	a5,a0
    80000a58:	2781                	sext.w	a5,a5
    80000a5a:	fec42703          	lw	a4,-20(s0)
    80000a5e:	9fb9                	addw	a5,a5,a4
    80000a60:	fef42623          	sw	a5,-20(s0)
        // core_status += read_flag4();
        // core_status += read_flag5();
        // core_status += read_flag6();
        // core_status += read_flag7();
        if (core_status == 0) break;
    80000a64:	fec42783          	lw	a5,-20(s0)
    80000a68:	2781                	sext.w	a5,a5
    80000a6a:	c391                	beqz	a5,80000a6e <thread_join+0x66>
        core_status = 0;
    80000a6c:	b775                	j	80000a18 <thread_join+0x10>
        if (core_status == 0) break;
    80000a6e:	0001                	nop
    }
}
    80000a70:	0001                	nop
    80000a72:	60e2                	ld	ra,24(sp)
    80000a74:	6442                	ld	s0,16(sp)
    80000a76:	6105                	addi	sp,sp,32
    80000a78:	8082                	ret

0000000080000a7a <matMul>:

mat_t in0[4][(SIZE/2)*(SIZE/2)];
mat_t in1[4][(SIZE/2)*(SIZE/2)];
mat_t out[8][(SIZE/2)*(SIZE/2)];

void matMul(void *din, void *dout) {
    80000a7a:	715d                	addi	sp,sp,-80
    80000a7c:	e486                	sd	ra,72(sp)
    80000a7e:	e0a2                	sd	s0,64(sp)
    80000a80:	0880                	addi	s0,sp,80
    80000a82:	72f5                	lui	t0,0xffffd
    80000a84:	9116                	add	sp,sp,t0
    80000a86:	77f5                	lui	a5,0xffffd
    80000a88:	17c1                	addi	a5,a5,-16 # ffffffffffffcff0 <out+0xffffffff7ffdafe0>
    80000a8a:	97a2                	add	a5,a5,s0
    80000a8c:	fca7b423          	sd	a0,-56(a5)
    80000a90:	77f5                	lui	a5,0xffffd
    80000a92:	17c1                	addi	a5,a5,-16 # ffffffffffffcff0 <out+0xffffffff7ffdafe0>
    80000a94:	97a2                	add	a5,a5,s0
    80000a96:	fcb7b023          	sd	a1,-64(a5)
  mat_t matA[SIZE][SIZE];
  mat_t matB[SIZE][SIZE];
  mat_t matC[SIZE][SIZE];

  mat_t *matOut = (mat_t*)dout;
    80000a9a:	77f5                	lui	a5,0xffffd
    80000a9c:	17c1                	addi	a5,a5,-16 # ffffffffffffcff0 <out+0xffffffff7ffdafe0>
    80000a9e:	97a2                	add	a5,a5,s0
    80000aa0:	fc07b783          	ld	a5,-64(a5)
    80000aa4:	fcf43423          	sd	a5,-56(s0)

  // Intialize
  for (int i = 0; i < SIZE; i++)
    80000aa8:	fe042623          	sw	zero,-20(s0)
    80000aac:	a85d                	j	80000b62 <matMul+0xe8>
    for (int j = 0;  j < SIZE; j++){
    80000aae:	fe042423          	sw	zero,-24(s0)
    80000ab2:	a859                	j	80000b48 <matMul+0xce>
      matA[i][j] = i*SIZE + j;
    80000ab4:	fec42783          	lw	a5,-20(s0)
    80000ab8:	0ff7f793          	zext.b	a5,a5
    80000abc:	0067979b          	slliw	a5,a5,0x6
    80000ac0:	0ff7f713          	zext.b	a4,a5
    80000ac4:	fe842783          	lw	a5,-24(s0)
    80000ac8:	0ff7f793          	zext.b	a5,a5
    80000acc:	9fb9                	addw	a5,a5,a4
    80000ace:	0ff7f713          	zext.b	a4,a5
    80000ad2:	77fd                	lui	a5,0xfffff
    80000ad4:	17c1                	addi	a5,a5,-16 # ffffffffffffeff0 <out+0xffffffff7ffdcfe0>
    80000ad6:	00878633          	add	a2,a5,s0
    80000ada:	fe842683          	lw	a3,-24(s0)
    80000ade:	fec42783          	lw	a5,-20(s0)
    80000ae2:	079a                	slli	a5,a5,0x6
    80000ae4:	97b2                	add	a5,a5,a2
    80000ae6:	97b6                	add	a5,a5,a3
    80000ae8:	fce78c23          	sb	a4,-40(a5)
      matB[i][j] = i*SIZE + j;
    80000aec:	fec42783          	lw	a5,-20(s0)
    80000af0:	0ff7f793          	zext.b	a5,a5
    80000af4:	0067979b          	slliw	a5,a5,0x6
    80000af8:	0ff7f713          	zext.b	a4,a5
    80000afc:	fe842783          	lw	a5,-24(s0)
    80000b00:	0ff7f793          	zext.b	a5,a5
    80000b04:	9fb9                	addw	a5,a5,a4
    80000b06:	0ff7f713          	zext.b	a4,a5
    80000b0a:	77f9                	lui	a5,0xffffe
    80000b0c:	17c1                	addi	a5,a5,-16 # ffffffffffffdff0 <out+0xffffffff7ffdbfe0>
    80000b0e:	00878633          	add	a2,a5,s0
    80000b12:	fe842683          	lw	a3,-24(s0)
    80000b16:	fec42783          	lw	a5,-20(s0)
    80000b1a:	079a                	slli	a5,a5,0x6
    80000b1c:	97b2                	add	a5,a5,a2
    80000b1e:	97b6                	add	a5,a5,a3
    80000b20:	fce78c23          	sb	a4,-40(a5)
      matC[i][j] = 0;
    80000b24:	77f5                	lui	a5,0xffffd
    80000b26:	17c1                	addi	a5,a5,-16 # ffffffffffffcff0 <out+0xffffffff7ffdafe0>
    80000b28:	008786b3          	add	a3,a5,s0
    80000b2c:	fe842703          	lw	a4,-24(s0)
    80000b30:	fec42783          	lw	a5,-20(s0)
    80000b34:	079a                	slli	a5,a5,0x6
    80000b36:	97b6                	add	a5,a5,a3
    80000b38:	97ba                	add	a5,a5,a4
    80000b3a:	fc078c23          	sb	zero,-40(a5)
    for (int j = 0;  j < SIZE; j++){
    80000b3e:	fe842783          	lw	a5,-24(s0)
    80000b42:	2785                	addiw	a5,a5,1
    80000b44:	fef42423          	sw	a5,-24(s0)
    80000b48:	fe842783          	lw	a5,-24(s0)
    80000b4c:	0007871b          	sext.w	a4,a5
    80000b50:	03f00793          	li	a5,63
    80000b54:	f6e7d0e3          	bge	a5,a4,80000ab4 <matMul+0x3a>
  for (int i = 0; i < SIZE; i++)
    80000b58:	fec42783          	lw	a5,-20(s0)
    80000b5c:	2785                	addiw	a5,a5,1
    80000b5e:	fef42623          	sw	a5,-20(s0)
    80000b62:	fec42783          	lw	a5,-20(s0)
    80000b66:	0007871b          	sext.w	a4,a5
    80000b6a:	03f00793          	li	a5,63
    80000b6e:	f4e7d0e3          	bge	a5,a4,80000aae <matMul+0x34>
    }

  // Multiplication
  for (int i = 0; i < SIZE; i++)
    80000b72:	fe042223          	sw	zero,-28(s0)
    80000b76:	a855                	j	80000c2a <matMul+0x1b0>
    for (int j = 0;  j < SIZE; j++){
    80000b78:	fe042023          	sw	zero,-32(s0)
    80000b7c:	a851                	j	80000c10 <matMul+0x196>
      mat_t sum = 0;
    80000b7e:	fc040fa3          	sb	zero,-33(s0)
      for (int k = 0; k < SIZE; k++) {
    80000b82:	fc042c23          	sw	zero,-40(s0)
    80000b86:	a889                	j	80000bd8 <matMul+0x15e>
        sum += matA[i][k]*matB[k][j]; 
    80000b88:	77fd                	lui	a5,0xfffff
    80000b8a:	17c1                	addi	a5,a5,-16 # ffffffffffffeff0 <out+0xffffffff7ffdcfe0>
    80000b8c:	008786b3          	add	a3,a5,s0
    80000b90:	fd842703          	lw	a4,-40(s0)
    80000b94:	fe442783          	lw	a5,-28(s0)
    80000b98:	079a                	slli	a5,a5,0x6
    80000b9a:	97b6                	add	a5,a5,a3
    80000b9c:	97ba                	add	a5,a5,a4
    80000b9e:	fd87c703          	lbu	a4,-40(a5)
    80000ba2:	77f9                	lui	a5,0xffffe
    80000ba4:	17c1                	addi	a5,a5,-16 # ffffffffffffdff0 <out+0xffffffff7ffdbfe0>
    80000ba6:	00878633          	add	a2,a5,s0
    80000baa:	fe042683          	lw	a3,-32(s0)
    80000bae:	fd842783          	lw	a5,-40(s0)
    80000bb2:	079a                	slli	a5,a5,0x6
    80000bb4:	97b2                	add	a5,a5,a2
    80000bb6:	97b6                	add	a5,a5,a3
    80000bb8:	fd87c783          	lbu	a5,-40(a5)
    80000bbc:	02f707bb          	mulw	a5,a4,a5
    80000bc0:	0ff7f793          	zext.b	a5,a5
    80000bc4:	fdf44703          	lbu	a4,-33(s0)
    80000bc8:	9fb9                	addw	a5,a5,a4
    80000bca:	fcf40fa3          	sb	a5,-33(s0)
      for (int k = 0; k < SIZE; k++) {
    80000bce:	fd842783          	lw	a5,-40(s0)
    80000bd2:	2785                	addiw	a5,a5,1
    80000bd4:	fcf42c23          	sw	a5,-40(s0)
    80000bd8:	fd842783          	lw	a5,-40(s0)
    80000bdc:	0007871b          	sext.w	a4,a5
    80000be0:	03f00793          	li	a5,63
    80000be4:	fae7d2e3          	bge	a5,a4,80000b88 <matMul+0x10e>
      }
      matC[i][j] = sum;
    80000be8:	77f5                	lui	a5,0xffffd
    80000bea:	17c1                	addi	a5,a5,-16 # ffffffffffffcff0 <out+0xffffffff7ffdafe0>
    80000bec:	008786b3          	add	a3,a5,s0
    80000bf0:	fe042703          	lw	a4,-32(s0)
    80000bf4:	fe442783          	lw	a5,-28(s0)
    80000bf8:	079a                	slli	a5,a5,0x6
    80000bfa:	97b6                	add	a5,a5,a3
    80000bfc:	97ba                	add	a5,a5,a4
    80000bfe:	fdf44703          	lbu	a4,-33(s0)
    80000c02:	fce78c23          	sb	a4,-40(a5)
    for (int j = 0;  j < SIZE; j++){
    80000c06:	fe042783          	lw	a5,-32(s0)
    80000c0a:	2785                	addiw	a5,a5,1
    80000c0c:	fef42023          	sw	a5,-32(s0)
    80000c10:	fe042783          	lw	a5,-32(s0)
    80000c14:	0007871b          	sext.w	a4,a5
    80000c18:	03f00793          	li	a5,63
    80000c1c:	f6e7d1e3          	bge	a5,a4,80000b7e <matMul+0x104>
  for (int i = 0; i < SIZE; i++)
    80000c20:	fe442783          	lw	a5,-28(s0)
    80000c24:	2785                	addiw	a5,a5,1
    80000c26:	fef42223          	sw	a5,-28(s0)
    80000c2a:	fe442783          	lw	a5,-28(s0)
    80000c2e:	0007871b          	sext.w	a4,a5
    80000c32:	03f00793          	li	a5,63
    80000c36:	f4e7d1e3          	bge	a5,a4,80000b78 <matMul+0xfe>
    }

  // Writeback
  for (int i = 0; i < SIZE; i++)
    80000c3a:	fc042a23          	sw	zero,-44(s0)
    80000c3e:	a095                	j	80000ca2 <matMul+0x228>
    for (int j = 0;  j < SIZE; j++)
    80000c40:	fc042823          	sw	zero,-48(s0)
    80000c44:	a091                	j	80000c88 <matMul+0x20e>
      matOut[i*SIZE + j] = matC[i][j];
    80000c46:	fd442783          	lw	a5,-44(s0)
    80000c4a:	0067979b          	slliw	a5,a5,0x6
    80000c4e:	2781                	sext.w	a5,a5
    80000c50:	fd042703          	lw	a4,-48(s0)
    80000c54:	9fb9                	addw	a5,a5,a4
    80000c56:	2781                	sext.w	a5,a5
    80000c58:	873e                	mv	a4,a5
    80000c5a:	fc843783          	ld	a5,-56(s0)
    80000c5e:	973e                	add	a4,a4,a5
    80000c60:	77f5                	lui	a5,0xffffd
    80000c62:	17c1                	addi	a5,a5,-16 # ffffffffffffcff0 <out+0xffffffff7ffdafe0>
    80000c64:	00878633          	add	a2,a5,s0
    80000c68:	fd042683          	lw	a3,-48(s0)
    80000c6c:	fd442783          	lw	a5,-44(s0)
    80000c70:	079a                	slli	a5,a5,0x6
    80000c72:	97b2                	add	a5,a5,a2
    80000c74:	97b6                	add	a5,a5,a3
    80000c76:	fd87c783          	lbu	a5,-40(a5)
    80000c7a:	00f70023          	sb	a5,0(a4)
    for (int j = 0;  j < SIZE; j++)
    80000c7e:	fd042783          	lw	a5,-48(s0)
    80000c82:	2785                	addiw	a5,a5,1
    80000c84:	fcf42823          	sw	a5,-48(s0)
    80000c88:	fd042783          	lw	a5,-48(s0)
    80000c8c:	0007871b          	sext.w	a4,a5
    80000c90:	03f00793          	li	a5,63
    80000c94:	fae7d9e3          	bge	a5,a4,80000c46 <matMul+0x1cc>
  for (int i = 0; i < SIZE; i++)
    80000c98:	fd442783          	lw	a5,-44(s0)
    80000c9c:	2785                	addiw	a5,a5,1
    80000c9e:	fcf42a23          	sw	a5,-44(s0)
    80000ca2:	fd442783          	lw	a5,-44(s0)
    80000ca6:	0007871b          	sext.w	a4,a5
    80000caa:	03f00793          	li	a5,63
    80000cae:	f8e7d9e3          	bge	a5,a4,80000c40 <matMul+0x1c6>
  
  // Replace the first element with core id for debug
  matOut[0] = get_hartid();
    80000cb2:	e1eff0ef          	jal	ra,800002d0 <get_hartid>
    80000cb6:	87aa                	mv	a5,a0
    80000cb8:	2781                	sext.w	a5,a5
    80000cba:	0ff7f713          	zext.b	a4,a5
    80000cbe:	fc843783          	ld	a5,-56(s0)
    80000cc2:	00e78023          	sb	a4,0(a5)
}
    80000cc6:	0001                	nop
    80000cc8:	628d                	lui	t0,0x3
    80000cca:	9116                	add	sp,sp,t0
    80000ccc:	60a6                	ld	ra,72(sp)
    80000cce:	6406                	ld	s0,64(sp)
    80000cd0:	6161                	addi	sp,sp,80
    80000cd2:	8082                	ret

0000000080000cd4 <strassen_mul>:

void strassen_mul(void *din0, void *din1, void *dout) {
    80000cd4:	81010113          	addi	sp,sp,-2032
    80000cd8:	7e813423          	sd	s0,2024(sp)
    80000cdc:	7f010413          	addi	s0,sp,2032
    80000ce0:	b8010113          	addi	sp,sp,-1152
    80000ce4:	77fd                	lui	a5,0xfffff
    80000ce6:	17c1                	addi	a5,a5,-16 # ffffffffffffeff0 <out+0xffffffff7ffdcfe0>
    80000ce8:	97a2                	add	a5,a5,s0
    80000cea:	3aa7bc23          	sd	a0,952(a5)
    80000cee:	77fd                	lui	a5,0xfffff
    80000cf0:	17c1                	addi	a5,a5,-16 # ffffffffffffeff0 <out+0xffffffff7ffdcfe0>
    80000cf2:	97a2                	add	a5,a5,s0
    80000cf4:	3ab7b823          	sd	a1,944(a5)
    80000cf8:	77fd                	lui	a5,0xfffff
    80000cfa:	17c1                	addi	a5,a5,-16 # ffffffffffffeff0 <out+0xffffffff7ffdcfe0>
    80000cfc:	97a2                	add	a5,a5,s0
    80000cfe:	3ac7b423          	sd	a2,936(a5)
  mat_t matA[SIZE/2][SIZE/2];
  mat_t matB[SIZE/2][SIZE/2];
  mat_t matC[SIZE/2][SIZE/2];

  mat_t *dinA = (mat_t*)din0;
    80000d02:	77fd                	lui	a5,0xfffff
    80000d04:	17c1                	addi	a5,a5,-16 # ffffffffffffeff0 <out+0xffffffff7ffdcfe0>
    80000d06:	97a2                	add	a5,a5,s0
    80000d08:	3b87b783          	ld	a5,952(a5)
    80000d0c:	fcf43423          	sd	a5,-56(s0)
  mat_t *dinB = (mat_t*)din1;
    80000d10:	77fd                	lui	a5,0xfffff
    80000d12:	17c1                	addi	a5,a5,-16 # ffffffffffffeff0 <out+0xffffffff7ffdcfe0>
    80000d14:	97a2                	add	a5,a5,s0
    80000d16:	3b07b783          	ld	a5,944(a5)
    80000d1a:	fcf43023          	sd	a5,-64(s0)

  mat_t *matOut = (mat_t*)dout;
    80000d1e:	77fd                	lui	a5,0xfffff
    80000d20:	17c1                	addi	a5,a5,-16 # ffffffffffffeff0 <out+0xffffffff7ffdcfe0>
    80000d22:	97a2                	add	a5,a5,s0
    80000d24:	3a87b783          	ld	a5,936(a5)
    80000d28:	faf43c23          	sd	a5,-72(s0)

  // Fetch
  for (int i = 0; i < SIZE/2; i++)
    80000d2c:	fe042623          	sw	zero,-20(s0)
    80000d30:	a851                	j	80000dc4 <strassen_mul+0xf0>
    for (int j = 0;  j < SIZE/2; j++){
    80000d32:	fe042423          	sw	zero,-24(s0)
    80000d36:	a89d                	j	80000dac <strassen_mul+0xd8>
      matA[i][j] = dinA[i*(SIZE/2)+j];
    80000d38:	fec42783          	lw	a5,-20(s0)
    80000d3c:	0057979b          	slliw	a5,a5,0x5
    80000d40:	2781                	sext.w	a5,a5
    80000d42:	fe842703          	lw	a4,-24(s0)
    80000d46:	9fb9                	addw	a5,a5,a4
    80000d48:	2781                	sext.w	a5,a5
    80000d4a:	873e                	mv	a4,a5
    80000d4c:	fc843783          	ld	a5,-56(s0)
    80000d50:	97ba                	add	a5,a5,a4
    80000d52:	0007c703          	lbu	a4,0(a5)
    80000d56:	fe842683          	lw	a3,-24(s0)
    80000d5a:	fec42783          	lw	a5,-20(s0)
    80000d5e:	0796                	slli	a5,a5,0x5
    80000d60:	17c1                	addi	a5,a5,-16
    80000d62:	97a2                	add	a5,a5,s0
    80000d64:	97b6                	add	a5,a5,a3
    80000d66:	bce78423          	sb	a4,-1080(a5)
      matB[i][j] = dinB[i*(SIZE/2)+j];
    80000d6a:	fec42783          	lw	a5,-20(s0)
    80000d6e:	0057979b          	slliw	a5,a5,0x5
    80000d72:	2781                	sext.w	a5,a5
    80000d74:	fe842703          	lw	a4,-24(s0)
    80000d78:	9fb9                	addw	a5,a5,a4
    80000d7a:	2781                	sext.w	a5,a5
    80000d7c:	873e                	mv	a4,a5
    80000d7e:	fc043783          	ld	a5,-64(s0)
    80000d82:	97ba                	add	a5,a5,a4
    80000d84:	0007c703          	lbu	a4,0(a5)
    80000d88:	77fd                	lui	a5,0xfffff
    80000d8a:	17c1                	addi	a5,a5,-16 # ffffffffffffeff0 <out+0xffffffff7ffdcfe0>
    80000d8c:	00878633          	add	a2,a5,s0
    80000d90:	fe842683          	lw	a3,-24(s0)
    80000d94:	fec42783          	lw	a5,-20(s0)
    80000d98:	0796                	slli	a5,a5,0x5
    80000d9a:	97b2                	add	a5,a5,a2
    80000d9c:	97b6                	add	a5,a5,a3
    80000d9e:	7ce78423          	sb	a4,1992(a5)
    for (int j = 0;  j < SIZE/2; j++){
    80000da2:	fe842783          	lw	a5,-24(s0)
    80000da6:	2785                	addiw	a5,a5,1
    80000da8:	fef42423          	sw	a5,-24(s0)
    80000dac:	fe842783          	lw	a5,-24(s0)
    80000db0:	0007871b          	sext.w	a4,a5
    80000db4:	47fd                	li	a5,31
    80000db6:	f8e7d1e3          	bge	a5,a4,80000d38 <strassen_mul+0x64>
  for (int i = 0; i < SIZE/2; i++)
    80000dba:	fec42783          	lw	a5,-20(s0)
    80000dbe:	2785                	addiw	a5,a5,1
    80000dc0:	fef42623          	sw	a5,-20(s0)
    80000dc4:	fec42783          	lw	a5,-20(s0)
    80000dc8:	0007871b          	sext.w	a4,a5
    80000dcc:	47fd                	li	a5,31
    80000dce:	f6e7d2e3          	bge	a5,a4,80000d32 <strassen_mul+0x5e>
    }

  // Multiplication
  for (int i = 0; i < SIZE/2; i++)
    80000dd2:	fe042223          	sw	zero,-28(s0)
    80000dd6:	a06d                	j	80000e80 <strassen_mul+0x1ac>
    for (int j = 0;  j < SIZE/2; j++){
    80000dd8:	fe042023          	sw	zero,-32(s0)
    80000ddc:	a071                	j	80000e68 <strassen_mul+0x194>
      mat_t sum = 0;
    80000dde:	fc040fa3          	sb	zero,-33(s0)
      for (int k = 0; k < SIZE/2; k++) {
    80000de2:	fc042c23          	sw	zero,-40(s0)
    80000de6:	a0b1                	j	80000e32 <strassen_mul+0x15e>
        sum += matA[i][k]*matB[k][j]; 
    80000de8:	fd842703          	lw	a4,-40(s0)
    80000dec:	fe442783          	lw	a5,-28(s0)
    80000df0:	0796                	slli	a5,a5,0x5
    80000df2:	17c1                	addi	a5,a5,-16
    80000df4:	97a2                	add	a5,a5,s0
    80000df6:	97ba                	add	a5,a5,a4
    80000df8:	bc87c703          	lbu	a4,-1080(a5)
    80000dfc:	77fd                	lui	a5,0xfffff
    80000dfe:	17c1                	addi	a5,a5,-16 # ffffffffffffeff0 <out+0xffffffff7ffdcfe0>
    80000e00:	00878633          	add	a2,a5,s0
    80000e04:	fe042683          	lw	a3,-32(s0)
    80000e08:	fd842783          	lw	a5,-40(s0)
    80000e0c:	0796                	slli	a5,a5,0x5
    80000e0e:	97b2                	add	a5,a5,a2
    80000e10:	97b6                	add	a5,a5,a3
    80000e12:	7c87c783          	lbu	a5,1992(a5)
    80000e16:	02f707bb          	mulw	a5,a4,a5
    80000e1a:	0ff7f793          	zext.b	a5,a5
    80000e1e:	fdf44703          	lbu	a4,-33(s0)
    80000e22:	9fb9                	addw	a5,a5,a4
    80000e24:	fcf40fa3          	sb	a5,-33(s0)
      for (int k = 0; k < SIZE/2; k++) {
    80000e28:	fd842783          	lw	a5,-40(s0)
    80000e2c:	2785                	addiw	a5,a5,1
    80000e2e:	fcf42c23          	sw	a5,-40(s0)
    80000e32:	fd842783          	lw	a5,-40(s0)
    80000e36:	0007871b          	sext.w	a4,a5
    80000e3a:	47fd                	li	a5,31
    80000e3c:	fae7d6e3          	bge	a5,a4,80000de8 <strassen_mul+0x114>
      }
      matC[i][j] = sum;
    80000e40:	77fd                	lui	a5,0xfffff
    80000e42:	17c1                	addi	a5,a5,-16 # ffffffffffffeff0 <out+0xffffffff7ffdcfe0>
    80000e44:	008786b3          	add	a3,a5,s0
    80000e48:	fe042703          	lw	a4,-32(s0)
    80000e4c:	fe442783          	lw	a5,-28(s0)
    80000e50:	0796                	slli	a5,a5,0x5
    80000e52:	97b6                	add	a5,a5,a3
    80000e54:	97ba                	add	a5,a5,a4
    80000e56:	fdf44703          	lbu	a4,-33(s0)
    80000e5a:	3ce78423          	sb	a4,968(a5)
    for (int j = 0;  j < SIZE/2; j++){
    80000e5e:	fe042783          	lw	a5,-32(s0)
    80000e62:	2785                	addiw	a5,a5,1
    80000e64:	fef42023          	sw	a5,-32(s0)
    80000e68:	fe042783          	lw	a5,-32(s0)
    80000e6c:	0007871b          	sext.w	a4,a5
    80000e70:	47fd                	li	a5,31
    80000e72:	f6e7d6e3          	bge	a5,a4,80000dde <strassen_mul+0x10a>
  for (int i = 0; i < SIZE/2; i++)
    80000e76:	fe442783          	lw	a5,-28(s0)
    80000e7a:	2785                	addiw	a5,a5,1
    80000e7c:	fef42223          	sw	a5,-28(s0)
    80000e80:	fe442783          	lw	a5,-28(s0)
    80000e84:	0007871b          	sext.w	a4,a5
    80000e88:	47fd                	li	a5,31
    80000e8a:	f4e7d7e3          	bge	a5,a4,80000dd8 <strassen_mul+0x104>
    }

  // Writeback
  for (int i = 0; i < SIZE/2; i++)
    80000e8e:	fc042a23          	sw	zero,-44(s0)
    80000e92:	a08d                	j	80000ef4 <strassen_mul+0x220>
    for (int j = 0;  j < SIZE/2; j++)
    80000e94:	fc042823          	sw	zero,-48(s0)
    80000e98:	a091                	j	80000edc <strassen_mul+0x208>
      matOut[i*(SIZE/2) + j] = matC[i][j];
    80000e9a:	fd442783          	lw	a5,-44(s0)
    80000e9e:	0057979b          	slliw	a5,a5,0x5
    80000ea2:	2781                	sext.w	a5,a5
    80000ea4:	fd042703          	lw	a4,-48(s0)
    80000ea8:	9fb9                	addw	a5,a5,a4
    80000eaa:	2781                	sext.w	a5,a5
    80000eac:	873e                	mv	a4,a5
    80000eae:	fb843783          	ld	a5,-72(s0)
    80000eb2:	973e                	add	a4,a4,a5
    80000eb4:	77fd                	lui	a5,0xfffff
    80000eb6:	17c1                	addi	a5,a5,-16 # ffffffffffffeff0 <out+0xffffffff7ffdcfe0>
    80000eb8:	00878633          	add	a2,a5,s0
    80000ebc:	fd042683          	lw	a3,-48(s0)
    80000ec0:	fd442783          	lw	a5,-44(s0)
    80000ec4:	0796                	slli	a5,a5,0x5
    80000ec6:	97b2                	add	a5,a5,a2
    80000ec8:	97b6                	add	a5,a5,a3
    80000eca:	3c87c783          	lbu	a5,968(a5)
    80000ece:	00f70023          	sb	a5,0(a4)
    for (int j = 0;  j < SIZE/2; j++)
    80000ed2:	fd042783          	lw	a5,-48(s0)
    80000ed6:	2785                	addiw	a5,a5,1
    80000ed8:	fcf42823          	sw	a5,-48(s0)
    80000edc:	fd042783          	lw	a5,-48(s0)
    80000ee0:	0007871b          	sext.w	a4,a5
    80000ee4:	47fd                	li	a5,31
    80000ee6:	fae7dae3          	bge	a5,a4,80000e9a <strassen_mul+0x1c6>
  for (int i = 0; i < SIZE/2; i++)
    80000eea:	fd442783          	lw	a5,-44(s0)
    80000eee:	2785                	addiw	a5,a5,1
    80000ef0:	fcf42a23          	sw	a5,-44(s0)
    80000ef4:	fd442783          	lw	a5,-44(s0)
    80000ef8:	0007871b          	sext.w	a4,a5
    80000efc:	47fd                	li	a5,31
    80000efe:	f8e7dbe3          	bge	a5,a4,80000e94 <strassen_mul+0x1c0>
  
}
    80000f02:	0001                	nop
    80000f04:	0001                	nop
    80000f06:	48010113          	addi	sp,sp,1152
    80000f0a:	7e813403          	ld	s0,2024(sp)
    80000f0e:	7f010113          	addi	sp,sp,2032
    80000f12:	8082                	ret

0000000080000f14 <strassen_add>:

void strassen_add(void *din0, void *din1, void *dout) {
    80000f14:	81010113          	addi	sp,sp,-2032
    80000f18:	7e813423          	sd	s0,2024(sp)
    80000f1c:	7f010413          	addi	s0,sp,2032
    80000f20:	b9010113          	addi	sp,sp,-1136
    80000f24:	77fd                	lui	a5,0xfffff
    80000f26:	17c1                	addi	a5,a5,-16 # ffffffffffffeff0 <out+0xffffffff7ffdcfe0>
    80000f28:	97a2                	add	a5,a5,s0
    80000f2a:	3ca7b423          	sd	a0,968(a5)
    80000f2e:	77fd                	lui	a5,0xfffff
    80000f30:	17c1                	addi	a5,a5,-16 # ffffffffffffeff0 <out+0xffffffff7ffdcfe0>
    80000f32:	97a2                	add	a5,a5,s0
    80000f34:	3cb7b023          	sd	a1,960(a5)
    80000f38:	77fd                	lui	a5,0xfffff
    80000f3a:	17c1                	addi	a5,a5,-16 # ffffffffffffeff0 <out+0xffffffff7ffdcfe0>
    80000f3c:	97a2                	add	a5,a5,s0
    80000f3e:	3ac7bc23          	sd	a2,952(a5)
  mat_t matA[SIZE/2][SIZE/2];
  mat_t matB[SIZE/2][SIZE/2];
  mat_t matC[SIZE/2][SIZE/2];

  mat_t *dinA = (mat_t*)din0;
    80000f42:	77fd                	lui	a5,0xfffff
    80000f44:	17c1                	addi	a5,a5,-16 # ffffffffffffeff0 <out+0xffffffff7ffdcfe0>
    80000f46:	97a2                	add	a5,a5,s0
    80000f48:	3c87b783          	ld	a5,968(a5)
    80000f4c:	fcf43823          	sd	a5,-48(s0)
  mat_t *dinB = (mat_t*)din1;
    80000f50:	77fd                	lui	a5,0xfffff
    80000f52:	17c1                	addi	a5,a5,-16 # ffffffffffffeff0 <out+0xffffffff7ffdcfe0>
    80000f54:	97a2                	add	a5,a5,s0
    80000f56:	3c07b783          	ld	a5,960(a5)
    80000f5a:	fcf43423          	sd	a5,-56(s0)
  mat_t *matOut = (mat_t*)dout;
    80000f5e:	77fd                	lui	a5,0xfffff
    80000f60:	17c1                	addi	a5,a5,-16 # ffffffffffffeff0 <out+0xffffffff7ffdcfe0>
    80000f62:	97a2                	add	a5,a5,s0
    80000f64:	3b87b783          	ld	a5,952(a5)
    80000f68:	fcf43023          	sd	a5,-64(s0)

  // Fetch
  for (int i = 0; i < SIZE/2; i++)
    80000f6c:	fe042623          	sw	zero,-20(s0)
    80000f70:	a851                	j	80001004 <strassen_add+0xf0>
    for (int j = 0;  j < SIZE/2; j++){
    80000f72:	fe042423          	sw	zero,-24(s0)
    80000f76:	a89d                	j	80000fec <strassen_add+0xd8>
      matA[i][j] = dinA[i*(SIZE/2)+j];
    80000f78:	fec42783          	lw	a5,-20(s0)
    80000f7c:	0057979b          	slliw	a5,a5,0x5
    80000f80:	2781                	sext.w	a5,a5
    80000f82:	fe842703          	lw	a4,-24(s0)
    80000f86:	9fb9                	addw	a5,a5,a4
    80000f88:	2781                	sext.w	a5,a5
    80000f8a:	873e                	mv	a4,a5
    80000f8c:	fd043783          	ld	a5,-48(s0)
    80000f90:	97ba                	add	a5,a5,a4
    80000f92:	0007c703          	lbu	a4,0(a5)
    80000f96:	fe842683          	lw	a3,-24(s0)
    80000f9a:	fec42783          	lw	a5,-20(s0)
    80000f9e:	0796                	slli	a5,a5,0x5
    80000fa0:	17c1                	addi	a5,a5,-16
    80000fa2:	97a2                	add	a5,a5,s0
    80000fa4:	97b6                	add	a5,a5,a3
    80000fa6:	bce78823          	sb	a4,-1072(a5)
      matB[i][j] = dinB[i*(SIZE/2)+j];
    80000faa:	fec42783          	lw	a5,-20(s0)
    80000fae:	0057979b          	slliw	a5,a5,0x5
    80000fb2:	2781                	sext.w	a5,a5
    80000fb4:	fe842703          	lw	a4,-24(s0)
    80000fb8:	9fb9                	addw	a5,a5,a4
    80000fba:	2781                	sext.w	a5,a5
    80000fbc:	873e                	mv	a4,a5
    80000fbe:	fc843783          	ld	a5,-56(s0)
    80000fc2:	97ba                	add	a5,a5,a4
    80000fc4:	0007c703          	lbu	a4,0(a5)
    80000fc8:	77fd                	lui	a5,0xfffff
    80000fca:	17c1                	addi	a5,a5,-16 # ffffffffffffeff0 <out+0xffffffff7ffdcfe0>
    80000fcc:	00878633          	add	a2,a5,s0
    80000fd0:	fe842683          	lw	a3,-24(s0)
    80000fd4:	fec42783          	lw	a5,-20(s0)
    80000fd8:	0796                	slli	a5,a5,0x5
    80000fda:	97b2                	add	a5,a5,a2
    80000fdc:	97b6                	add	a5,a5,a3
    80000fde:	7ce78823          	sb	a4,2000(a5)
    for (int j = 0;  j < SIZE/2; j++){
    80000fe2:	fe842783          	lw	a5,-24(s0)
    80000fe6:	2785                	addiw	a5,a5,1
    80000fe8:	fef42423          	sw	a5,-24(s0)
    80000fec:	fe842783          	lw	a5,-24(s0)
    80000ff0:	0007871b          	sext.w	a4,a5
    80000ff4:	47fd                	li	a5,31
    80000ff6:	f8e7d1e3          	bge	a5,a4,80000f78 <strassen_add+0x64>
  for (int i = 0; i < SIZE/2; i++)
    80000ffa:	fec42783          	lw	a5,-20(s0)
    80000ffe:	2785                	addiw	a5,a5,1
    80001000:	fef42623          	sw	a5,-20(s0)
    80001004:	fec42783          	lw	a5,-20(s0)
    80001008:	0007871b          	sext.w	a4,a5
    8000100c:	47fd                	li	a5,31
    8000100e:	f6e7d2e3          	bge	a5,a4,80000f72 <strassen_add+0x5e>
    }

  for (int i = 0; i < SIZE/2; i++)
    80001012:	fe042223          	sw	zero,-28(s0)
    80001016:	a8a5                	j	8000108e <strassen_add+0x17a>
    for (int j = 0;  j < SIZE/2; j++)
    80001018:	fe042023          	sw	zero,-32(s0)
    8000101c:	a8a9                	j	80001076 <strassen_add+0x162>
      matC[i][j] = matA[i][j] + matB[i][j];
    8000101e:	fe042703          	lw	a4,-32(s0)
    80001022:	fe442783          	lw	a5,-28(s0)
    80001026:	0796                	slli	a5,a5,0x5
    80001028:	17c1                	addi	a5,a5,-16
    8000102a:	97a2                	add	a5,a5,s0
    8000102c:	97ba                	add	a5,a5,a4
    8000102e:	bd07c703          	lbu	a4,-1072(a5)
    80001032:	77fd                	lui	a5,0xfffff
    80001034:	17c1                	addi	a5,a5,-16 # ffffffffffffeff0 <out+0xffffffff7ffdcfe0>
    80001036:	00878633          	add	a2,a5,s0
    8000103a:	fe042683          	lw	a3,-32(s0)
    8000103e:	fe442783          	lw	a5,-28(s0)
    80001042:	0796                	slli	a5,a5,0x5
    80001044:	97b2                	add	a5,a5,a2
    80001046:	97b6                	add	a5,a5,a3
    80001048:	7d07c783          	lbu	a5,2000(a5)
    8000104c:	9fb9                	addw	a5,a5,a4
    8000104e:	0ff7f713          	zext.b	a4,a5
    80001052:	77fd                	lui	a5,0xfffff
    80001054:	17c1                	addi	a5,a5,-16 # ffffffffffffeff0 <out+0xffffffff7ffdcfe0>
    80001056:	00878633          	add	a2,a5,s0
    8000105a:	fe042683          	lw	a3,-32(s0)
    8000105e:	fe442783          	lw	a5,-28(s0)
    80001062:	0796                	slli	a5,a5,0x5
    80001064:	97b2                	add	a5,a5,a2
    80001066:	97b6                	add	a5,a5,a3
    80001068:	3ce78823          	sb	a4,976(a5)
    for (int j = 0;  j < SIZE/2; j++)
    8000106c:	fe042783          	lw	a5,-32(s0)
    80001070:	2785                	addiw	a5,a5,1
    80001072:	fef42023          	sw	a5,-32(s0)
    80001076:	fe042783          	lw	a5,-32(s0)
    8000107a:	0007871b          	sext.w	a4,a5
    8000107e:	47fd                	li	a5,31
    80001080:	f8e7dfe3          	bge	a5,a4,8000101e <strassen_add+0x10a>
  for (int i = 0; i < SIZE/2; i++)
    80001084:	fe442783          	lw	a5,-28(s0)
    80001088:	2785                	addiw	a5,a5,1
    8000108a:	fef42223          	sw	a5,-28(s0)
    8000108e:	fe442783          	lw	a5,-28(s0)
    80001092:	0007871b          	sext.w	a4,a5
    80001096:	47fd                	li	a5,31
    80001098:	f8e7d0e3          	bge	a5,a4,80001018 <strassen_add+0x104>

  // Writeback
  for (int i = 0; i < SIZE/2; i++)
    8000109c:	fc042e23          	sw	zero,-36(s0)
    800010a0:	a08d                	j	80001102 <strassen_add+0x1ee>
    for (int j = 0;  j < SIZE/2; j++)
    800010a2:	fc042c23          	sw	zero,-40(s0)
    800010a6:	a091                	j	800010ea <strassen_add+0x1d6>
      matOut[i*(SIZE/2) + j] = matC[i][j];
    800010a8:	fdc42783          	lw	a5,-36(s0)
    800010ac:	0057979b          	slliw	a5,a5,0x5
    800010b0:	2781                	sext.w	a5,a5
    800010b2:	fd842703          	lw	a4,-40(s0)
    800010b6:	9fb9                	addw	a5,a5,a4
    800010b8:	2781                	sext.w	a5,a5
    800010ba:	873e                	mv	a4,a5
    800010bc:	fc043783          	ld	a5,-64(s0)
    800010c0:	973e                	add	a4,a4,a5
    800010c2:	77fd                	lui	a5,0xfffff
    800010c4:	17c1                	addi	a5,a5,-16 # ffffffffffffeff0 <out+0xffffffff7ffdcfe0>
    800010c6:	00878633          	add	a2,a5,s0
    800010ca:	fd842683          	lw	a3,-40(s0)
    800010ce:	fdc42783          	lw	a5,-36(s0)
    800010d2:	0796                	slli	a5,a5,0x5
    800010d4:	97b2                	add	a5,a5,a2
    800010d6:	97b6                	add	a5,a5,a3
    800010d8:	3d07c783          	lbu	a5,976(a5)
    800010dc:	00f70023          	sb	a5,0(a4)
    for (int j = 0;  j < SIZE/2; j++)
    800010e0:	fd842783          	lw	a5,-40(s0)
    800010e4:	2785                	addiw	a5,a5,1
    800010e6:	fcf42c23          	sw	a5,-40(s0)
    800010ea:	fd842783          	lw	a5,-40(s0)
    800010ee:	0007871b          	sext.w	a4,a5
    800010f2:	47fd                	li	a5,31
    800010f4:	fae7dae3          	bge	a5,a4,800010a8 <strassen_add+0x194>
  for (int i = 0; i < SIZE/2; i++)
    800010f8:	fdc42783          	lw	a5,-36(s0)
    800010fc:	2785                	addiw	a5,a5,1
    800010fe:	fcf42e23          	sw	a5,-36(s0)
    80001102:	fdc42783          	lw	a5,-36(s0)
    80001106:	0007871b          	sext.w	a4,a5
    8000110a:	47fd                	li	a5,31
    8000110c:	f8e7dbe3          	bge	a5,a4,800010a2 <strassen_add+0x18e>

}
    80001110:	0001                	nop
    80001112:	0001                	nop
    80001114:	47010113          	addi	sp,sp,1136
    80001118:	7e813403          	ld	s0,2024(sp)
    8000111c:	7f010113          	addi	sp,sp,2032
    80001120:	8082                	ret

0000000080001122 <main>:

int main(int hartid, char **argv) {
    80001122:	7155                	addi	sp,sp,-208
    80001124:	e586                	sd	ra,200(sp)
    80001126:	e1a2                	sd	s0,192(sp)
    80001128:	0980                	addi	s0,sp,208
    8000112a:	72f5                	lui	t0,0xffffd
    8000112c:	9116                	add	sp,sp,t0
    8000112e:	872a                	mv	a4,a0
    80001130:	77f5                	lui	a5,0xffffd
    80001132:	17c1                	addi	a5,a5,-16 # ffffffffffffcff0 <out+0xffffffff7ffdafe0>
    80001134:	97a2                	add	a5,a5,s0
    80001136:	f4b7b023          	sd	a1,-192(a5)
    8000113a:	77f5                	lui	a5,0xffffd
    8000113c:	17c1                	addi	a5,a5,-16 # ffffffffffffcff0 <out+0xffffffff7ffdafe0>
    8000113e:	97a2                	add	a5,a5,s0
    80001140:	f4e7a623          	sw	a4,-180(a5)

  REG32(uart, UART_REG_TXCTRL) = UART_TXEN;
    80001144:	640007b7          	lui	a5,0x64000
    80001148:	07a1                	addi	a5,a5,8 # 64000008 <_prog_start-0x1bfffff8>
    8000114a:	4705                	li	a4,1
    8000114c:	c398                	sw	a4,0(a5)
  mat_t matA[SIZE][SIZE];
  mat_t matB[SIZE][SIZE];
  mat_t matC[SIZE][SIZE];

  // Intialize
  for (int i = 0; i < SIZE; i++)
    8000114e:	fe042623          	sw	zero,-20(s0)
    80001152:	a85d                	j	80001208 <main+0xe6>
    for (int j = 0;  j < SIZE; j++){
    80001154:	fe042423          	sw	zero,-24(s0)
    80001158:	a859                	j	800011ee <main+0xcc>
      matA[i][j] = i*SIZE + j;
    8000115a:	fec42783          	lw	a5,-20(s0)
    8000115e:	0ff7f793          	zext.b	a5,a5
    80001162:	0067979b          	slliw	a5,a5,0x6
    80001166:	0ff7f713          	zext.b	a4,a5
    8000116a:	fe842783          	lw	a5,-24(s0)
    8000116e:	0ff7f793          	zext.b	a5,a5
    80001172:	9fb9                	addw	a5,a5,a4
    80001174:	0ff7f713          	zext.b	a4,a5
    80001178:	77fd                	lui	a5,0xfffff
    8000117a:	17c1                	addi	a5,a5,-16 # ffffffffffffeff0 <out+0xffffffff7ffdcfe0>
    8000117c:	00878633          	add	a2,a5,s0
    80001180:	fe842683          	lw	a3,-24(s0)
    80001184:	fec42783          	lw	a5,-20(s0)
    80001188:	079a                	slli	a5,a5,0x6
    8000118a:	97b2                	add	a5,a5,a2
    8000118c:	97b6                	add	a5,a5,a3
    8000118e:	f4e78c23          	sb	a4,-168(a5)
      matB[i][j] = i*SIZE + j;
    80001192:	fec42783          	lw	a5,-20(s0)
    80001196:	0ff7f793          	zext.b	a5,a5
    8000119a:	0067979b          	slliw	a5,a5,0x6
    8000119e:	0ff7f713          	zext.b	a4,a5
    800011a2:	fe842783          	lw	a5,-24(s0)
    800011a6:	0ff7f793          	zext.b	a5,a5
    800011aa:	9fb9                	addw	a5,a5,a4
    800011ac:	0ff7f713          	zext.b	a4,a5
    800011b0:	77f9                	lui	a5,0xffffe
    800011b2:	17c1                	addi	a5,a5,-16 # ffffffffffffdff0 <out+0xffffffff7ffdbfe0>
    800011b4:	00878633          	add	a2,a5,s0
    800011b8:	fe842683          	lw	a3,-24(s0)
    800011bc:	fec42783          	lw	a5,-20(s0)
    800011c0:	079a                	slli	a5,a5,0x6
    800011c2:	97b2                	add	a5,a5,a2
    800011c4:	97b6                	add	a5,a5,a3
    800011c6:	f4e78c23          	sb	a4,-168(a5)
      matC[i][j] = 0;
    800011ca:	77f5                	lui	a5,0xffffd
    800011cc:	17c1                	addi	a5,a5,-16 # ffffffffffffcff0 <out+0xffffffff7ffdafe0>
    800011ce:	008786b3          	add	a3,a5,s0
    800011d2:	fe842703          	lw	a4,-24(s0)
    800011d6:	fec42783          	lw	a5,-20(s0)
    800011da:	079a                	slli	a5,a5,0x6
    800011dc:	97b6                	add	a5,a5,a3
    800011de:	97ba                	add	a5,a5,a4
    800011e0:	f4078c23          	sb	zero,-168(a5)
    for (int j = 0;  j < SIZE; j++){
    800011e4:	fe842783          	lw	a5,-24(s0)
    800011e8:	2785                	addiw	a5,a5,1
    800011ea:	fef42423          	sw	a5,-24(s0)
    800011ee:	fe842783          	lw	a5,-24(s0)
    800011f2:	0007871b          	sext.w	a4,a5
    800011f6:	03f00793          	li	a5,63
    800011fa:	f6e7d0e3          	bge	a5,a4,8000115a <main+0x38>
  for (int i = 0; i < SIZE; i++)
    800011fe:	fec42783          	lw	a5,-20(s0)
    80001202:	2785                	addiw	a5,a5,1
    80001204:	fef42623          	sw	a5,-20(s0)
    80001208:	fec42783          	lw	a5,-20(s0)
    8000120c:	0007871b          	sext.w	a4,a5
    80001210:	03f00793          	li	a5,63
    80001214:	f4e7d0e3          	bge	a5,a4,80001154 <main+0x32>
    }


  t_start = read_csr(mcycle);
    80001218:	b00027f3          	csrr	a5,mcycle
    8000121c:	f8f43023          	sd	a5,-128(s0)
    80001220:	f8043783          	ld	a5,-128(s0)
    80001224:	f6f43c23          	sd	a5,-136(s0)
  // Multiplication
  for (int i = 0; i < SIZE; i++)
    80001228:	fe042223          	sw	zero,-28(s0)
    8000122c:	a855                	j	800012e0 <main+0x1be>
    for (int j = 0;  j < SIZE; j++){
    8000122e:	fe042023          	sw	zero,-32(s0)
    80001232:	a851                	j	800012c6 <main+0x1a4>
      mat_t sum = 0;
    80001234:	fc040fa3          	sb	zero,-33(s0)
      for (int k = 0; k < SIZE; k++) {
    80001238:	fc042c23          	sw	zero,-40(s0)
    8000123c:	a889                	j	8000128e <main+0x16c>
        sum += matA[i][k]*matB[k][j]; 
    8000123e:	77fd                	lui	a5,0xfffff
    80001240:	17c1                	addi	a5,a5,-16 # ffffffffffffeff0 <out+0xffffffff7ffdcfe0>
    80001242:	008786b3          	add	a3,a5,s0
    80001246:	fd842703          	lw	a4,-40(s0)
    8000124a:	fe442783          	lw	a5,-28(s0)
    8000124e:	079a                	slli	a5,a5,0x6
    80001250:	97b6                	add	a5,a5,a3
    80001252:	97ba                	add	a5,a5,a4
    80001254:	f587c703          	lbu	a4,-168(a5)
    80001258:	77f9                	lui	a5,0xffffe
    8000125a:	17c1                	addi	a5,a5,-16 # ffffffffffffdff0 <out+0xffffffff7ffdbfe0>
    8000125c:	00878633          	add	a2,a5,s0
    80001260:	fe042683          	lw	a3,-32(s0)
    80001264:	fd842783          	lw	a5,-40(s0)
    80001268:	079a                	slli	a5,a5,0x6
    8000126a:	97b2                	add	a5,a5,a2
    8000126c:	97b6                	add	a5,a5,a3
    8000126e:	f587c783          	lbu	a5,-168(a5)
    80001272:	02f707bb          	mulw	a5,a4,a5
    80001276:	0ff7f793          	zext.b	a5,a5
    8000127a:	fdf44703          	lbu	a4,-33(s0)
    8000127e:	9fb9                	addw	a5,a5,a4
    80001280:	fcf40fa3          	sb	a5,-33(s0)
      for (int k = 0; k < SIZE; k++) {
    80001284:	fd842783          	lw	a5,-40(s0)
    80001288:	2785                	addiw	a5,a5,1
    8000128a:	fcf42c23          	sw	a5,-40(s0)
    8000128e:	fd842783          	lw	a5,-40(s0)
    80001292:	0007871b          	sext.w	a4,a5
    80001296:	03f00793          	li	a5,63
    8000129a:	fae7d2e3          	bge	a5,a4,8000123e <main+0x11c>
      }
      matC[i][j] = sum;
    8000129e:	77f5                	lui	a5,0xffffd
    800012a0:	17c1                	addi	a5,a5,-16 # ffffffffffffcff0 <out+0xffffffff7ffdafe0>
    800012a2:	008786b3          	add	a3,a5,s0
    800012a6:	fe042703          	lw	a4,-32(s0)
    800012aa:	fe442783          	lw	a5,-28(s0)
    800012ae:	079a                	slli	a5,a5,0x6
    800012b0:	97b6                	add	a5,a5,a3
    800012b2:	97ba                	add	a5,a5,a4
    800012b4:	fdf44703          	lbu	a4,-33(s0)
    800012b8:	f4e78c23          	sb	a4,-168(a5)
    for (int j = 0;  j < SIZE; j++){
    800012bc:	fe042783          	lw	a5,-32(s0)
    800012c0:	2785                	addiw	a5,a5,1
    800012c2:	fef42023          	sw	a5,-32(s0)
    800012c6:	fe042783          	lw	a5,-32(s0)
    800012ca:	0007871b          	sext.w	a4,a5
    800012ce:	03f00793          	li	a5,63
    800012d2:	f6e7d1e3          	bge	a5,a4,80001234 <main+0x112>
  for (int i = 0; i < SIZE; i++)
    800012d6:	fe442783          	lw	a5,-28(s0)
    800012da:	2785                	addiw	a5,a5,1
    800012dc:	fef42223          	sw	a5,-28(s0)
    800012e0:	fe442783          	lw	a5,-28(s0)
    800012e4:	0007871b          	sext.w	a4,a5
    800012e8:	03f00793          	li	a5,63
    800012ec:	f4e7d1e3          	bge	a5,a4,8000122e <main+0x10c>
    }
  t_end = read_csr(mcycle);
    800012f0:	b00027f3          	csrr	a5,mcycle
    800012f4:	f6f43823          	sd	a5,-144(s0)
    800012f8:	f7043783          	ld	a5,-144(s0)
    800012fc:	f6f43423          	sd	a5,-152(s0)

  ts_gap = t_end - t_start;
    80001300:	f6843703          	ld	a4,-152(s0)
    80001304:	f7843783          	ld	a5,-136(s0)
    80001308:	40f707b3          	sub	a5,a4,a5
    8000130c:	f6f43023          	sd	a5,-160(s0)
  kprintf("Single core: %l(cycles) \r\n", ts_gap);
    80001310:	f6043583          	ld	a1,-160(s0)
    80001314:	00001517          	auipc	a0,0x1
    80001318:	82c50513          	addi	a0,a0,-2004 # 80001b40 <dump+0x60>
    8000131c:	94cff0ef          	jal	ra,80000468 <kprintf>

  // ======================================================
  // Run matrix multiplication on eight core

  t_start = read_csr(mcycle);
    80001320:	b00027f3          	csrr	a5,mcycle
    80001324:	f4f43c23          	sd	a5,-168(s0)
    80001328:	f5843783          	ld	a5,-168(s0)
    8000132c:	f6f43c23          	sd	a5,-136(s0)
  int k = 0;
    80001330:	fc042a23          	sw	zero,-44(s0)

  // Split matrix
  for (int i = 0; i < SIZE/2; i++)
    80001334:	fc042823          	sw	zero,-48(s0)
    80001338:	a071                	j	800013c4 <main+0x2a2>
    for (int j = 0; j < SIZE/2; j++) {
    8000133a:	fc042623          	sw	zero,-52(s0)
    8000133e:	a0bd                	j	800013ac <main+0x28a>
      in0[0][k] = matA[i][j];
    80001340:	77fd                	lui	a5,0xfffff
    80001342:	17c1                	addi	a5,a5,-16 # ffffffffffffeff0 <out+0xffffffff7ffdcfe0>
    80001344:	008786b3          	add	a3,a5,s0
    80001348:	fcc42703          	lw	a4,-52(s0)
    8000134c:	fd042783          	lw	a5,-48(s0)
    80001350:	079a                	slli	a5,a5,0x6
    80001352:	97b6                	add	a5,a5,a3
    80001354:	97ba                	add	a5,a5,a4
    80001356:	f587c703          	lbu	a4,-168(a5)
    8000135a:	0001f697          	auipc	a3,0x1f
    8000135e:	cb668693          	addi	a3,a3,-842 # 80020010 <in0>
    80001362:	fd442783          	lw	a5,-44(s0)
    80001366:	97b6                	add	a5,a5,a3
    80001368:	00e78023          	sb	a4,0(a5)
      in1[0][k] = matB[i][j];
    8000136c:	77f9                	lui	a5,0xffffe
    8000136e:	17c1                	addi	a5,a5,-16 # ffffffffffffdff0 <out+0xffffffff7ffdbfe0>
    80001370:	008786b3          	add	a3,a5,s0
    80001374:	fcc42703          	lw	a4,-52(s0)
    80001378:	fd042783          	lw	a5,-48(s0)
    8000137c:	079a                	slli	a5,a5,0x6
    8000137e:	97b6                	add	a5,a5,a3
    80001380:	97ba                	add	a5,a5,a4
    80001382:	f587c703          	lbu	a4,-168(a5)
    80001386:	00020697          	auipc	a3,0x20
    8000138a:	c8a68693          	addi	a3,a3,-886 # 80021010 <in1>
    8000138e:	fd442783          	lw	a5,-44(s0)
    80001392:	97b6                	add	a5,a5,a3
    80001394:	00e78023          	sb	a4,0(a5)
      k++;
    80001398:	fd442783          	lw	a5,-44(s0)
    8000139c:	2785                	addiw	a5,a5,1
    8000139e:	fcf42a23          	sw	a5,-44(s0)
    for (int j = 0; j < SIZE/2; j++) {
    800013a2:	fcc42783          	lw	a5,-52(s0)
    800013a6:	2785                	addiw	a5,a5,1
    800013a8:	fcf42623          	sw	a5,-52(s0)
    800013ac:	fcc42783          	lw	a5,-52(s0)
    800013b0:	0007871b          	sext.w	a4,a5
    800013b4:	47fd                	li	a5,31
    800013b6:	f8e7d5e3          	bge	a5,a4,80001340 <main+0x21e>
  for (int i = 0; i < SIZE/2; i++)
    800013ba:	fd042783          	lw	a5,-48(s0)
    800013be:	2785                	addiw	a5,a5,1
    800013c0:	fcf42823          	sw	a5,-48(s0)
    800013c4:	fd042783          	lw	a5,-48(s0)
    800013c8:	0007871b          	sext.w	a4,a5
    800013cc:	47fd                	li	a5,31
    800013ce:	f6e7d6e3          	bge	a5,a4,8000133a <main+0x218>
    }
  k = 0;
    800013d2:	fc042a23          	sw	zero,-44(s0)
  for (int i = 0; i < SIZE/2; i++)
    800013d6:	fc042423          	sw	zero,-56(s0)
    800013da:	a871                	j	80001476 <main+0x354>
    for (int j = 0; j < SIZE/2; j++) {
    800013dc:	fc042223          	sw	zero,-60(s0)
    800013e0:	a8bd                	j	8000145e <main+0x33c>
      in0[1][k] = matA[i][j+(SIZE/2)];
    800013e2:	fc442783          	lw	a5,-60(s0)
    800013e6:	0207879b          	addiw	a5,a5,32
    800013ea:	0007871b          	sext.w	a4,a5
    800013ee:	77fd                	lui	a5,0xfffff
    800013f0:	17c1                	addi	a5,a5,-16 # ffffffffffffeff0 <out+0xffffffff7ffdcfe0>
    800013f2:	008786b3          	add	a3,a5,s0
    800013f6:	fc842783          	lw	a5,-56(s0)
    800013fa:	079a                	slli	a5,a5,0x6
    800013fc:	97b6                	add	a5,a5,a3
    800013fe:	97ba                	add	a5,a5,a4
    80001400:	f587c703          	lbu	a4,-168(a5)
    80001404:	0001f697          	auipc	a3,0x1f
    80001408:	c0c68693          	addi	a3,a3,-1012 # 80020010 <in0>
    8000140c:	fd442783          	lw	a5,-44(s0)
    80001410:	97b6                	add	a5,a5,a3
    80001412:	40e78023          	sb	a4,1024(a5)
      in1[1][k] = matB[i][j+(SIZE/2)];
    80001416:	fc442783          	lw	a5,-60(s0)
    8000141a:	0207879b          	addiw	a5,a5,32
    8000141e:	0007871b          	sext.w	a4,a5
    80001422:	77f9                	lui	a5,0xffffe
    80001424:	17c1                	addi	a5,a5,-16 # ffffffffffffdff0 <out+0xffffffff7ffdbfe0>
    80001426:	008786b3          	add	a3,a5,s0
    8000142a:	fc842783          	lw	a5,-56(s0)
    8000142e:	079a                	slli	a5,a5,0x6
    80001430:	97b6                	add	a5,a5,a3
    80001432:	97ba                	add	a5,a5,a4
    80001434:	f587c703          	lbu	a4,-168(a5)
    80001438:	00020697          	auipc	a3,0x20
    8000143c:	bd868693          	addi	a3,a3,-1064 # 80021010 <in1>
    80001440:	fd442783          	lw	a5,-44(s0)
    80001444:	97b6                	add	a5,a5,a3
    80001446:	40e78023          	sb	a4,1024(a5)
      k++;
    8000144a:	fd442783          	lw	a5,-44(s0)
    8000144e:	2785                	addiw	a5,a5,1
    80001450:	fcf42a23          	sw	a5,-44(s0)
    for (int j = 0; j < SIZE/2; j++) {
    80001454:	fc442783          	lw	a5,-60(s0)
    80001458:	2785                	addiw	a5,a5,1
    8000145a:	fcf42223          	sw	a5,-60(s0)
    8000145e:	fc442783          	lw	a5,-60(s0)
    80001462:	0007871b          	sext.w	a4,a5
    80001466:	47fd                	li	a5,31
    80001468:	f6e7dde3          	bge	a5,a4,800013e2 <main+0x2c0>
  for (int i = 0; i < SIZE/2; i++)
    8000146c:	fc842783          	lw	a5,-56(s0)
    80001470:	2785                	addiw	a5,a5,1
    80001472:	fcf42423          	sw	a5,-56(s0)
    80001476:	fc842783          	lw	a5,-56(s0)
    8000147a:	0007871b          	sext.w	a4,a5
    8000147e:	47fd                	li	a5,31
    80001480:	f4e7dee3          	bge	a5,a4,800013dc <main+0x2ba>
    }
  k = 0;
    80001484:	fc042a23          	sw	zero,-44(s0)
  for (int i = 0; i < SIZE/2; i++)
    80001488:	fc042023          	sw	zero,-64(s0)
    8000148c:	a045                	j	8000152c <main+0x40a>
    for (int j = 0; j < SIZE/2; j++) {
    8000148e:	fa042e23          	sw	zero,-68(s0)
    80001492:	a049                	j	80001514 <main+0x3f2>
      in0[2][k] = matA[i+(SIZE/2)][j];
    80001494:	fc042783          	lw	a5,-64(s0)
    80001498:	0207879b          	addiw	a5,a5,32
    8000149c:	2781                	sext.w	a5,a5
    8000149e:	777d                	lui	a4,0xfffff
    800014a0:	1741                	addi	a4,a4,-16 # ffffffffffffeff0 <out+0xffffffff7ffdcfe0>
    800014a2:	008706b3          	add	a3,a4,s0
    800014a6:	fbc42703          	lw	a4,-68(s0)
    800014aa:	079a                	slli	a5,a5,0x6
    800014ac:	97b6                	add	a5,a5,a3
    800014ae:	97ba                	add	a5,a5,a4
    800014b0:	f587c703          	lbu	a4,-168(a5)
    800014b4:	0001f697          	auipc	a3,0x1f
    800014b8:	b5c68693          	addi	a3,a3,-1188 # 80020010 <in0>
    800014bc:	fd442783          	lw	a5,-44(s0)
    800014c0:	97b6                	add	a5,a5,a3
    800014c2:	6685                	lui	a3,0x1
    800014c4:	97b6                	add	a5,a5,a3
    800014c6:	80e78023          	sb	a4,-2048(a5)
      in1[2][k] = matB[i+(SIZE/2)][j];
    800014ca:	fc042783          	lw	a5,-64(s0)
    800014ce:	0207879b          	addiw	a5,a5,32
    800014d2:	2781                	sext.w	a5,a5
    800014d4:	7779                	lui	a4,0xffffe
    800014d6:	1741                	addi	a4,a4,-16 # ffffffffffffdff0 <out+0xffffffff7ffdbfe0>
    800014d8:	008706b3          	add	a3,a4,s0
    800014dc:	fbc42703          	lw	a4,-68(s0)
    800014e0:	079a                	slli	a5,a5,0x6
    800014e2:	97b6                	add	a5,a5,a3
    800014e4:	97ba                	add	a5,a5,a4
    800014e6:	f587c703          	lbu	a4,-168(a5)
    800014ea:	00020697          	auipc	a3,0x20
    800014ee:	b2668693          	addi	a3,a3,-1242 # 80021010 <in1>
    800014f2:	fd442783          	lw	a5,-44(s0)
    800014f6:	97b6                	add	a5,a5,a3
    800014f8:	6685                	lui	a3,0x1
    800014fa:	97b6                	add	a5,a5,a3
    800014fc:	80e78023          	sb	a4,-2048(a5)
      k++;
    80001500:	fd442783          	lw	a5,-44(s0)
    80001504:	2785                	addiw	a5,a5,1
    80001506:	fcf42a23          	sw	a5,-44(s0)
    for (int j = 0; j < SIZE/2; j++) {
    8000150a:	fbc42783          	lw	a5,-68(s0)
    8000150e:	2785                	addiw	a5,a5,1
    80001510:	faf42e23          	sw	a5,-68(s0)
    80001514:	fbc42783          	lw	a5,-68(s0)
    80001518:	0007871b          	sext.w	a4,a5
    8000151c:	47fd                	li	a5,31
    8000151e:	f6e7dbe3          	bge	a5,a4,80001494 <main+0x372>
  for (int i = 0; i < SIZE/2; i++)
    80001522:	fc042783          	lw	a5,-64(s0)
    80001526:	2785                	addiw	a5,a5,1
    80001528:	fcf42023          	sw	a5,-64(s0)
    8000152c:	fc042783          	lw	a5,-64(s0)
    80001530:	0007871b          	sext.w	a4,a5
    80001534:	47fd                	li	a5,31
    80001536:	f4e7dce3          	bge	a5,a4,8000148e <main+0x36c>
    }
  k = 0;
    8000153a:	fc042a23          	sw	zero,-44(s0)
  for (int i = 0; i < SIZE/2; i++)
    8000153e:	fa042c23          	sw	zero,-72(s0)
    80001542:	a065                	j	800015ea <main+0x4c8>
    for (int j = 0; j < SIZE/2; j++) {
    80001544:	fa042a23          	sw	zero,-76(s0)
    80001548:	a069                	j	800015d2 <main+0x4b0>
      in0[3][k] = matA[i+(SIZE/2)][j+(SIZE/2)];
    8000154a:	fb842783          	lw	a5,-72(s0)
    8000154e:	0207879b          	addiw	a5,a5,32
    80001552:	2781                	sext.w	a5,a5
    80001554:	fb442703          	lw	a4,-76(s0)
    80001558:	0207071b          	addiw	a4,a4,32
    8000155c:	2701                	sext.w	a4,a4
    8000155e:	76fd                	lui	a3,0xfffff
    80001560:	16c1                	addi	a3,a3,-16 # ffffffffffffeff0 <out+0xffffffff7ffdcfe0>
    80001562:	96a2                	add	a3,a3,s0
    80001564:	079a                	slli	a5,a5,0x6
    80001566:	97b6                	add	a5,a5,a3
    80001568:	97ba                	add	a5,a5,a4
    8000156a:	f587c703          	lbu	a4,-168(a5)
    8000156e:	0001f697          	auipc	a3,0x1f
    80001572:	aa268693          	addi	a3,a3,-1374 # 80020010 <in0>
    80001576:	fd442783          	lw	a5,-44(s0)
    8000157a:	97b6                	add	a5,a5,a3
    8000157c:	6685                	lui	a3,0x1
    8000157e:	97b6                	add	a5,a5,a3
    80001580:	c0e78023          	sb	a4,-1024(a5)
      in1[3][k] = matB[i+(SIZE/2)][j+(SIZE/2)];
    80001584:	fb842783          	lw	a5,-72(s0)
    80001588:	0207879b          	addiw	a5,a5,32
    8000158c:	2781                	sext.w	a5,a5
    8000158e:	fb442703          	lw	a4,-76(s0)
    80001592:	0207071b          	addiw	a4,a4,32
    80001596:	2701                	sext.w	a4,a4
    80001598:	76f9                	lui	a3,0xffffe
    8000159a:	16c1                	addi	a3,a3,-16 # ffffffffffffdff0 <out+0xffffffff7ffdbfe0>
    8000159c:	96a2                	add	a3,a3,s0
    8000159e:	079a                	slli	a5,a5,0x6
    800015a0:	97b6                	add	a5,a5,a3
    800015a2:	97ba                	add	a5,a5,a4
    800015a4:	f587c703          	lbu	a4,-168(a5)
    800015a8:	00020697          	auipc	a3,0x20
    800015ac:	a6868693          	addi	a3,a3,-1432 # 80021010 <in1>
    800015b0:	fd442783          	lw	a5,-44(s0)
    800015b4:	97b6                	add	a5,a5,a3
    800015b6:	6685                	lui	a3,0x1
    800015b8:	97b6                	add	a5,a5,a3
    800015ba:	c0e78023          	sb	a4,-1024(a5)
      k++;
    800015be:	fd442783          	lw	a5,-44(s0)
    800015c2:	2785                	addiw	a5,a5,1
    800015c4:	fcf42a23          	sw	a5,-44(s0)
    for (int j = 0; j < SIZE/2; j++) {
    800015c8:	fb442783          	lw	a5,-76(s0)
    800015cc:	2785                	addiw	a5,a5,1
    800015ce:	faf42a23          	sw	a5,-76(s0)
    800015d2:	fb442783          	lw	a5,-76(s0)
    800015d6:	0007871b          	sext.w	a4,a5
    800015da:	47fd                	li	a5,31
    800015dc:	f6e7d7e3          	bge	a5,a4,8000154a <main+0x428>
  for (int i = 0; i < SIZE/2; i++)
    800015e0:	fb842783          	lw	a5,-72(s0)
    800015e4:	2785                	addiw	a5,a5,1
    800015e6:	faf42c23          	sw	a5,-72(s0)
    800015ea:	fb842783          	lw	a5,-72(s0)
    800015ee:	0007871b          	sext.w	a4,a5
    800015f2:	47fd                	li	a5,31
    800015f4:	f4e7d8e3          	bge	a5,a4,80001544 <main+0x422>
    }

  // Init number of thread
  thread_init(CORE);
    800015f8:	4521                	li	a0,8
    800015fa:	91eff0ef          	jal	ra,80000718 <thread_init>

  // Multiplicaton
  thread_create(strassen_mul, &in0[0], &in1[0], out[0]);
    800015fe:	00021697          	auipc	a3,0x21
    80001602:	a1268693          	addi	a3,a3,-1518 # 80022010 <out>
    80001606:	00020617          	auipc	a2,0x20
    8000160a:	a0a60613          	addi	a2,a2,-1526 # 80021010 <in1>
    8000160e:	0001f597          	auipc	a1,0x1f
    80001612:	a0258593          	addi	a1,a1,-1534 # 80020010 <in0>
    80001616:	fffff517          	auipc	a0,0xfffff
    8000161a:	6be50513          	addi	a0,a0,1726 # 80000cd4 <strassen_mul>
    8000161e:	970ff0ef          	jal	ra,8000078e <thread_create>
  thread_create(strassen_mul, &in0[1], &in1[2], out[1]);
    80001622:	00021697          	auipc	a3,0x21
    80001626:	dee68693          	addi	a3,a3,-530 # 80022410 <out+0x400>
    8000162a:	00020617          	auipc	a2,0x20
    8000162e:	1e660613          	addi	a2,a2,486 # 80021810 <in1+0x800>
    80001632:	0001f597          	auipc	a1,0x1f
    80001636:	dde58593          	addi	a1,a1,-546 # 80020410 <in0+0x400>
    8000163a:	fffff517          	auipc	a0,0xfffff
    8000163e:	69a50513          	addi	a0,a0,1690 # 80000cd4 <strassen_mul>
    80001642:	94cff0ef          	jal	ra,8000078e <thread_create>
  thread_create(strassen_mul, &in0[0], &in1[1], out[2]);
    80001646:	00021697          	auipc	a3,0x21
    8000164a:	1ca68693          	addi	a3,a3,458 # 80022810 <out+0x800>
    8000164e:	00020617          	auipc	a2,0x20
    80001652:	dc260613          	addi	a2,a2,-574 # 80021410 <in1+0x400>
    80001656:	0001f597          	auipc	a1,0x1f
    8000165a:	9ba58593          	addi	a1,a1,-1606 # 80020010 <in0>
    8000165e:	fffff517          	auipc	a0,0xfffff
    80001662:	67650513          	addi	a0,a0,1654 # 80000cd4 <strassen_mul>
    80001666:	928ff0ef          	jal	ra,8000078e <thread_create>
  thread_create(strassen_mul, &in0[1], &in1[3], out[3]);
    8000166a:	00021697          	auipc	a3,0x21
    8000166e:	5a668693          	addi	a3,a3,1446 # 80022c10 <out+0xc00>
    80001672:	00020617          	auipc	a2,0x20
    80001676:	59e60613          	addi	a2,a2,1438 # 80021c10 <in1+0xc00>
    8000167a:	0001f597          	auipc	a1,0x1f
    8000167e:	d9658593          	addi	a1,a1,-618 # 80020410 <in0+0x400>
    80001682:	fffff517          	auipc	a0,0xfffff
    80001686:	65250513          	addi	a0,a0,1618 # 80000cd4 <strassen_mul>
    8000168a:	904ff0ef          	jal	ra,8000078e <thread_create>
  thread_create(strassen_mul, &in0[2], &in1[0], out[4]);
    8000168e:	00022697          	auipc	a3,0x22
    80001692:	98268693          	addi	a3,a3,-1662 # 80023010 <out+0x1000>
    80001696:	00020617          	auipc	a2,0x20
    8000169a:	97a60613          	addi	a2,a2,-1670 # 80021010 <in1>
    8000169e:	0001f597          	auipc	a1,0x1f
    800016a2:	17258593          	addi	a1,a1,370 # 80020810 <in0+0x800>
    800016a6:	fffff517          	auipc	a0,0xfffff
    800016aa:	62e50513          	addi	a0,a0,1582 # 80000cd4 <strassen_mul>
    800016ae:	8e0ff0ef          	jal	ra,8000078e <thread_create>
  thread_create(strassen_mul, &in0[3], &in1[2], out[5]);
    800016b2:	00022697          	auipc	a3,0x22
    800016b6:	d5e68693          	addi	a3,a3,-674 # 80023410 <out+0x1400>
    800016ba:	00020617          	auipc	a2,0x20
    800016be:	15660613          	addi	a2,a2,342 # 80021810 <in1+0x800>
    800016c2:	0001f597          	auipc	a1,0x1f
    800016c6:	54e58593          	addi	a1,a1,1358 # 80020c10 <in0+0xc00>
    800016ca:	fffff517          	auipc	a0,0xfffff
    800016ce:	60a50513          	addi	a0,a0,1546 # 80000cd4 <strassen_mul>
    800016d2:	8bcff0ef          	jal	ra,8000078e <thread_create>
  thread_create(strassen_mul, &in0[2], &in1[1], out[6]);
    800016d6:	00022697          	auipc	a3,0x22
    800016da:	13a68693          	addi	a3,a3,314 # 80023810 <out+0x1800>
    800016de:	00020617          	auipc	a2,0x20
    800016e2:	d3260613          	addi	a2,a2,-718 # 80021410 <in1+0x400>
    800016e6:	0001f597          	auipc	a1,0x1f
    800016ea:	12a58593          	addi	a1,a1,298 # 80020810 <in0+0x800>
    800016ee:	fffff517          	auipc	a0,0xfffff
    800016f2:	5e650513          	addi	a0,a0,1510 # 80000cd4 <strassen_mul>
    800016f6:	898ff0ef          	jal	ra,8000078e <thread_create>
  thread_create(strassen_mul, &in0[3], &in1[3], out[7]);
    800016fa:	00022697          	auipc	a3,0x22
    800016fe:	51668693          	addi	a3,a3,1302 # 80023c10 <out+0x1c00>
    80001702:	00020617          	auipc	a2,0x20
    80001706:	50e60613          	addi	a2,a2,1294 # 80021c10 <in1+0xc00>
    8000170a:	0001f597          	auipc	a1,0x1f
    8000170e:	50658593          	addi	a1,a1,1286 # 80020c10 <in0+0xc00>
    80001712:	fffff517          	auipc	a0,0xfffff
    80001716:	5c250513          	addi	a0,a0,1474 # 80000cd4 <strassen_mul>
    8000171a:	874ff0ef          	jal	ra,8000078e <thread_create>
  thread_join();
    8000171e:	aeaff0ef          	jal	ra,80000a08 <thread_join>

  
  // Addition
  thread_create(strassen_add, &out[0], &out[1], out[0]);
    80001722:	00021697          	auipc	a3,0x21
    80001726:	8ee68693          	addi	a3,a3,-1810 # 80022010 <out>
    8000172a:	00021617          	auipc	a2,0x21
    8000172e:	ce660613          	addi	a2,a2,-794 # 80022410 <out+0x400>
    80001732:	00021597          	auipc	a1,0x21
    80001736:	8de58593          	addi	a1,a1,-1826 # 80022010 <out>
    8000173a:	fffff517          	auipc	a0,0xfffff
    8000173e:	7da50513          	addi	a0,a0,2010 # 80000f14 <strassen_add>
    80001742:	84cff0ef          	jal	ra,8000078e <thread_create>
  thread_create(strassen_add, &out[2], &out[3], out[2]);
    80001746:	00021697          	auipc	a3,0x21
    8000174a:	0ca68693          	addi	a3,a3,202 # 80022810 <out+0x800>
    8000174e:	00021617          	auipc	a2,0x21
    80001752:	4c260613          	addi	a2,a2,1218 # 80022c10 <out+0xc00>
    80001756:	00021597          	auipc	a1,0x21
    8000175a:	0ba58593          	addi	a1,a1,186 # 80022810 <out+0x800>
    8000175e:	fffff517          	auipc	a0,0xfffff
    80001762:	7b650513          	addi	a0,a0,1974 # 80000f14 <strassen_add>
    80001766:	828ff0ef          	jal	ra,8000078e <thread_create>
  thread_create(strassen_add, &out[4], &out[5], out[4]);
    8000176a:	00022697          	auipc	a3,0x22
    8000176e:	8a668693          	addi	a3,a3,-1882 # 80023010 <out+0x1000>
    80001772:	00022617          	auipc	a2,0x22
    80001776:	c9e60613          	addi	a2,a2,-866 # 80023410 <out+0x1400>
    8000177a:	00022597          	auipc	a1,0x22
    8000177e:	89658593          	addi	a1,a1,-1898 # 80023010 <out+0x1000>
    80001782:	fffff517          	auipc	a0,0xfffff
    80001786:	79250513          	addi	a0,a0,1938 # 80000f14 <strassen_add>
    8000178a:	804ff0ef          	jal	ra,8000078e <thread_create>
  thread_create(strassen_add, &out[6], &out[7], out[6]);
    8000178e:	00022697          	auipc	a3,0x22
    80001792:	08268693          	addi	a3,a3,130 # 80023810 <out+0x1800>
    80001796:	00022617          	auipc	a2,0x22
    8000179a:	47a60613          	addi	a2,a2,1146 # 80023c10 <out+0x1c00>
    8000179e:	00022597          	auipc	a1,0x22
    800017a2:	07258593          	addi	a1,a1,114 # 80023810 <out+0x1800>
    800017a6:	fffff517          	auipc	a0,0xfffff
    800017aa:	76e50513          	addi	a0,a0,1902 # 80000f14 <strassen_add>
    800017ae:	fe1fe0ef          	jal	ra,8000078e <thread_create>
  thread_join();
    800017b2:	a56ff0ef          	jal	ra,80000a08 <thread_join>

  // Write back result
  k = 0;
    800017b6:	fc042a23          	sw	zero,-44(s0)
  for (int i = 0; i < SIZE/2; i++)
    800017ba:	fa042823          	sw	zero,-80(s0)
    800017be:	a899                	j	80001814 <main+0x6f2>
    for (int j = 0; j < SIZE/2; j++)
    800017c0:	fa042623          	sw	zero,-84(s0)
    800017c4:	a825                	j	800017fc <main+0x6da>
      matC[i][j] = out[0][k];
    800017c6:	00021717          	auipc	a4,0x21
    800017ca:	84a70713          	addi	a4,a4,-1974 # 80022010 <out>
    800017ce:	fd442783          	lw	a5,-44(s0)
    800017d2:	97ba                	add	a5,a5,a4
    800017d4:	0007c703          	lbu	a4,0(a5)
    800017d8:	77f5                	lui	a5,0xffffd
    800017da:	17c1                	addi	a5,a5,-16 # ffffffffffffcff0 <out+0xffffffff7ffdafe0>
    800017dc:	00878633          	add	a2,a5,s0
    800017e0:	fac42683          	lw	a3,-84(s0)
    800017e4:	fb042783          	lw	a5,-80(s0)
    800017e8:	079a                	slli	a5,a5,0x6
    800017ea:	97b2                	add	a5,a5,a2
    800017ec:	97b6                	add	a5,a5,a3
    800017ee:	f4e78c23          	sb	a4,-168(a5)
    for (int j = 0; j < SIZE/2; j++)
    800017f2:	fac42783          	lw	a5,-84(s0)
    800017f6:	2785                	addiw	a5,a5,1
    800017f8:	faf42623          	sw	a5,-84(s0)
    800017fc:	fac42783          	lw	a5,-84(s0)
    80001800:	0007871b          	sext.w	a4,a5
    80001804:	47fd                	li	a5,31
    80001806:	fce7d0e3          	bge	a5,a4,800017c6 <main+0x6a4>
  for (int i = 0; i < SIZE/2; i++)
    8000180a:	fb042783          	lw	a5,-80(s0)
    8000180e:	2785                	addiw	a5,a5,1
    80001810:	faf42823          	sw	a5,-80(s0)
    80001814:	fb042783          	lw	a5,-80(s0)
    80001818:	0007871b          	sext.w	a4,a5
    8000181c:	47fd                	li	a5,31
    8000181e:	fae7d1e3          	bge	a5,a4,800017c0 <main+0x69e>
  k = 0;
    80001822:	fc042a23          	sw	zero,-44(s0)
  for (int i = 0; i < SIZE/2; i++)
    80001826:	fa042423          	sw	zero,-88(s0)
    8000182a:	a08d                	j	8000188c <main+0x76a>
    for (int j = 0; j < SIZE/2; j++)
    8000182c:	fa042223          	sw	zero,-92(s0)
    80001830:	a091                	j	80001874 <main+0x752>
      matC[i][j+SIZE/2] = out[2][k];
    80001832:	fa442783          	lw	a5,-92(s0)
    80001836:	0207879b          	addiw	a5,a5,32
    8000183a:	0007869b          	sext.w	a3,a5
    8000183e:	00020717          	auipc	a4,0x20
    80001842:	7d270713          	addi	a4,a4,2002 # 80022010 <out>
    80001846:	fd442783          	lw	a5,-44(s0)
    8000184a:	97ba                	add	a5,a5,a4
    8000184c:	6705                	lui	a4,0x1
    8000184e:	97ba                	add	a5,a5,a4
    80001850:	8007c703          	lbu	a4,-2048(a5)
    80001854:	77f5                	lui	a5,0xffffd
    80001856:	17c1                	addi	a5,a5,-16 # ffffffffffffcff0 <out+0xffffffff7ffdafe0>
    80001858:	00878633          	add	a2,a5,s0
    8000185c:	fa842783          	lw	a5,-88(s0)
    80001860:	079a                	slli	a5,a5,0x6
    80001862:	97b2                	add	a5,a5,a2
    80001864:	97b6                	add	a5,a5,a3
    80001866:	f4e78c23          	sb	a4,-168(a5)
    for (int j = 0; j < SIZE/2; j++)
    8000186a:	fa442783          	lw	a5,-92(s0)
    8000186e:	2785                	addiw	a5,a5,1
    80001870:	faf42223          	sw	a5,-92(s0)
    80001874:	fa442783          	lw	a5,-92(s0)
    80001878:	0007871b          	sext.w	a4,a5
    8000187c:	47fd                	li	a5,31
    8000187e:	fae7dae3          	bge	a5,a4,80001832 <main+0x710>
  for (int i = 0; i < SIZE/2; i++)
    80001882:	fa842783          	lw	a5,-88(s0)
    80001886:	2785                	addiw	a5,a5,1
    80001888:	faf42423          	sw	a5,-88(s0)
    8000188c:	fa842783          	lw	a5,-88(s0)
    80001890:	0007871b          	sext.w	a4,a5
    80001894:	47fd                	li	a5,31
    80001896:	f8e7dbe3          	bge	a5,a4,8000182c <main+0x70a>
  k = 0;
    8000189a:	fc042a23          	sw	zero,-44(s0)
  for (int i = 0; i < SIZE/2; i++)
    8000189e:	fa042023          	sw	zero,-96(s0)
    800018a2:	a085                	j	80001902 <main+0x7e0>
    for (int j = 0; j < SIZE/2; j++)
    800018a4:	f8042e23          	sw	zero,-100(s0)
    800018a8:	a089                	j	800018ea <main+0x7c8>
      matC[i+SIZE/2][j] = out[4][k];      
    800018aa:	fa042783          	lw	a5,-96(s0)
    800018ae:	0207879b          	addiw	a5,a5,32
    800018b2:	2781                	sext.w	a5,a5
    800018b4:	00020697          	auipc	a3,0x20
    800018b8:	75c68693          	addi	a3,a3,1884 # 80022010 <out>
    800018bc:	fd442703          	lw	a4,-44(s0)
    800018c0:	9736                	add	a4,a4,a3
    800018c2:	6685                	lui	a3,0x1
    800018c4:	9736                	add	a4,a4,a3
    800018c6:	00074703          	lbu	a4,0(a4) # 1000 <_prog_start-0x7ffff000>
    800018ca:	76f5                	lui	a3,0xffffd
    800018cc:	16c1                	addi	a3,a3,-16 # ffffffffffffcff0 <out+0xffffffff7ffdafe0>
    800018ce:	00868633          	add	a2,a3,s0
    800018d2:	f9c42683          	lw	a3,-100(s0)
    800018d6:	079a                	slli	a5,a5,0x6
    800018d8:	97b2                	add	a5,a5,a2
    800018da:	97b6                	add	a5,a5,a3
    800018dc:	f4e78c23          	sb	a4,-168(a5)
    for (int j = 0; j < SIZE/2; j++)
    800018e0:	f9c42783          	lw	a5,-100(s0)
    800018e4:	2785                	addiw	a5,a5,1
    800018e6:	f8f42e23          	sw	a5,-100(s0)
    800018ea:	f9c42783          	lw	a5,-100(s0)
    800018ee:	0007871b          	sext.w	a4,a5
    800018f2:	47fd                	li	a5,31
    800018f4:	fae7dbe3          	bge	a5,a4,800018aa <main+0x788>
  for (int i = 0; i < SIZE/2; i++)
    800018f8:	fa042783          	lw	a5,-96(s0)
    800018fc:	2785                	addiw	a5,a5,1
    800018fe:	faf42023          	sw	a5,-96(s0)
    80001902:	fa042783          	lw	a5,-96(s0)
    80001906:	0007871b          	sext.w	a4,a5
    8000190a:	47fd                	li	a5,31
    8000190c:	f8e7dce3          	bge	a5,a4,800018a4 <main+0x782>
  k = 0;
    80001910:	fc042a23          	sw	zero,-44(s0)
  for (int i = 0; i < SIZE/2; i++)
    80001914:	f8042c23          	sw	zero,-104(s0)
    80001918:	a09d                	j	8000197e <main+0x85c>
    for (int j = 0; j < SIZE/2; j++)
    8000191a:	f8042a23          	sw	zero,-108(s0)
    8000191e:	a0a1                	j	80001966 <main+0x844>
      matC[i+SIZE/2][j+SIZE/2] = out[6][k];
    80001920:	f9842783          	lw	a5,-104(s0)
    80001924:	0207879b          	addiw	a5,a5,32
    80001928:	2781                	sext.w	a5,a5
    8000192a:	f9442703          	lw	a4,-108(s0)
    8000192e:	0207071b          	addiw	a4,a4,32
    80001932:	0007069b          	sext.w	a3,a4
    80001936:	00020617          	auipc	a2,0x20
    8000193a:	6da60613          	addi	a2,a2,1754 # 80022010 <out>
    8000193e:	fd442703          	lw	a4,-44(s0)
    80001942:	9732                	add	a4,a4,a2
    80001944:	6609                	lui	a2,0x2
    80001946:	9732                	add	a4,a4,a2
    80001948:	80074703          	lbu	a4,-2048(a4)
    8000194c:	7675                	lui	a2,0xffffd
    8000194e:	1641                	addi	a2,a2,-16 # ffffffffffffcff0 <out+0xffffffff7ffdafe0>
    80001950:	9622                	add	a2,a2,s0
    80001952:	079a                	slli	a5,a5,0x6
    80001954:	97b2                	add	a5,a5,a2
    80001956:	97b6                	add	a5,a5,a3
    80001958:	f4e78c23          	sb	a4,-168(a5)
    for (int j = 0; j < SIZE/2; j++)
    8000195c:	f9442783          	lw	a5,-108(s0)
    80001960:	2785                	addiw	a5,a5,1
    80001962:	f8f42a23          	sw	a5,-108(s0)
    80001966:	f9442783          	lw	a5,-108(s0)
    8000196a:	0007871b          	sext.w	a4,a5
    8000196e:	47fd                	li	a5,31
    80001970:	fae7d8e3          	bge	a5,a4,80001920 <main+0x7fe>
  for (int i = 0; i < SIZE/2; i++)
    80001974:	f9842783          	lw	a5,-104(s0)
    80001978:	2785                	addiw	a5,a5,1
    8000197a:	f8f42c23          	sw	a5,-104(s0)
    8000197e:	f9842783          	lw	a5,-104(s0)
    80001982:	0007871b          	sext.w	a4,a5
    80001986:	47fd                	li	a5,31
    80001988:	f8e7d9e3          	bge	a5,a4,8000191a <main+0x7f8>
      
  t_end = read_csr(mcycle);
    8000198c:	b00027f3          	csrr	a5,mcycle
    80001990:	f4f43823          	sd	a5,-176(s0)
    80001994:	f5043783          	ld	a5,-176(s0)
    80001998:	f6f43423          	sd	a5,-152(s0)
  tm_gap = t_end - t_start;
    8000199c:	f6843703          	ld	a4,-152(s0)
    800019a0:	f7843783          	ld	a5,-136(s0)
    800019a4:	40f707b3          	sub	a5,a4,a5
    800019a8:	f4f43423          	sd	a5,-184(s0)

  for (int i = 0; i < SIZE; i++) {
    800019ac:	f8042823          	sw	zero,-112(s0)
    800019b0:	a891                	j	80001a04 <main+0x8e2>
    for (int j = 0; j < SIZE; j++)
    800019b2:	f8042623          	sw	zero,-116(s0)
    800019b6:	a815                	j	800019ea <main+0x8c8>
      REG32(dump, 0) =  matC[i][j];
    800019b8:	00000797          	auipc	a5,0x0
    800019bc:	12878793          	addi	a5,a5,296 # 80001ae0 <dump>
    800019c0:	6398                	ld	a4,0(a5)
    800019c2:	77f5                	lui	a5,0xffffd
    800019c4:	17c1                	addi	a5,a5,-16 # ffffffffffffcff0 <out+0xffffffff7ffdafe0>
    800019c6:	00878633          	add	a2,a5,s0
    800019ca:	f8c42683          	lw	a3,-116(s0)
    800019ce:	f9042783          	lw	a5,-112(s0)
    800019d2:	079a                	slli	a5,a5,0x6
    800019d4:	97b2                	add	a5,a5,a2
    800019d6:	97b6                	add	a5,a5,a3
    800019d8:	f587c783          	lbu	a5,-168(a5)
    800019dc:	00f70023          	sb	a5,0(a4)
    for (int j = 0; j < SIZE; j++)
    800019e0:	f8c42783          	lw	a5,-116(s0)
    800019e4:	2785                	addiw	a5,a5,1
    800019e6:	f8f42623          	sw	a5,-116(s0)
    800019ea:	f8c42783          	lw	a5,-116(s0)
    800019ee:	0007871b          	sext.w	a4,a5
    800019f2:	03f00793          	li	a5,63
    800019f6:	fce7d1e3          	bge	a5,a4,800019b8 <main+0x896>
  for (int i = 0; i < SIZE; i++) {
    800019fa:	f9042783          	lw	a5,-112(s0)
    800019fe:	2785                	addiw	a5,a5,1
    80001a00:	f8f42823          	sw	a5,-112(s0)
    80001a04:	f9042783          	lw	a5,-112(s0)
    80001a08:	0007871b          	sext.w	a4,a5
    80001a0c:	03f00793          	li	a5,63
    80001a10:	fae7d1e3          	bge	a5,a4,800019b2 <main+0x890>
  }

kprintf("Multi core: %l(cycles) \r\n", tm_gap);
    80001a14:	f4843583          	ld	a1,-184(s0)
    80001a18:	00000517          	auipc	a0,0x0
    80001a1c:	14850513          	addi	a0,a0,328 # 80001b60 <dump+0x80>
    80001a20:	a49fe0ef          	jal	ra,80000468 <kprintf>
  kprintf("Complete\r\n\r\n");
    80001a24:	00000517          	auipc	a0,0x0
    80001a28:	15c50513          	addi	a0,a0,348 # 80001b80 <dump+0xa0>
    80001a2c:	a3dfe0ef          	jal	ra,80000468 <kprintf>
	
	return 0;
    80001a30:	4781                	li	a5,0
}
    80001a32:	853e                	mv	a0,a5
    80001a34:	628d                	lui	t0,0x3
    80001a36:	9116                	add	sp,sp,t0
    80001a38:	60ae                	ld	ra,200(sp)
    80001a3a:	640e                	ld	s0,192(sp)
    80001a3c:	6169                	addi	sp,sp,208
    80001a3e:	8082                	ret
	...

Disassembly of section .srodata:

0000000080001a80 <uart>:
static volatile uint32_t * const uart = (void *)(UART_CTRL_ADDR);
    80001a80:	0000                	unimp
    80001a82:	6400                	ld	s0,8(s0)
    80001a84:	0000                	unimp
	...

0000000080001a88 <uart>:
    80001a88:	0000                	unimp
    80001a8a:	6400                	ld	s0,8(s0)
    80001a8c:	0000                	unimp
	...
