
/home/binhkieudo/Desktop/RISC-V/HelloMC/build/main.elf:     file format elf64-littleriscv


Disassembly of section .text:

0000000080000000 <_prog_start>:

  .section .text.init
  .option norvc
  .globl _prog_start
_prog_start:
  csrr s0, mhartid
    80000000:	f1402473          	csrr	s0,mhartid
  beq s0, zero, _setup
    80000004:	00040a63          	beqz	s0,80000018 <_setup>
  li s2, 0x8
    80000008:	00800913          	li	s2,8
  csrw mie, s2
    8000000c:	30491073          	csrw	mie,s2
  wfi
    80000010:	10500073          	wfi
  j _main
    80000014:	0140006f          	j	80000028 <_main>

0000000080000018 <_setup>:
_setup:
  li t0, 1
    80000018:	00100293          	li	t0,1
  li a0, (UART_CTRL_ADDR + UART_REG_TXCTRL)
    8000001c:	64000537          	lui	a0,0x64000
    80000020:	0085051b          	addiw	a0,a0,8 # 64000008 <_prog_start-0x1bfffff8>
  sw t0, 0(a0)
    80000024:	00552023          	sw	t0,0(a0)

0000000080000028 <_main>:
_main: // Hart 1 to 4 run main
  csrw mie, zero
    80000028:	30401073          	csrw	mie,zero
  csrr a0, mhartid
    8000002c:	f1402573          	csrr	a0,mhartid
  li s0, 0
    80000030:	00000413          	li	s0,0
  bne a0, s0, _set1
    80000034:	00851863          	bne	a0,s0,80000044 <_set1>

0000000080000038 <_set0>:
_set0:
  li sp, (PRIVATE_MEM_0 + PRIVATE_MEM_SIZE - 16)
    80000038:	40001137          	lui	sp,0x40001
    8000003c:	ff01011b          	addiw	sp,sp,-16 # 40000ff0 <_prog_start-0x3ffff010>
  j _entry
    80000040:	0340006f          	j	80000074 <_entry>

0000000080000044 <_set1>:
_set1:
  li s0, 1
    80000044:	00100413          	li	s0,1
  bne a0, s0, _set2
    80000048:	00851863          	bne	a0,s0,80000058 <_set2>
  li sp, (PRIVATE_MEM_1 + PRIVATE_MEM_SIZE - 16)
    8000004c:	40002137          	lui	sp,0x40002
    80000050:	ff01011b          	addiw	sp,sp,-16 # 40001ff0 <_prog_start-0x3fffe010>
  j _entry
    80000054:	0200006f          	j	80000074 <_entry>

0000000080000058 <_set2>:
_set2:
  li s0, 2
    80000058:	00200413          	li	s0,2
  bne a0, s0, _set3  
    8000005c:	00851863          	bne	a0,s0,8000006c <_set3>
  li sp, (PRIVATE_MEM_2 + PRIVATE_MEM_SIZE - 16)
    80000060:	40003137          	lui	sp,0x40003
    80000064:	ff01011b          	addiw	sp,sp,-16 # 40002ff0 <_prog_start-0x3fffd010>
  j _entry
    80000068:	00c0006f          	j	80000074 <_entry>

000000008000006c <_set3>:
_set3:
  li sp, (PRIVATE_MEM_3 + PRIVATE_MEM_SIZE - 16)
    8000006c:	40004137          	lui	sp,0x40004
    80000070:	ff01011b          	addiw	sp,sp,-16 # 40003ff0 <_prog_start-0x3fffc010>

0000000080000074 <_entry>:
_entry:
  call main
    80000074:	4a4000ef          	jal	ra,80000518 <main>

0000000080000078 <_loopback>:
_loopback:
  li s2, 0x8
    80000078:	00800913          	li	s2,8
  csrw mie, s2
    8000007c:	30491073          	csrw	mie,s2
  wfi
    80000080:	10500073          	wfi
  j _main
    80000084:	fa5ff06f          	j	80000028 <_main>

0000000080000088 <mux_lock>:
  .globl atomic_write
  .globl sem_wait

// ====== Lock ====================  
mux_lock:
    addi sp, sp, -24
    80000088:	fe810113          	addi	sp,sp,-24
    sd  t0, 16(sp)
    8000008c:	00513823          	sd	t0,16(sp)
    sd  t1, 8(sp)
    80000090:	00613423          	sd	t1,8(sp)
    sd  a0, 0(sp)    
    80000094:	00a13023          	sd	a0,0(sp)
    li t0, 1
    80000098:	00100293          	li	t0,1
    li a0, THREAD_QUEUE_ADDR
    8000009c:	70000537          	lui	a0,0x70000

00000000800000a0 <_again>:
_again:
    lw t1, 0(a0)   // Check if lock is held
    800000a0:	00052303          	lw	t1,0(a0) # 70000000 <_prog_start-0x10000000>
    bnez t1, _again  // Retry if held
    800000a4:	fe031ee3          	bnez	t1,800000a0 <_again>
    amoswap.w t1, t0, (a0)
    800000a8:	0855232f          	amoswap.w	t1,t0,(a0)
    bnez t1, _again  // Retry if held
    800000ac:	fe031ae3          	bnez	t1,800000a0 <_again>
    ld  t0, 16(sp)
    800000b0:	01013283          	ld	t0,16(sp)
    ld  t1, 8(sp)
    800000b4:	00813303          	ld	t1,8(sp)
    ld  a0, 0(sp) 
    800000b8:	00013503          	ld	a0,0(sp)
    addi sp, sp, 24
    800000bc:	01810113          	addi	sp,sp,24
    ret
    800000c0:	00008067          	ret

00000000800000c4 <mux_unlock>:

// ====== Unlock ==================
mux_unlock:
    addi sp, sp, -16
    800000c4:	ff010113          	addi	sp,sp,-16
    sd  t0, 8(sp)
    800000c8:	00513423          	sd	t0,8(sp)
    sd  t1, 0(sp)
    800000cc:	00613023          	sd	t1,0(sp)
    li t0, 0
    800000d0:	00000293          	li	t0,0
    li a0, THREAD_QUEUE_ADDR
    800000d4:	70000537          	lui	a0,0x70000
    lw t1, 0(a0)   // Check if lock is held
    800000d8:	00052303          	lw	t1,0(a0) # 70000000 <_prog_start-0x10000000>
    beqz t1, _exit_unlock
    800000dc:	00030463          	beqz	t1,800000e4 <_exit_unlock>
    amoswap.w t0, t0, (a0)
    800000e0:	085522af          	amoswap.w	t0,t0,(a0)

00000000800000e4 <_exit_unlock>:
_exit_unlock:
    ld  t0, 8(sp)
    800000e4:	00813283          	ld	t0,8(sp)
    ld  t1, 0(sp)
    800000e8:	00013303          	ld	t1,0(sp)
    addi sp, sp, 16    
    800000ec:	01010113          	addi	sp,sp,16
    ret
    800000f0:	00008067          	ret

00000000800000f4 <get_hartid>:

// ====== Get hartid ==============
get_hartid:
    csrr a0, mhartid
    800000f4:	f1402573          	csrr	a0,mhartid
    ret
    800000f8:	00008067          	ret

00000000800000fc <atomic_write>:

// ====== Atomic write ============
atomic_write:
    addi sp, sp, -8
    800000fc:	ff810113          	addi	sp,sp,-8
    sd t0, 0(sp)
    80000100:	00513023          	sd	t0,0(sp)
    amoswap.w t0, a1, (a0)
    80000104:	08b522af          	amoswap.w	t0,a1,(a0)
    ld t0, 0(sp)
    80000108:	00013283          	ld	t0,0(sp)
    addi sp, sp, 8    
    8000010c:	00810113          	addi	sp,sp,8
    ret
    80000110:	00008067          	ret

0000000080000114 <sem_wait>:

// ====== Semaphore wait ==========
sem_wait:
    addi sp, sp, -16
    80000114:	ff010113          	addi	sp,sp,-16
    sd  t0, 8(sp)
    80000118:	00513423          	sd	t0,8(sp)
    sd  s0, 0(sp)
    8000011c:	00813023          	sd	s0,0(sp)
    amoswap.w t0, zero, (a0) // Clear interrupt flag
    80000120:	080522af          	amoswap.w	t0,zero,(a0)
    li s0, 0x8 // Enable interrupt
    80000124:	00800413          	li	s0,8
    csrw mie, s0
    80000128:	30441073          	csrw	mie,s0
    wfi
    8000012c:	10500073          	wfi
    csrw mie, zero // Disable interrupt
    80000130:	30401073          	csrw	mie,zero
    amoswap.w t0, zero, (a0) // Clear interrupt flag
    80000134:	080522af          	amoswap.w	t0,zero,(a0)
    ld  t0, 8(sp)
    80000138:	00813283          	ld	t0,8(sp)
    ld  s0, 0(sp)
    8000013c:	00013403          	ld	s0,0(sp)
    addi sp, sp, 16
    80000140:	01010113          	addi	sp,sp,16
    ret
    80000144:	00008067          	ret

0000000080000148 <sem_signal>:

// ====== Semaphore signal ========
sem_signal:
    addi sp, sp, -8
    80000148:	ff810113          	addi	sp,sp,-8
    sd t0, 0(sp)
    8000014c:	00513023          	sd	t0,0(sp)
    li t0, 1 // Set interrupt flag of target core
    80000150:	00100293          	li	t0,1
    amoswap.w t1, t0, (a0)
    80000154:	0855232f          	amoswap.w	t1,t0,(a0)
    ld t0, 0(sp)
    80000158:	00013283          	ld	t0,0(sp)
    addi sp, sp, 8
    8000015c:	00810113          	addi	sp,sp,8
    80000160:	00008067          	ret

0000000080000164 <kputc>:
  #define UART_CTRL_ADDR _UART_CTRL_ADDR(UART_NUM)
#endif
static volatile uint32_t * const uart = (void *)(UART_CTRL_ADDR);

static inline void kputc(char c)
{
    80000164:	7179                	addi	sp,sp,-48
    80000166:	f422                	sd	s0,40(sp)
    80000168:	1800                	addi	s0,sp,48
    8000016a:	87aa                	mv	a5,a0
    8000016c:	fcf40fa3          	sb	a5,-33(s0)
	volatile uint32_t *tx = &REG32(uart, UART_REG_TXFIFO);
    80000170:	640007b7          	lui	a5,0x64000
    80000174:	fef43423          	sd	a5,-24(s0)
#ifdef __riscv_atomic
	int32_t r;
	do {
		__asm__ __volatile__ (
    80000178:	fe843703          	ld	a4,-24(s0)
    8000017c:	fdf44783          	lbu	a5,-33(s0)
    80000180:	86be                	mv	a3,a5
    80000182:	fe843783          	ld	a5,-24(s0)
    80000186:	40d727af          	amoor.w	a5,a3,(a4)
    8000018a:	fef42223          	sw	a5,-28(s0)
			"amoor.w %0, %2, %1\n"
			: "=r" (r), "+A" (*tx)
			: "r" (c));
	} while (r < 0);
    8000018e:	fe442783          	lw	a5,-28(s0)
    80000192:	2781                	sext.w	a5,a5
    80000194:	fe07c2e3          	bltz	a5,80000178 <kputc+0x14>
#else
	while ((int32_t)(*tx) < 0);
	*tx = c;
#endif
}
    80000198:	0001                	nop
    8000019a:	0001                	nop
    8000019c:	7422                	ld	s0,40(sp)
    8000019e:	6145                	addi	sp,sp,48
    800001a0:	8082                	ret

00000000800001a2 <_kputs>:
#include <stdbool.h>

#include "kprintf.h"

static inline void _kputs(const char *s)
{
    800001a2:	7179                	addi	sp,sp,-48
    800001a4:	f406                	sd	ra,40(sp)
    800001a6:	f022                	sd	s0,32(sp)
    800001a8:	1800                	addi	s0,sp,48
    800001aa:	fca43c23          	sd	a0,-40(s0)
	char c;
	for (; (c = *s) != '\0'; s++)
    800001ae:	a819                	j	800001c4 <_kputs+0x22>
		kputc(c);
    800001b0:	fef44783          	lbu	a5,-17(s0)
    800001b4:	853e                	mv	a0,a5
    800001b6:	fafff0ef          	jal	ra,80000164 <kputc>
	for (; (c = *s) != '\0'; s++)
    800001ba:	fd843783          	ld	a5,-40(s0)
    800001be:	0785                	addi	a5,a5,1 # 64000001 <_prog_start-0x1bffffff>
    800001c0:	fcf43c23          	sd	a5,-40(s0)
    800001c4:	fd843783          	ld	a5,-40(s0)
    800001c8:	0007c783          	lbu	a5,0(a5)
    800001cc:	fef407a3          	sb	a5,-17(s0)
    800001d0:	fef44783          	lbu	a5,-17(s0)
    800001d4:	0ff7f793          	zext.b	a5,a5
    800001d8:	ffe1                	bnez	a5,800001b0 <_kputs+0xe>
}
    800001da:	0001                	nop
    800001dc:	0001                	nop
    800001de:	70a2                	ld	ra,40(sp)
    800001e0:	7402                	ld	s0,32(sp)
    800001e2:	6145                	addi	sp,sp,48
    800001e4:	8082                	ret

00000000800001e6 <kputs>:

void kputs(const char *s)
{
    800001e6:	1101                	addi	sp,sp,-32
    800001e8:	ec06                	sd	ra,24(sp)
    800001ea:	e822                	sd	s0,16(sp)
    800001ec:	1000                	addi	s0,sp,32
    800001ee:	fea43423          	sd	a0,-24(s0)
	_kputs(s);
    800001f2:	fe843503          	ld	a0,-24(s0)
    800001f6:	fadff0ef          	jal	ra,800001a2 <_kputs>
	kputc('\r');
    800001fa:	4535                	li	a0,13
    800001fc:	f69ff0ef          	jal	ra,80000164 <kputc>
	kputc('\n');
    80000200:	4529                	li	a0,10
    80000202:	f63ff0ef          	jal	ra,80000164 <kputc>
}
    80000206:	0001                	nop
    80000208:	60e2                	ld	ra,24(sp)
    8000020a:	6442                	ld	s0,16(sp)
    8000020c:	6105                	addi	sp,sp,32
    8000020e:	8082                	ret

0000000080000210 <kprintf>:

void kprintf(const char *fmt, ...)
{
    80000210:	7151                	addi	sp,sp,-240
    80000212:	f506                	sd	ra,168(sp)
    80000214:	f122                	sd	s0,160(sp)
    80000216:	1900                	addi	s0,sp,176
    80000218:	f4a43c23          	sd	a0,-168(s0)
    8000021c:	e40c                	sd	a1,8(s0)
    8000021e:	e810                	sd	a2,16(s0)
    80000220:	ec14                	sd	a3,24(s0)
    80000222:	f018                	sd	a4,32(s0)
    80000224:	f41c                	sd	a5,40(s0)
    80000226:	03043823          	sd	a6,48(s0)
    8000022a:	03143c23          	sd	a7,56(s0)
		va_list vl;
	bool is_format, is_long, is_char;
	char c;

	va_start(vl, fmt);
    8000022e:	04040793          	addi	a5,s0,64
    80000232:	f4f43823          	sd	a5,-176(s0)
    80000236:	f5043783          	ld	a5,-176(s0)
    8000023a:	fc878793          	addi	a5,a5,-56
    8000023e:	faf43423          	sd	a5,-88(s0)
	is_format = false;
    80000242:	fe0407a3          	sb	zero,-17(s0)
	is_long = false;
    80000246:	fe040723          	sb	zero,-18(s0)
	is_char = false;
    8000024a:	fe0406a3          	sb	zero,-19(s0)
	while ((c = *fmt++) != '\0') {
    8000024e:	a499                	j	80000494 <kprintf+0x284>
		if (is_format) {
    80000250:	fef44783          	lbu	a5,-17(s0)
    80000254:	0ff7f793          	zext.b	a5,a5
    80000258:	20078d63          	beqz	a5,80000472 <kprintf+0x262>
			switch (c) {
    8000025c:	fbf44783          	lbu	a5,-65(s0)
    80000260:	2781                	sext.w	a5,a5
    80000262:	f9d7869b          	addiw	a3,a5,-99
    80000266:	0006871b          	sext.w	a4,a3
    8000026a:	47d5                	li	a5,21
    8000026c:	1ee7ec63          	bltu	a5,a4,80000464 <kprintf+0x254>
    80000270:	02069793          	slli	a5,a3,0x20
    80000274:	9381                	srli	a5,a5,0x20
    80000276:	00279713          	slli	a4,a5,0x2
    8000027a:	00000797          	auipc	a5,0x0
    8000027e:	43678793          	addi	a5,a5,1078 # 800006b0 <core3+0x8>
    80000282:	97ba                	add	a5,a5,a4
    80000284:	439c                	lw	a5,0(a5)
    80000286:	0007871b          	sext.w	a4,a5
    8000028a:	00000797          	auipc	a5,0x0
    8000028e:	42678793          	addi	a5,a5,1062 # 800006b0 <core3+0x8>
    80000292:	97ba                	add	a5,a5,a4
    80000294:	8782                	jr	a5
			case 'l':
				unsigned long n;
				n = va_arg(vl, unsigned long);
    80000296:	fa843783          	ld	a5,-88(s0)
    8000029a:	00878713          	addi	a4,a5,8
    8000029e:	fae43423          	sd	a4,-88(s0)
    800002a2:	639c                	ld	a5,0(a5)
    800002a4:	fef43023          	sd	a5,-32(s0)
				char c[64];
				for (int i = 0; i < 64; i ++) c[i] = 0;
    800002a8:	fc042e23          	sw	zero,-36(s0)
    800002ac:	a821                	j	800002c4 <kprintf+0xb4>
    800002ae:	fdc42783          	lw	a5,-36(s0)
    800002b2:	17c1                	addi	a5,a5,-16
    800002b4:	97a2                	add	a5,a5,s0
    800002b6:	f6078c23          	sb	zero,-136(a5)
    800002ba:	fdc42783          	lw	a5,-36(s0)
    800002be:	2785                	addiw	a5,a5,1
    800002c0:	fcf42e23          	sw	a5,-36(s0)
    800002c4:	fdc42783          	lw	a5,-36(s0)
    800002c8:	0007871b          	sext.w	a4,a5
    800002cc:	03f00793          	li	a5,63
    800002d0:	fce7dfe3          	bge	a5,a4,800002ae <kprintf+0x9e>
				if (n == 0) {
    800002d4:	fe043783          	ld	a5,-32(s0)
    800002d8:	e7bd                	bnez	a5,80000346 <kprintf+0x136>
					kputc ('0');
    800002da:	03000513          	li	a0,48
    800002de:	e87ff0ef          	jal	ra,80000164 <kputc>
					break;
    800002e2:	a249                	j	80000464 <kprintf+0x254>
				}
				for (;n != 0;) {
					for (int i = 63; i > 0; i--) c[i] = c[i-1];
    800002e4:	03f00793          	li	a5,63
    800002e8:	fcf42c23          	sw	a5,-40(s0)
    800002ec:	a025                	j	80000314 <kprintf+0x104>
    800002ee:	fd842783          	lw	a5,-40(s0)
    800002f2:	37fd                	addiw	a5,a5,-1
    800002f4:	2781                	sext.w	a5,a5
    800002f6:	17c1                	addi	a5,a5,-16
    800002f8:	97a2                	add	a5,a5,s0
    800002fa:	f787c703          	lbu	a4,-136(a5)
    800002fe:	fd842783          	lw	a5,-40(s0)
    80000302:	17c1                	addi	a5,a5,-16
    80000304:	97a2                	add	a5,a5,s0
    80000306:	f6e78c23          	sb	a4,-136(a5)
    8000030a:	fd842783          	lw	a5,-40(s0)
    8000030e:	37fd                	addiw	a5,a5,-1
    80000310:	fcf42c23          	sw	a5,-40(s0)
    80000314:	fd842783          	lw	a5,-40(s0)
    80000318:	2781                	sext.w	a5,a5
    8000031a:	fcf04ae3          	bgtz	a5,800002ee <kprintf+0xde>
					c[0] = '0' + (n%10);
    8000031e:	fe043703          	ld	a4,-32(s0)
    80000322:	47a9                	li	a5,10
    80000324:	02f777b3          	remu	a5,a4,a5
    80000328:	0ff7f793          	zext.b	a5,a5
    8000032c:	0307879b          	addiw	a5,a5,48
    80000330:	0ff7f793          	zext.b	a5,a5
    80000334:	f6f40423          	sb	a5,-152(s0)
					n = n / 10;
    80000338:	fe043703          	ld	a4,-32(s0)
    8000033c:	47a9                	li	a5,10
    8000033e:	02f757b3          	divu	a5,a4,a5
    80000342:	fef43023          	sd	a5,-32(s0)
				for (;n != 0;) {
    80000346:	fe043783          	ld	a5,-32(s0)
    8000034a:	ffc9                	bnez	a5,800002e4 <kprintf+0xd4>
				}
				for (int i = 0; c[i] != 0; i++) kputc(c[i]);
    8000034c:	fc042a23          	sw	zero,-44(s0)
    80000350:	a839                	j	8000036e <kprintf+0x15e>
    80000352:	fd442783          	lw	a5,-44(s0)
    80000356:	17c1                	addi	a5,a5,-16
    80000358:	97a2                	add	a5,a5,s0
    8000035a:	f787c783          	lbu	a5,-136(a5)
    8000035e:	853e                	mv	a0,a5
    80000360:	e05ff0ef          	jal	ra,80000164 <kputc>
    80000364:	fd442783          	lw	a5,-44(s0)
    80000368:	2785                	addiw	a5,a5,1
    8000036a:	fcf42a23          	sw	a5,-44(s0)
    8000036e:	fd442783          	lw	a5,-44(s0)
    80000372:	17c1                	addi	a5,a5,-16
    80000374:	97a2                	add	a5,a5,s0
    80000376:	f787c783          	lbu	a5,-136(a5)
    8000037a:	ffe1                	bnez	a5,80000352 <kprintf+0x142>
				break;
    8000037c:	a0e5                	j	80000464 <kprintf+0x254>
			case 'h':
				is_char = true;
    8000037e:	4785                	li	a5,1
    80000380:	fef406a3          	sb	a5,-19(s0)
    80000384:	aa01                	j	80000494 <kprintf+0x284>
				continue;
			case 'x': {
				unsigned long n;
				long i;
				if (is_long) {
    80000386:	fee44783          	lbu	a5,-18(s0)
    8000038a:	0ff7f793          	zext.b	a5,a5
    8000038e:	cf99                	beqz	a5,800003ac <kprintf+0x19c>
					n = va_arg(vl, unsigned long);
    80000390:	fa843783          	ld	a5,-88(s0)
    80000394:	00878713          	addi	a4,a5,8
    80000398:	fae43423          	sd	a4,-88(s0)
    8000039c:	639c                	ld	a5,0(a5)
    8000039e:	fcf43423          	sd	a5,-56(s0)
					i = (sizeof(unsigned long) << 3) - 4;
    800003a2:	03c00793          	li	a5,60
    800003a6:	fcf43023          	sd	a5,-64(s0)
    800003aa:	a041                	j	8000042a <kprintf+0x21a>
				} else {
					n = va_arg(vl, unsigned int);
    800003ac:	fa843783          	ld	a5,-88(s0)
    800003b0:	00878713          	addi	a4,a5,8
    800003b4:	fae43423          	sd	a4,-88(s0)
    800003b8:	439c                	lw	a5,0(a5)
    800003ba:	1782                	slli	a5,a5,0x20
    800003bc:	9381                	srli	a5,a5,0x20
    800003be:	fcf43423          	sd	a5,-56(s0)
					i = is_char ? 4 : (sizeof(unsigned int) << 3) - 4;
    800003c2:	fed44783          	lbu	a5,-19(s0)
    800003c6:	0ff7f793          	zext.b	a5,a5
    800003ca:	c399                	beqz	a5,800003d0 <kprintf+0x1c0>
    800003cc:	4791                	li	a5,4
    800003ce:	a011                	j	800003d2 <kprintf+0x1c2>
    800003d0:	47f1                	li	a5,28
    800003d2:	fcf43023          	sd	a5,-64(s0)
				}
				for (; i >= 0; i -= 4) {
    800003d6:	a891                	j	8000042a <kprintf+0x21a>
					long d;
					d = (n >> i) & 0xF;
    800003d8:	fc043783          	ld	a5,-64(s0)
    800003dc:	2781                	sext.w	a5,a5
    800003de:	873e                	mv	a4,a5
    800003e0:	fc843783          	ld	a5,-56(s0)
    800003e4:	00e7d7b3          	srl	a5,a5,a4
    800003e8:	8bbd                	andi	a5,a5,15
    800003ea:	faf43823          	sd	a5,-80(s0)
					kputc(d < 10 ? '0' + d : 'a' + d - 10);
    800003ee:	fb043703          	ld	a4,-80(s0)
    800003f2:	47a5                	li	a5,9
    800003f4:	00e7cb63          	blt	a5,a4,8000040a <kprintf+0x1fa>
    800003f8:	fb043783          	ld	a5,-80(s0)
    800003fc:	0ff7f793          	zext.b	a5,a5
    80000400:	0307879b          	addiw	a5,a5,48
    80000404:	0ff7f793          	zext.b	a5,a5
    80000408:	a809                	j	8000041a <kprintf+0x20a>
    8000040a:	fb043783          	ld	a5,-80(s0)
    8000040e:	0ff7f793          	zext.b	a5,a5
    80000412:	0577879b          	addiw	a5,a5,87
    80000416:	0ff7f793          	zext.b	a5,a5
    8000041a:	853e                	mv	a0,a5
    8000041c:	d49ff0ef          	jal	ra,80000164 <kputc>
				for (; i >= 0; i -= 4) {
    80000420:	fc043783          	ld	a5,-64(s0)
    80000424:	17f1                	addi	a5,a5,-4
    80000426:	fcf43023          	sd	a5,-64(s0)
    8000042a:	fc043783          	ld	a5,-64(s0)
    8000042e:	fa07d5e3          	bgez	a5,800003d8 <kprintf+0x1c8>
				}
				break;
    80000432:	a80d                	j	80000464 <kprintf+0x254>
			}
			case 's':
				_kputs(va_arg(vl, const char *));
    80000434:	fa843783          	ld	a5,-88(s0)
    80000438:	00878713          	addi	a4,a5,8
    8000043c:	fae43423          	sd	a4,-88(s0)
    80000440:	639c                	ld	a5,0(a5)
    80000442:	853e                	mv	a0,a5
    80000444:	d5fff0ef          	jal	ra,800001a2 <_kputs>
				break;
    80000448:	a831                	j	80000464 <kprintf+0x254>
			case 'c':
				kputc(va_arg(vl, int));
    8000044a:	fa843783          	ld	a5,-88(s0)
    8000044e:	00878713          	addi	a4,a5,8
    80000452:	fae43423          	sd	a4,-88(s0)
    80000456:	439c                	lw	a5,0(a5)
    80000458:	0ff7f793          	zext.b	a5,a5
    8000045c:	853e                	mv	a0,a5
    8000045e:	d07ff0ef          	jal	ra,80000164 <kputc>
				break;
    80000462:	0001                	nop
			}
			is_format = false;
    80000464:	fe0407a3          	sb	zero,-17(s0)
			is_long = false;
    80000468:	fe040723          	sb	zero,-18(s0)
			is_char = false;
    8000046c:	fe0406a3          	sb	zero,-19(s0)
    80000470:	a015                	j	80000494 <kprintf+0x284>
		} else if (c == '%') {
    80000472:	fbf44783          	lbu	a5,-65(s0)
    80000476:	0ff7f713          	zext.b	a4,a5
    8000047a:	02500793          	li	a5,37
    8000047e:	00f71663          	bne	a4,a5,8000048a <kprintf+0x27a>
			is_format = true;
    80000482:	4785                	li	a5,1
    80000484:	fef407a3          	sb	a5,-17(s0)
    80000488:	a031                	j	80000494 <kprintf+0x284>
		} else {
			kputc(c);
    8000048a:	fbf44783          	lbu	a5,-65(s0)
    8000048e:	853e                	mv	a0,a5
    80000490:	cd5ff0ef          	jal	ra,80000164 <kputc>
	while ((c = *fmt++) != '\0') {
    80000494:	f5843783          	ld	a5,-168(s0)
    80000498:	00178713          	addi	a4,a5,1
    8000049c:	f4e43c23          	sd	a4,-168(s0)
    800004a0:	0007c783          	lbu	a5,0(a5)
    800004a4:	faf40fa3          	sb	a5,-65(s0)
    800004a8:	fbf44783          	lbu	a5,-65(s0)
    800004ac:	0ff7f793          	zext.b	a5,a5
    800004b0:	da0790e3          	bnez	a5,80000250 <kprintf+0x40>
		}
	}
	va_end(vl);
}
    800004b4:	0001                	nop
    800004b6:	0001                	nop
    800004b8:	70aa                	ld	ra,168(sp)
    800004ba:	740a                	ld	s0,160(sp)
    800004bc:	616d                	addi	sp,sp,240
    800004be:	8082                	ret

00000000800004c0 <delay>:
#define DELAY_TIME 1000000
#define SIZE 32
#define TEST 1
#define CORE 8

void delay() {
    800004c0:	1101                	addi	sp,sp,-32
    800004c2:	ec22                	sd	s0,24(sp)
    800004c4:	1000                	addi	s0,sp,32
	for (int i = 0; i < DELAY_TIME; i = i + 1);
    800004c6:	fe042623          	sw	zero,-20(s0)
    800004ca:	a031                	j	800004d6 <delay+0x16>
    800004cc:	fec42783          	lw	a5,-20(s0)
    800004d0:	2785                	addiw	a5,a5,1
    800004d2:	fef42623          	sw	a5,-20(s0)
    800004d6:	fec42783          	lw	a5,-20(s0)
    800004da:	0007871b          	sext.w	a4,a5
    800004de:	000f47b7          	lui	a5,0xf4
    800004e2:	23f78793          	addi	a5,a5,575 # f423f <_prog_start-0x7ff0bdc1>
    800004e6:	fee7d3e3          	bge	a5,a4,800004cc <delay+0xc>
  for (int i = 0; i < DELAY_TIME; i = i + 1);
    800004ea:	fe042423          	sw	zero,-24(s0)
    800004ee:	a031                	j	800004fa <delay+0x3a>
    800004f0:	fe842783          	lw	a5,-24(s0)
    800004f4:	2785                	addiw	a5,a5,1
    800004f6:	fef42423          	sw	a5,-24(s0)
    800004fa:	fe842783          	lw	a5,-24(s0)
    800004fe:	0007871b          	sext.w	a4,a5
    80000502:	000f47b7          	lui	a5,0xf4
    80000506:	23f78793          	addi	a5,a5,575 # f423f <_prog_start-0x7ff0bdc1>
    8000050a:	fee7d3e3          	bge	a5,a4,800004f0 <delay+0x30>
}
    8000050e:	0001                	nop
    80000510:	0001                	nop
    80000512:	6462                	ld	s0,24(sp)
    80000514:	6105                	addi	sp,sp,32
    80000516:	8082                	ret

0000000080000518 <main>:

int main(int hartid, char **argv) {
    80000518:	7179                	addi	sp,sp,-48
    8000051a:	f406                	sd	ra,40(sp)
    8000051c:	f022                	sd	s0,32(sp)
    8000051e:	1800                	addi	s0,sp,48
    80000520:	87aa                	mv	a5,a0
    80000522:	fcb43823          	sd	a1,-48(s0)
    80000526:	fcf42e23          	sw	a5,-36(s0)

  int coreid = read_csr(mhartid);
    8000052a:	f14027f3          	csrr	a5,mhartid
    8000052e:	fef43423          	sd	a5,-24(s0)
    80000532:	fe843783          	ld	a5,-24(s0)
    80000536:	fef42223          	sw	a5,-28(s0)

    if (coreid == 0) { // hart 0 boot first
    8000053a:	fe442783          	lw	a5,-28(s0)
    8000053e:	2781                	sext.w	a5,a5
    80000540:	eb85                	bnez	a5,80000570 <main+0x58>
      kputs("Hello from core 0");
    80000542:	00000517          	auipc	a0,0x0
    80000546:	1c650513          	addi	a0,a0,454 # 80000708 <core3+0x60>
    8000054a:	c9dff0ef          	jal	ra,800001e6 <kputs>
      delay();
    8000054e:	f73ff0ef          	jal	ra,800004c0 <delay>
      REG32(msip, CLINT_MSIP0) = CLINT_MSIPCLR;
    80000552:	00000797          	auipc	a5,0x0
    80000556:	13678793          	addi	a5,a5,310 # 80000688 <msip>
    8000055a:	639c                	ld	a5,0(a5)
    8000055c:	0007a023          	sw	zero,0(a5)
      REG32(msip, CLINT_MSIP1) = CLINT_MSIPEN;
    80000560:	00000797          	auipc	a5,0x0
    80000564:	12878793          	addi	a5,a5,296 # 80000688 <msip>
    80000568:	639c                	ld	a5,0(a5)
    8000056a:	0791                	addi	a5,a5,4
    8000056c:	4705                	li	a4,1
    8000056e:	c398                	sw	a4,0(a5)
    }
    if (coreid == 1) {
    80000570:	fe442783          	lw	a5,-28(s0)
    80000574:	0007871b          	sext.w	a4,a5
    80000578:	4785                	li	a5,1
    8000057a:	02f71a63          	bne	a4,a5,800005ae <main+0x96>
      kputs("Hello from core 1");
    8000057e:	00000517          	auipc	a0,0x0
    80000582:	1a250513          	addi	a0,a0,418 # 80000720 <core3+0x78>
    80000586:	c61ff0ef          	jal	ra,800001e6 <kputs>
      delay();
    8000058a:	f37ff0ef          	jal	ra,800004c0 <delay>
      REG32(msip, CLINT_MSIP1) = CLINT_MSIPCLR;
    8000058e:	00000797          	auipc	a5,0x0
    80000592:	0fa78793          	addi	a5,a5,250 # 80000688 <msip>
    80000596:	639c                	ld	a5,0(a5)
    80000598:	0791                	addi	a5,a5,4
    8000059a:	0007a023          	sw	zero,0(a5)
      REG32(msip, CLINT_MSIP2) = CLINT_MSIPEN;
    8000059e:	00000797          	auipc	a5,0x0
    800005a2:	0ea78793          	addi	a5,a5,234 # 80000688 <msip>
    800005a6:	639c                	ld	a5,0(a5)
    800005a8:	07a1                	addi	a5,a5,8
    800005aa:	4705                	li	a4,1
    800005ac:	c398                	sw	a4,0(a5)
    }
    if (coreid == 2) {
    800005ae:	fe442783          	lw	a5,-28(s0)
    800005b2:	0007871b          	sext.w	a4,a5
    800005b6:	4789                	li	a5,2
    800005b8:	02f71a63          	bne	a4,a5,800005ec <main+0xd4>
      kputs("Hello from core 2");
    800005bc:	00000517          	auipc	a0,0x0
    800005c0:	17c50513          	addi	a0,a0,380 # 80000738 <core3+0x90>
    800005c4:	c23ff0ef          	jal	ra,800001e6 <kputs>
      delay();
    800005c8:	ef9ff0ef          	jal	ra,800004c0 <delay>
      REG32(msip, CLINT_MSIP2) = CLINT_MSIPCLR;
    800005cc:	00000797          	auipc	a5,0x0
    800005d0:	0bc78793          	addi	a5,a5,188 # 80000688 <msip>
    800005d4:	639c                	ld	a5,0(a5)
    800005d6:	07a1                	addi	a5,a5,8
    800005d8:	0007a023          	sw	zero,0(a5)
      REG32(msip, CLINT_MSIP3) = CLINT_MSIPEN;
    800005dc:	00000797          	auipc	a5,0x0
    800005e0:	0ac78793          	addi	a5,a5,172 # 80000688 <msip>
    800005e4:	639c                	ld	a5,0(a5)
    800005e6:	07b1                	addi	a5,a5,12
    800005e8:	4705                	li	a4,1
    800005ea:	c398                	sw	a4,0(a5)
    }
    if (coreid == 3) {
    800005ec:	fe442783          	lw	a5,-28(s0)
    800005f0:	0007871b          	sext.w	a4,a5
    800005f4:	478d                	li	a5,3
    800005f6:	02f71963          	bne	a4,a5,80000628 <main+0x110>
      kputs("Hello from core 3");
    800005fa:	00000517          	auipc	a0,0x0
    800005fe:	15650513          	addi	a0,a0,342 # 80000750 <core3+0xa8>
    80000602:	be5ff0ef          	jal	ra,800001e6 <kputs>
      delay();
    80000606:	ebbff0ef          	jal	ra,800004c0 <delay>
      REG32(msip, CLINT_MSIP3) = CLINT_MSIPCLR;
    8000060a:	00000797          	auipc	a5,0x0
    8000060e:	07e78793          	addi	a5,a5,126 # 80000688 <msip>
    80000612:	639c                	ld	a5,0(a5)
    80000614:	07b1                	addi	a5,a5,12
    80000616:	0007a023          	sw	zero,0(a5)
      REG32(msip, CLINT_MSIP0) = CLINT_MSIPEN;
    8000061a:	00000797          	auipc	a5,0x0
    8000061e:	06e78793          	addi	a5,a5,110 # 80000688 <msip>
    80000622:	639c                	ld	a5,0(a5)
    80000624:	4705                	li	a4,1
    80000626:	c398                	sw	a4,0(a5)
    }

	return 0;
    80000628:	4781                	li	a5,0
    8000062a:	853e                	mv	a0,a5
    8000062c:	70a2                	ld	ra,40(sp)
    8000062e:	7402                	ld	s0,32(sp)
    80000630:	6145                	addi	sp,sp,48
    80000632:	8082                	ret
	...

Disassembly of section .srodata:

0000000080000678 <uart>:
static volatile uint32_t * const uart = (void *)(UART_CTRL_ADDR);
    80000678:	0000                	unimp
    8000067a:	6400                	ld	s0,8(s0)
    8000067c:	0000                	unimp
	...

0000000080000680 <uart>:
    80000680:	0000                	unimp
    80000682:	6400                	ld	s0,8(s0)
    80000684:	0000                	unimp
	...
