
/home/binhkieudo/Desktop/RISC-V/HelloMC/build/main.elf:     file format elf64-littleriscv


Disassembly of section .text:

0000000080000000 <_prog_start>:

  .section .text.init
  .option norvc
  .globl _prog_start
_prog_start:
  csrr s0, mhartid
    80000000:	f1402473          	csrr	s0,mhartid
  beq s0, zero, _setup
    80000004:	00040a63          	beqz	s0,80000018 <_setup>
  li s2, 0x8
    80000008:	00800913          	li	s2,8
  csrw mie, s2
    8000000c:	30491073          	csrw	mie,s2
  wfi
    80000010:	10500073          	wfi
  j _main
    80000014:	0140006f          	j	80000028 <_main>

0000000080000018 <_setup>:
_setup:
  li t0, 1
    80000018:	00100293          	li	t0,1
  li a0, (UART_CTRL_ADDR + UART_REG_TXCTRL)
    8000001c:	64000537          	lui	a0,0x64000
    80000020:	0085051b          	addiw	a0,a0,8 # 64000008 <_prog_start-0x1bfffff8>
  sw t0, 0(a0)
    80000024:	00552023          	sw	t0,0(a0)

0000000080000028 <_main>:
_main: // Hart 1 to 4 run main
  csrw mie, zero
    80000028:	30401073          	csrw	mie,zero
  csrr a0, mhartid
    8000002c:	f1402573          	csrr	a0,mhartid
  li s0, 0
    80000030:	00000413          	li	s0,0
  bne a0, s0, _set1
    80000034:	00851863          	bne	a0,s0,80000044 <_set1>

0000000080000038 <_set0>:
_set0:
  li sp, (PRIVATE_MEM_0 + PRIVATE_MEM_SIZE - 16)
    80000038:	40001137          	lui	sp,0x40001
    8000003c:	ff01011b          	addiw	sp,sp,-16 # 40000ff0 <_prog_start-0x3ffff010>
  j _entry
    80000040:	0340006f          	j	80000074 <_entry>

0000000080000044 <_set1>:
_set1:
  li s0, 1
    80000044:	00100413          	li	s0,1
  bne a0, s0, _set2
    80000048:	00851863          	bne	a0,s0,80000058 <_set2>
  li sp, (PRIVATE_MEM_1 + PRIVATE_MEM_SIZE - 16)
    8000004c:	40002137          	lui	sp,0x40002
    80000050:	ff01011b          	addiw	sp,sp,-16 # 40001ff0 <_prog_start-0x3fffe010>
  j _entry
    80000054:	0200006f          	j	80000074 <_entry>

0000000080000058 <_set2>:
_set2:
  li s0, 2
    80000058:	00200413          	li	s0,2
  bne a0, s0, _set3  
    8000005c:	00851863          	bne	a0,s0,8000006c <_set3>
  li sp, (PRIVATE_MEM_2 + PRIVATE_MEM_SIZE - 16)
    80000060:	40003137          	lui	sp,0x40003
    80000064:	ff01011b          	addiw	sp,sp,-16 # 40002ff0 <_prog_start-0x3fffd010>
  j _entry
    80000068:	00c0006f          	j	80000074 <_entry>

000000008000006c <_set3>:
_set3:
  li sp, (PRIVATE_MEM_3 + PRIVATE_MEM_SIZE - 16)
    8000006c:	40004137          	lui	sp,0x40004
    80000070:	ff01011b          	addiw	sp,sp,-16 # 40003ff0 <_prog_start-0x3fffc010>

0000000080000074 <_entry>:
_entry:
  call main
    80000074:	4a4000ef          	jal	ra,80000518 <main>

0000000080000078 <_loopback>:
_loopback:
  li s2, 0x8
    80000078:	00800913          	li	s2,8
  csrw mie, s2
    8000007c:	30491073          	csrw	mie,s2
  wfi
    80000080:	10500073          	wfi
  j _main
    80000084:	fa5ff06f          	j	80000028 <_main>

0000000080000088 <mux_lock>:
  .globl atomic_write
  .globl sem_wait

// ====== Lock ====================  
mux_lock:
    addi sp, sp, -24
    80000088:	fe810113          	addi	sp,sp,-24
    sd  t0, 16(sp)
    8000008c:	00513823          	sd	t0,16(sp)
    sd  t1, 8(sp)
    80000090:	00613423          	sd	t1,8(sp)
    sd  a0, 0(sp)    
    80000094:	00a13023          	sd	a0,0(sp)
    li t0, 1
    80000098:	00100293          	li	t0,1
    li a0, THREAD_QUEUE_ADDR
    8000009c:	70000537          	lui	a0,0x70000

00000000800000a0 <_again>:
_again:
    lw t1, 0(a0)   // Check if lock is held
    800000a0:	00052303          	lw	t1,0(a0) # 70000000 <_prog_start-0x10000000>
    bnez t1, _again  // Retry if held
    800000a4:	fe031ee3          	bnez	t1,800000a0 <_again>
    amoswap.w t1, t0, (a0)
    800000a8:	0855232f          	amoswap.w	t1,t0,(a0)
    bnez t1, _again  // Retry if held
    800000ac:	fe031ae3          	bnez	t1,800000a0 <_again>
    ld  t0, 16(sp)
    800000b0:	01013283          	ld	t0,16(sp)
    ld  t1, 8(sp)
    800000b4:	00813303          	ld	t1,8(sp)
    ld  a0, 0(sp) 
    800000b8:	00013503          	ld	a0,0(sp)
    addi sp, sp, 24
    800000bc:	01810113          	addi	sp,sp,24
    ret
    800000c0:	00008067          	ret

00000000800000c4 <mux_unlock>:

// ====== Unlock ==================
mux_unlock:
    addi sp, sp, -16
    800000c4:	ff010113          	addi	sp,sp,-16
    sd  t0, 8(sp)
    800000c8:	00513423          	sd	t0,8(sp)
    sd  t1, 0(sp)
    800000cc:	00613023          	sd	t1,0(sp)
    li t0, 0
    800000d0:	00000293          	li	t0,0
    li a0, THREAD_QUEUE_ADDR
    800000d4:	70000537          	lui	a0,0x70000
    lw t1, 0(a0)   // Check if lock is held
    800000d8:	00052303          	lw	t1,0(a0) # 70000000 <_prog_start-0x10000000>
    beqz t1, _exit_unlock
    800000dc:	00030463          	beqz	t1,800000e4 <_exit_unlock>
    amoswap.w t0, t0, (a0)
    800000e0:	085522af          	amoswap.w	t0,t0,(a0)

00000000800000e4 <_exit_unlock>:
_exit_unlock:
    ld  t0, 8(sp)
    800000e4:	00813283          	ld	t0,8(sp)
    ld  t1, 0(sp)
    800000e8:	00013303          	ld	t1,0(sp)
    addi sp, sp, 16    
    800000ec:	01010113          	addi	sp,sp,16
    ret
    800000f0:	00008067          	ret

00000000800000f4 <get_hartid>:

// ====== Get hartid ==============
get_hartid:
    csrr a0, mhartid
    800000f4:	f1402573          	csrr	a0,mhartid
    ret
    800000f8:	00008067          	ret

00000000800000fc <atomic_write>:

// ====== Atomic write ============
atomic_write:
    addi sp, sp, -8
    800000fc:	ff810113          	addi	sp,sp,-8
    sd t0, 0(sp)
    80000100:	00513023          	sd	t0,0(sp)
    amoswap.w t0, a1, (a0)
    80000104:	08b522af          	amoswap.w	t0,a1,(a0)
    ld t0, 0(sp)
    80000108:	00013283          	ld	t0,0(sp)
    addi sp, sp, 8    
    8000010c:	00810113          	addi	sp,sp,8
    ret
    80000110:	00008067          	ret

0000000080000114 <sem_wait>:

// ====== Semaphore wait ==========
sem_wait:
    addi sp, sp, -16
    80000114:	ff010113          	addi	sp,sp,-16
    sd  t0, 8(sp)
    80000118:	00513423          	sd	t0,8(sp)
    sd  s0, 0(sp)
    8000011c:	00813023          	sd	s0,0(sp)
    amoswap.w t0, zero, (a0) // Clear interrupt flag
    80000120:	080522af          	amoswap.w	t0,zero,(a0)
    li s0, 0x8 // Enable interrupt
    80000124:	00800413          	li	s0,8
    csrw mie, s0
    80000128:	30441073          	csrw	mie,s0
    wfi
    8000012c:	10500073          	wfi
    csrw mie, zero // Disable interrupt
    80000130:	30401073          	csrw	mie,zero
    amoswap.w t0, zero, (a0) // Clear interrupt flag
    80000134:	080522af          	amoswap.w	t0,zero,(a0)
    ld  t0, 8(sp)
    80000138:	00813283          	ld	t0,8(sp)
    ld  s0, 0(sp)
    8000013c:	00013403          	ld	s0,0(sp)
    addi sp, sp, 16
    80000140:	01010113          	addi	sp,sp,16
    ret
    80000144:	00008067          	ret

0000000080000148 <sem_signal>:

// ====== Semaphore signal ========
sem_signal:
    addi sp, sp, -8
    80000148:	ff810113          	addi	sp,sp,-8
    sd t0, 0(sp)
    8000014c:	00513023          	sd	t0,0(sp)
    li t0, 1 // Set interrupt flag of target core
    80000150:	00100293          	li	t0,1
    amoswap.w t1, t0, (a0)
    80000154:	0855232f          	amoswap.w	t1,t0,(a0)
    ld t0, 0(sp)
    80000158:	00013283          	ld	t0,0(sp)
    addi sp, sp, 8
    8000015c:	00810113          	addi	sp,sp,8
    80000160:	00008067          	ret

0000000080000164 <kputc>:
  #define UART_CTRL_ADDR _UART_CTRL_ADDR(UART_NUM)
#endif
static volatile uint32_t * const uart = (void *)(UART_CTRL_ADDR);

static inline void kputc(char c)
{
    80000164:	7179                	addi	sp,sp,-48
    80000166:	f422                	sd	s0,40(sp)
    80000168:	1800                	addi	s0,sp,48
    8000016a:	87aa                	mv	a5,a0
    8000016c:	fcf40fa3          	sb	a5,-33(s0)
	volatile uint32_t *tx = &REG32(uart, UART_REG_TXFIFO);
    80000170:	640007b7          	lui	a5,0x64000
    80000174:	fef43423          	sd	a5,-24(s0)
#ifdef __riscv_atomic
	int32_t r;
	do {
		__asm__ __volatile__ (
    80000178:	fe843703          	ld	a4,-24(s0)
    8000017c:	fdf44783          	lbu	a5,-33(s0)
    80000180:	86be                	mv	a3,a5
    80000182:	fe843783          	ld	a5,-24(s0)
    80000186:	40d727af          	amoor.w	a5,a3,(a4)
    8000018a:	fef42223          	sw	a5,-28(s0)
			"amoor.w %0, %2, %1\n"
			: "=r" (r), "+A" (*tx)
			: "r" (c));
	} while (r < 0);
    8000018e:	fe442783          	lw	a5,-28(s0)
    80000192:	2781                	sext.w	a5,a5
    80000194:	fe07c2e3          	bltz	a5,80000178 <kputc+0x14>
#else
	while ((int32_t)(*tx) < 0);
	*tx = c;
#endif
}
    80000198:	0001                	nop
    8000019a:	0001                	nop
    8000019c:	7422                	ld	s0,40(sp)
    8000019e:	6145                	addi	sp,sp,48
    800001a0:	8082                	ret

00000000800001a2 <_kputs>:
#include <stdbool.h>

#include "kprintf.h"

static inline void _kputs(const char *s)
{
    800001a2:	7179                	addi	sp,sp,-48
    800001a4:	f406                	sd	ra,40(sp)
    800001a6:	f022                	sd	s0,32(sp)
    800001a8:	1800                	addi	s0,sp,48
    800001aa:	fca43c23          	sd	a0,-40(s0)
	char c;
	for (; (c = *s) != '\0'; s++)
    800001ae:	a819                	j	800001c4 <_kputs+0x22>
		kputc(c);
    800001b0:	fef44783          	lbu	a5,-17(s0)
    800001b4:	853e                	mv	a0,a5
    800001b6:	fafff0ef          	jal	ra,80000164 <kputc>
	for (; (c = *s) != '\0'; s++)
    800001ba:	fd843783          	ld	a5,-40(s0)
    800001be:	0785                	addi	a5,a5,1 # 64000001 <_prog_start-0x1bffffff>
    800001c0:	fcf43c23          	sd	a5,-40(s0)
    800001c4:	fd843783          	ld	a5,-40(s0)
    800001c8:	0007c783          	lbu	a5,0(a5)
    800001cc:	fef407a3          	sb	a5,-17(s0)
    800001d0:	fef44783          	lbu	a5,-17(s0)
    800001d4:	0ff7f793          	zext.b	a5,a5
    800001d8:	ffe1                	bnez	a5,800001b0 <_kputs+0xe>
}
    800001da:	0001                	nop
    800001dc:	0001                	nop
    800001de:	70a2                	ld	ra,40(sp)
    800001e0:	7402                	ld	s0,32(sp)
    800001e2:	6145                	addi	sp,sp,48
    800001e4:	8082                	ret

00000000800001e6 <kputs>:

void kputs(const char *s)
{
    800001e6:	1101                	addi	sp,sp,-32
    800001e8:	ec06                	sd	ra,24(sp)
    800001ea:	e822                	sd	s0,16(sp)
    800001ec:	1000                	addi	s0,sp,32
    800001ee:	fea43423          	sd	a0,-24(s0)
	_kputs(s);
    800001f2:	fe843503          	ld	a0,-24(s0)
    800001f6:	fadff0ef          	jal	ra,800001a2 <_kputs>
	kputc('\r');
    800001fa:	4535                	li	a0,13
    800001fc:	f69ff0ef          	jal	ra,80000164 <kputc>
	kputc('\n');
    80000200:	4529                	li	a0,10
    80000202:	f63ff0ef          	jal	ra,80000164 <kputc>
}
    80000206:	0001                	nop
    80000208:	60e2                	ld	ra,24(sp)
    8000020a:	6442                	ld	s0,16(sp)
    8000020c:	6105                	addi	sp,sp,32
    8000020e:	8082                	ret

0000000080000210 <kprintf>:

void kprintf(const char *fmt, ...)
{
    80000210:	7151                	addi	sp,sp,-240
    80000212:	f506                	sd	ra,168(sp)
    80000214:	f122                	sd	s0,160(sp)
    80000216:	1900                	addi	s0,sp,176
    80000218:	f4a43c23          	sd	a0,-168(s0)
    8000021c:	e40c                	sd	a1,8(s0)
    8000021e:	e810                	sd	a2,16(s0)
    80000220:	ec14                	sd	a3,24(s0)
    80000222:	f018                	sd	a4,32(s0)
    80000224:	f41c                	sd	a5,40(s0)
    80000226:	03043823          	sd	a6,48(s0)
    8000022a:	03143c23          	sd	a7,56(s0)
		va_list vl;
	bool is_format, is_long, is_char;
	char c;

	va_start(vl, fmt);
    8000022e:	04040793          	addi	a5,s0,64
    80000232:	f4f43823          	sd	a5,-176(s0)
    80000236:	f5043783          	ld	a5,-176(s0)
    8000023a:	fc878793          	addi	a5,a5,-56
    8000023e:	faf43423          	sd	a5,-88(s0)
	is_format = false;
    80000242:	fe0407a3          	sb	zero,-17(s0)
	is_long = false;
    80000246:	fe040723          	sb	zero,-18(s0)
	is_char = false;
    8000024a:	fe0406a3          	sb	zero,-19(s0)
	while ((c = *fmt++) != '\0') {
    8000024e:	a499                	j	80000494 <kprintf+0x284>
		if (is_format) {
    80000250:	fef44783          	lbu	a5,-17(s0)
    80000254:	0ff7f793          	zext.b	a5,a5
    80000258:	20078d63          	beqz	a5,80000472 <kprintf+0x262>
			switch (c) {
    8000025c:	fbf44783          	lbu	a5,-65(s0)
    80000260:	2781                	sext.w	a5,a5
    80000262:	f9d7869b          	addiw	a3,a5,-99
    80000266:	0006871b          	sext.w	a4,a3
    8000026a:	47d5                	li	a5,21
    8000026c:	1ee7ec63          	bltu	a5,a4,80000464 <kprintf+0x254>
    80000270:	02069793          	slli	a5,a3,0x20
    80000274:	9381                	srli	a5,a5,0x20
    80000276:	00279713          	slli	a4,a5,0x2
    8000027a:	00000797          	auipc	a5,0x0
    8000027e:	43678793          	addi	a5,a5,1078 # 800006b0 <core3+0x8>
    80000282:	97ba                	add	a5,a5,a4
    80000284:	439c                	lw	a5,0(a5)
    80000286:	0007871b          	sext.w	a4,a5
    8000028a:	00000797          	auipc	a5,0x0
    8000028e:	42678793          	addi	a5,a5,1062 # 800006b0 <core3+0x8>
    80000292:	97ba                	add	a5,a5,a4
    80000294:	8782                	jr	a5
			case 'l':
				unsigned long n;
				n = va_arg(vl, unsigned long);
    80000296:	fa843783          	ld	a5,-88(s0)
    8000029a:	00878713          	addi	a4,a5,8
    8000029e:	fae43423          	sd	a4,-88(s0)
    800002a2:	639c                	ld	a5,0(a5)
    800002a4:	fef43023          	sd	a5,-32(s0)
				char c[64];
				for (int i = 0; i < 64; i ++) c[i] = 0;
    800002a8:	fc042e23          	sw	zero,-36(s0)
    800002ac:	a821                	j	800002c4 <kprintf+0xb4>
    800002ae:	fdc42783          	lw	a5,-36(s0)
    800002b2:	17c1                	addi	a5,a5,-16
    800002b4:	97a2                	add	a5,a5,s0
    800002b6:	f6078c23          	sb	zero,-136(a5)
    800002ba:	fdc42783          	lw	a5,-36(s0)
    800002be:	2785                	addiw	a5,a5,1
    800002c0:	fcf42e23          	sw	a5,-36(s0)
    800002c4:	fdc42783          	lw	a5,-36(s0)
    800002c8:	0007871b          	sext.w	a4,a5
    800002cc:	03f00793          	li	a5,63
    800002d0:	fce7dfe3          	bge	a5,a4,800002ae <kprintf+0x9e>
				if (n == 0) {
    800002d4:	fe043783          	ld	a5,-32(s0)
    800002d8:	e7bd                	bnez	a5,80000346 <kprintf+0x136>
					kputc ('0');
    800002da:	03000513          	li	a0,48
    800002de:	e87ff0ef          	jal	ra,80000164 <kputc>
					break;
    800002e2:	a249                	j	80000464 <kprintf+0x254>
				}
				for (;n != 0;) {
					for (int i = 63; i > 0; i--) c[i] = c[i-1];
    800002e4:	03f00793          	li	a5,63
    800002e8:	fcf42c23          	sw	a5,-40(s0)
    800002ec:	a025                	j	80000314 <kprintf+0x104>
    800002ee:	fd842783          	lw	a5,-40(s0)
    800002f2:	37fd                	addiw	a5,a5,-1
    800002f4:	2781                	sext.w	a5,a5
    800002f6:	17c1                	addi	a5,a5,-16
    800002f8:	97a2                	add	a5,a5,s0
    800002fa:	f787c703          	lbu	a4,-136(a5)
    800002fe:	fd842783          	lw	a5,-40(s0)
    80000302:	17c1                	addi	a5,a5,-16
    80000304:	97a2                	add	a5,a5,s0
    80000306:	f6e78c23          	sb	a4,-136(a5)
    8000030a:	fd842783          	lw	a5,-40(s0)
    8000030e:	37fd                	addiw	a5,a5,-1
    80000310:	fcf42c23          	sw	a5,-40(s0)
    80000314:	fd842783          	lw	a5,-40(s0)
    80000318:	2781                	sext.w	a5,a5
    8000031a:	fcf04ae3          	bgtz	a5,800002ee <kprintf+0xde>
					c[0] = '0' + (n%10);
    8000031e:	fe043703          	ld	a4,-32(s0)
    80000322:	47a9                	li	a5,10
    80000324:	02f777b3          	remu	a5,a4,a5
    80000328:	0ff7f793          	zext.b	a5,a5
    8000032c:	0307879b          	addiw	a5,a5,48
    80000330:	0ff7f793          	zext.b	a5,a5
    80000334:	f6f40423          	sb	a5,-152(s0)
					n = n / 10;
    80000338:	fe043703          	ld	a4,-32(s0)
    8000033c:	47a9                	li	a5,10
    8000033e:	02f757b3          	divu	a5,a4,a5
    80000342:	fef43023          	sd	a5,-32(s0)
				for (;n != 0;) {
    80000346:	fe043783          	ld	a5,-32(s0)
    8000034a:	ffc9                	bnez	a5,800002e4 <kprintf+0xd4>
				}
				for (int i = 0; c[i] != 0; i++) kputc(c[i]);
    8000034c:	fc042a23          	sw	zero,-44(s0)
    80000350:	a839                	j	8000036e <kprintf+0x15e>
    80000352:	fd442783          	lw	a5,-44(s0)
    80000356:	17c1                	addi	a5,a5,-16
    80000358:	97a2                	add	a5,a5,s0
    8000035a:	f787c783          	lbu	a5,-136(a5)
    8000035e:	853e                	mv	a0,a5
    80000360:	e05ff0ef          	jal	ra,80000164 <kputc>
    80000364:	fd442783          	lw	a5,-44(s0)
    80000368:	2785                	addiw	a5,a5,1
    8000036a:	fcf42a23          	sw	a5,-44(s0)
    8000036e:	fd442783          	lw	a5,-44(s0)
    80000372:	17c1                	addi	a5,a5,-16
    80000374:	97a2                	add	a5,a5,s0
    80000376:	f787c783          	lbu	a5,-136(a5)
    8000037a:	ffe1                	bnez	a5,80000352 <kprintf+0x142>
				break;
    8000037c:	a0e5                	j	80000464 <kprintf+0x254>
			case 'h':
				is_char = true;
    8000037e:	4785                	li	a5,1
    80000380:	fef406a3          	sb	a5,-19(s0)
    80000384:	aa01                	j	80000494 <kprintf+0x284>
				continue;
			case 'x': {
				unsigned long n;
				long i;
				if (is_long) {
    80000386:	fee44783          	lbu	a5,-18(s0)
    8000038a:	0ff7f793          	zext.b	a5,a5
    8000038e:	cf99                	beqz	a5,800003ac <kprintf+0x19c>
					n = va_arg(vl, unsigned long);
    80000390:	fa843783          	ld	a5,-88(s0)
    80000394:	00878713          	addi	a4,a5,8
    80000398:	fae43423          	sd	a4,-88(s0)
    8000039c:	639c                	ld	a5,0(a5)
    8000039e:	fcf43423          	sd	a5,-56(s0)
					i = (sizeof(unsigned long) << 3) - 4;
    800003a2:	03c00793          	li	a5,60
    800003a6:	fcf43023          	sd	a5,-64(s0)
    800003aa:	a041                	j	8000042a <kprintf+0x21a>
				} else {
					n = va_arg(vl, unsigned int);
    800003ac:	fa843783          	ld	a5,-88(s0)
    800003b0:	00878713          	addi	a4,a5,8
    800003b4:	fae43423          	sd	a4,-88(s0)
    800003b8:	439c                	lw	a5,0(a5)
    800003ba:	1782                	slli	a5,a5,0x20
    800003bc:	9381                	srli	a5,a5,0x20
    800003be:	fcf43423          	sd	a5,-56(s0)
					i = is_char ? 4 : (sizeof(unsigned int) << 3) - 4;
    800003c2:	fed44783          	lbu	a5,-19(s0)
    800003c6:	0ff7f793          	zext.b	a5,a5
    800003ca:	c399                	beqz	a5,800003d0 <kprintf+0x1c0>
    800003cc:	4791                	li	a5,4
    800003ce:	a011                	j	800003d2 <kprintf+0x1c2>
    800003d0:	47f1                	li	a5,28
    800003d2:	fcf43023          	sd	a5,-64(s0)
				}
				for (; i >= 0; i -= 4) {
    800003d6:	a891                	j	8000042a <kprintf+0x21a>
					long d;
					d = (n >> i) & 0xF;
    800003d8:	fc043783          	ld	a5,-64(s0)
    800003dc:	2781                	sext.w	a5,a5
    800003de:	873e                	mv	a4,a5
    800003e0:	fc843783          	ld	a5,-56(s0)
    800003e4:	00e7d7b3          	srl	a5,a5,a4
    800003e8:	8bbd                	andi	a5,a5,15
    800003ea:	faf43823          	sd	a5,-80(s0)
					kputc(d < 10 ? '0' + d : 'a' + d - 10);
    800003ee:	fb043703          	ld	a4,-80(s0)
    800003f2:	47a5                	li	a5,9
    800003f4:	00e7cb63          	blt	a5,a4,8000040a <kprintf+0x1fa>
    800003f8:	fb043783          	ld	a5,-80(s0)
    800003fc:	0ff7f793          	zext.b	a5,a5
    80000400:	0307879b          	addiw	a5,a5,48
    80000404:	0ff7f793          	zext.b	a5,a5
    80000408:	a809                	j	8000041a <kprintf+0x20a>
    8000040a:	fb043783          	ld	a5,-80(s0)
    8000040e:	0ff7f793          	zext.b	a5,a5
    80000412:	0577879b          	addiw	a5,a5,87
    80000416:	0ff7f793          	zext.b	a5,a5
    8000041a:	853e                	mv	a0,a5
    8000041c:	d49ff0ef          	jal	ra,80000164 <kputc>
				for (; i >= 0; i -= 4) {
    80000420:	fc043783          	ld	a5,-64(s0)
    80000424:	17f1                	addi	a5,a5,-4
    80000426:	fcf43023          	sd	a5,-64(s0)
    8000042a:	fc043783          	ld	a5,-64(s0)
    8000042e:	fa07d5e3          	bgez	a5,800003d8 <kprintf+0x1c8>
				}
				break;
    80000432:	a80d                	j	80000464 <kprintf+0x254>
			}
			case 's':
				_kputs(va_arg(vl, const char *));
    80000434:	fa843783          	ld	a5,-88(s0)
    80000438:	00878713          	addi	a4,a5,8
    8000043c:	fae43423          	sd	a4,-88(s0)
    80000440:	639c                	ld	a5,0(a5)
    80000442:	853e                	mv	a0,a5
    80000444:	d5fff0ef          	jal	ra,800001a2 <_kputs>
				break;
    80000448:	a831                	j	80000464 <kprintf+0x254>
			case 'c':
				kputc(va_arg(vl, int));
    8000044a:	fa843783          	ld	a5,-88(s0)
    8000044e:	00878713          	addi	a4,a5,8
    80000452:	fae43423          	sd	a4,-88(s0)
    80000456:	439c                	lw	a5,0(a5)
    80000458:	0ff7f793          	zext.b	a5,a5
    8000045c:	853e                	mv	a0,a5
    8000045e:	d07ff0ef          	jal	ra,80000164 <kputc>
				break;
    80000462:	0001                	nop
			}
			is_format = false;
    80000464:	fe0407a3          	sb	zero,-17(s0)
			is_long = false;
    80000468:	fe040723          	sb	zero,-18(s0)
			is_char = false;
    8000046c:	fe0406a3          	sb	zero,-19(s0)
    80000470:	a015                	j	80000494 <kprintf+0x284>
		} else if (c == '%') {
    80000472:	fbf44783          	lbu	a5,-65(s0)
    80000476:	0ff7f713          	zext.b	a4,a5
    8000047a:	02500793          	li	a5,37
    8000047e:	00f71663          	bne	a4,a5,8000048a <kprintf+0x27a>
			is_format = true;
    80000482:	4785                	li	a5,1
    80000484:	fef407a3          	sb	a5,-17(s0)
    80000488:	a031                	j	80000494 <kprintf+0x284>
		} else {
			kputc(c);
    8000048a:	fbf44783          	lbu	a5,-65(s0)
    8000048e:	853e                	mv	a0,a5
    80000490:	cd5ff0ef          	jal	ra,80000164 <kputc>
	while ((c = *fmt++) != '\0') {
    80000494:	f5843783          	ld	a5,-168(s0)
    80000498:	00178713          	addi	a4,a5,1
    8000049c:	f4e43c23          	sd	a4,-168(s0)
    800004a0:	0007c783          	lbu	a5,0(a5)
    800004a4:	faf40fa3          	sb	a5,-65(s0)
    800004a8:	fbf44783          	lbu	a5,-65(s0)
    800004ac:	0ff7f793          	zext.b	a5,a5
    800004b0:	da0790e3          	bnez	a5,80000250 <kprintf+0x40>
		}
	}
	va_end(vl);
}
    800004b4:	0001                	nop
    800004b6:	0001                	nop
    800004b8:	70aa                	ld	ra,168(sp)
    800004ba:	740a                	ld	s0,160(sp)
    800004bc:	616d                	addi	sp,sp,240
    800004be:	8082                	ret

00000000800004c0 <delay>:
#define DELAY_TIME 1000000
#define SIZE 32
#define TEST 1
#define CORE 8

void delay() {
    800004c0:	1101                	addi	sp,sp,-32
    800004c2:	ec22                	sd	s0,24(sp)
    800004c4:	1000                	addi	s0,sp,32
	for (int i = 0; i < DELAY_TIME; i = i + 1);
    800004c6:	fe042623          	sw	zero,-20(s0)
    800004ca:	a031                	j	800004d6 <delay+0x16>
    800004cc:	fec42783          	lw	a5,-20(s0)
    800004d0:	2785                	addiw	a5,a5,1
    800004d2:	fef42623          	sw	a5,-20(s0)
    800004d6:	fec42783          	lw	a5,-20(s0)
    800004da:	0007871b          	sext.w	a4,a5
    800004de:	000f47b7          	lui	a5,0xf4
    800004e2:	23f78793          	addi	a5,a5,575 # f423f <_prog_start-0x7ff0bdc1>
    800004e6:	fee7d3e3          	bge	a5,a4,800004cc <delay+0xc>
  for (int i = 0; i < DELAY_TIME; i = i + 1);
    800004ea:	fe042423          	sw	zero,-24(s0)
    800004ee:	a031                	j	800004fa <delay+0x3a>
    800004f0:	fe842783          	lw	a5,-24(s0)
    800004f4:	2785                	addiw	a5,a5,1
    800004f6:	fef42423          	sw	a5,-24(s0)
    800004fa:	fe842783          	lw	a5,-24(s0)
    800004fe:	0007871b          	sext.w	a4,a5
    80000502:	000f47b7          	lui	a5,0xf4
    80000506:	23f78793          	addi	a5,a5,575 # f423f <_prog_start-0x7ff0bdc1>
    8000050a:	fee7d3e3          	bge	a5,a4,800004f0 <delay+0x30>
}
    8000050e:	0001                	nop
    80000510:	0001                	nop
    80000512:	6462                	ld	s0,24(sp)
    80000514:	6105                	addi	sp,sp,32
    80000516:	8082                	ret

0000000080000518 <main>:

int main(int hartid, char **argv) {
    80000518:	7179                	addi	sp,sp,-48
    8000051a:	f406                	sd	ra,40(sp)
    8000051c:	f022                	sd	s0,32(sp)
    8000051e:	1800                	addi	s0,sp,48
    80000520:	87aa                	mv	a5,a0
    80000522:	fcb43823          	sd	a1,-48(s0)
    80000526:	fcf42e23          	sw	a5,-36(s0)

  int coreid = read_csr(mhartid);
    8000052a:	f14027f3          	csrr	a5,mhartid
    8000052e:	fef43423          	sd	a5,-24(s0)
    80000532:	fe843783          	ld	a5,-24(s0)
    80000536:	fef42223          	sw	a5,-28(s0)

    if (coreid == 0) { // hart 0 boot first
    8000053a:	fe442783          	lw	a5,-28(s0)
    8000053e:	2781                	sext.w	a5,a5
    80000540:	eb85                	bnez	a5,80000570 <main+0x58>
      kputs("Hello from core 0");
    80000542:	00000517          	auipc	a0,0x0
    80000546:	1c650513          	addi	a0,a0,454 # 80000708 <core3+0x60>
    8000054a:	c9dff0ef          	jal	ra,800001e6 <kputs>
      delay();
    8000054e:	f73ff0ef          	jal	ra,800004c0 <delay>
      REG32(msip, CLINT_MSIP0) = CLINT_MSIPCLR;
    80000552:	00000797          	auipc	a5,0x0
    80000556:	13678793          	addi	a5,a5,310 # 80000688 <msip>
    8000055a:	639c                	ld	a5,0(a5)
    8000055c:	0007a023          	sw	zero,0(a5)
      REG32(msip, CLINT_MSIP1) = CLINT_MSIPEN;
    80000560:	00000797          	auipc	a5,0x0
    80000564:	12878793          	addi	a5,a5,296 # 80000688 <msip>
    80000568:	639c                	ld	a5,0(a5)
    8000056a:	0791                	addi	a5,a5,4
    8000056c:	4705                	li	a4,1
    8000056e:	c398                	sw	a4,0(a5)
    }
    if (coreid == 1) {
    80000570:	fe442783          	lw	a5,-28(s0)
    80000574:	0007871b          	sext.w	a4,a5
    80000578:	4785                	li	a5,1
    8000057a:	02f71a63          	bne	a4,a5,800005ae <main+0x96>
      kputs("Hello from core 1");
    8000057e:	00000517          	auipc	a0,0x0
    80000582:	1a250513          	addi	a0,a0,418 # 80000720 <core3+0x78>
    80000586:	c61ff0ef          	jal	ra,800001e6 <kputs>
      delay();
    8000058a:	f37ff0ef          	jal	ra,800004c0 <delay>
      REG32(msip, CLINT_MSIP1) = CLINT_MSIPCLR;
    8000058e:	00000797          	auipc	a5,0x0
    80000592:	0fa78793          	addi	a5,a5,250 # 80000688 <msip>
    80000596:	639c                	ld	a5,0(a5)
    80000598:	0791                	addi	a5,a5,4
    8000059a:	0007a023          	sw	zero,0(a5)
      REG32(msip, CLINT_MSIP2) = CLINT_MSIPEN;
    8000059e:	00000797          	auipc	a5,0x0
    800005a2:	0ea78793          	addi	a5,a5,234 # 80000688 <msip>
    800005a6:	639c                	ld	a5,0(a5)
    800005a8:	07a1                	addi	a5,a5,8
    800005aa:	4705                	li	a4,1
    800005ac:	c398                	sw	a4,0(a5)
    }
    if (coreid == 2) {
    800005ae:	fe442783          	lw	a5,-28(s0)
    800005b2:	0007871b          	sext.w	a4,a5
    800005b6:	4789                	li	a5,2
    800005b8:	02f71a63          	bne	a4,a5,800005ec <main+0xd4>
      kputs("Hello from core 2");
    800005bc:	00000517          	auipc	a0,0x0
    800005c0:	17c50513          	addi	a0,a0,380 # 80000738 <core3+0x90>
    800005c4:	c23ff0ef          	jal	ra,800001e6 <kputs>
      delay();
    800005c8:	ef9ff0ef          	jal	ra,800004c0 <delay>
      REG32(msip, CLINT_MSIP2) = CLINT_MSIPCLR;
    800005cc:	00000797          	auipc	a5,0x0
    800005d0:	0bc78793          	addi	a5,a5,188 # 80000688 <msip>
    800005d4:	639c                	ld	a5,0(a5)
    800005d6:	07a1                	addi	a5,a5,8
    800005d8:	0007a023          	sw	zero,0(a5)
      REG32(msip, CLINT_MSIP3) = CLINT_MSIPEN;
    800005dc:	00000797          	auipc	a5,0x0
    800005e0:	0ac78793          	addi	a5,a5,172 # 80000688 <msip>
    800005e4:	639c                	ld	a5,0(a5)
    800005e6:	07b1                	addi	a5,a5,12
    800005e8:	4705                	li	a4,1
    800005ea:	c398                	sw	a4,0(a5)
    }
    if (coreid == 3) {
    800005ec:	fe442783          	lw	a5,-28(s0)
    800005f0:	0007871b          	sext.w	a4,a5
    800005f4:	478d                	li	a5,3
    800005f6:	02f71963          	bne	a4,a5,80000628 <main+0x110>
      kputs("Hello from core 3");
    800005fa:	00000517          	auipc	a0,0x0
    800005fe:	15650513          	addi	a0,a0,342 # 80000750 <core3+0xa8>
    80000602:	be5ff0ef          	jal	ra,800001e6 <kputs>
      delay();
    80000606:	ebbff0ef          	jal	ra,800004c0 <delay>
      REG32(msip, CLINT_MSIP3) = CLINT_MSIPCLR;
    8000060a:	00000797          	auipc	a5,0x0
    8000060e:	07e78793          	addi	a5,a5,126 # 80000688 <msip>
    80000612:	639c                	ld	a5,0(a5)
    80000614:	07b1                	addi	a5,a5,12
    80000616:	0007a023          	sw	zero,0(a5)
      REG32(msip, CLINT_MSIP0) = CLINT_MSIPEN;
    8000061a:	00000797          	auipc	a5,0x0
    8000061e:	06e78793          	addi	a5,a5,110 # 80000688 <msip>
    80000622:	639c                	ld	a5,0(a5)
    80000624:	4705                	li	a4,1
    80000626:	c398                	sw	a4,0(a5)
    }

	return 0;
    80000628:	4781                	li	a5,0
    8000062a:	853e                	mv	a0,a5
    8000062c:	70a2                	ld	ra,40(sp)
    8000062e:	7402                	ld	s0,32(sp)
    80000630:	6145                	addi	sp,sp,48
    80000632:	8082                	ret
	...

Disassembly of section .srodata:

0000000080000678 <uart>:
static volatile uint32_t * const uart = (void *)(UART_CTRL_ADDR);
    80000678:	0000                	unimp
    8000067a:	6400                	ld	s0,8(s0)
    8000067c:	0000                	unimp
	...

0000000080000680 <uart>:
    80000680:	0000                	unimp
    80000682:	6400                	ld	s0,8(s0)
    80000684:	0000                	unimp
	...

Disassembly of section .sdata:

0000000080000688 <msip>:

// typedef unsigned int key_t;

// extern char _heap_share[];

static volatile uint32_t * msip = (uint32_t *)(CLINT_CTRL_ADDR);
    80000688:	0000                	unimp
    8000068a:	0200                	addi	s0,sp,256
    8000068c:	0000                	unimp
	...

0000000080000690 <core0>:
uint32_t *core0 = (void *)(CLINT_CTRL_ADDR + CLINT_MSIP0);
    80000690:	0000                	unimp
    80000692:	0200                	addi	s0,sp,256
    80000694:	0000                	unimp
	...

0000000080000698 <core1>:
uint32_t *core1 = (void *)(CLINT_CTRL_ADDR + CLINT_MSIP1);
    80000698:	0004                	.2byte	0x4
    8000069a:	0200                	addi	s0,sp,256
    8000069c:	0000                	unimp
	...

00000000800006a0 <core2>:
uint32_t *core2 = (void *)(CLINT_CTRL_ADDR + CLINT_MSIP2);
    800006a0:	0008                	.2byte	0x8
    800006a2:	0200                	addi	s0,sp,256
    800006a4:	0000                	unimp
	...

00000000800006a8 <core3>:
uint32_t *core3 = (void *)(CLINT_CTRL_ADDR + CLINT_MSIP3);
    800006a8:	000c                	.2byte	0xc
    800006aa:	0200                	addi	s0,sp,256
    800006ac:	0000                	unimp
	...

Disassembly of section .rodata:

00000000800006b0 <.rodata>:
    800006b0:	fd9a                	sd	t1,248(sp)
    800006b2:	ffff                	.2byte	0xffff
    800006b4:	fdb4                	sd	a3,120(a1)
    800006b6:	ffff                	.2byte	0xffff
    800006b8:	fdb4                	sd	a3,120(a1)
    800006ba:	ffff                	.2byte	0xffff
    800006bc:	fdb4                	sd	a3,120(a1)
    800006be:	ffff                	.2byte	0xffff
    800006c0:	fdb4                	sd	a3,120(a1)
    800006c2:	ffff                	.2byte	0xffff
    800006c4:	fcce                	sd	s3,120(sp)
    800006c6:	ffff                	.2byte	0xffff
    800006c8:	fdb4                	sd	a3,120(a1)
    800006ca:	ffff                	.2byte	0xffff
    800006cc:	fdb4                	sd	a3,120(a1)
    800006ce:	ffff                	.2byte	0xffff
    800006d0:	fdb4                	sd	a3,120(a1)
    800006d2:	ffff                	.2byte	0xffff
    800006d4:	fbe6                	sd	s9,496(sp)
    800006d6:	ffff                	.2byte	0xffff
    800006d8:	fdb4                	sd	a3,120(a1)
    800006da:	ffff                	.2byte	0xffff
    800006dc:	fdb4                	sd	a3,120(a1)
    800006de:	ffff                	.2byte	0xffff
    800006e0:	fdb4                	sd	a3,120(a1)
    800006e2:	ffff                	.2byte	0xffff
    800006e4:	fdb4                	sd	a3,120(a1)
    800006e6:	ffff                	.2byte	0xffff
    800006e8:	fdb4                	sd	a3,120(a1)
    800006ea:	ffff                	.2byte	0xffff
    800006ec:	fdb4                	sd	a3,120(a1)
    800006ee:	ffff                	.2byte	0xffff
    800006f0:	fd84                	sd	s1,56(a1)
    800006f2:	ffff                	.2byte	0xffff
    800006f4:	fdb4                	sd	a3,120(a1)
    800006f6:	ffff                	.2byte	0xffff
    800006f8:	fdb4                	sd	a3,120(a1)
    800006fa:	ffff                	.2byte	0xffff
    800006fc:	fdb4                	sd	a3,120(a1)
    800006fe:	ffff                	.2byte	0xffff
    80000700:	fdb4                	sd	a3,120(a1)
    80000702:	ffff                	.2byte	0xffff
    80000704:	fcd6                	sd	s5,120(sp)
    80000706:	ffff                	.2byte	0xffff
    80000708:	6548                	ld	a0,136(a0)
    8000070a:	6c6c                	ld	a1,216(s0)
    8000070c:	7266206f          	j	80062e32 <core3+0x6278a>
    80000710:	63206d6f          	jal	s10,80006d42 <core3+0x669a>
    80000714:	2065726f          	jal	tp,8005791a <core3+0x57272>
    80000718:	0030                	addi	a2,sp,8
    8000071a:	0000                	unimp
    8000071c:	0000                	unimp
    8000071e:	0000                	unimp
    80000720:	6548                	ld	a0,136(a0)
    80000722:	6c6c                	ld	a1,216(s0)
    80000724:	7266206f          	j	80062e4a <core3+0x627a2>
    80000728:	63206d6f          	jal	s10,80006d5a <core3+0x66b2>
    8000072c:	2065726f          	jal	tp,80057932 <core3+0x5728a>
    80000730:	0031                	c.nop	12
    80000732:	0000                	unimp
    80000734:	0000                	unimp
    80000736:	0000                	unimp
    80000738:	6548                	ld	a0,136(a0)
    8000073a:	6c6c                	ld	a1,216(s0)
    8000073c:	7266206f          	j	80062e62 <core3+0x627ba>
    80000740:	63206d6f          	jal	s10,80006d72 <core3+0x66ca>
    80000744:	2065726f          	jal	tp,8005794a <core3+0x572a2>
    80000748:	0032                	c.slli	zero,0xc
    8000074a:	0000                	unimp
    8000074c:	0000                	unimp
    8000074e:	0000                	unimp
    80000750:	6548                	ld	a0,136(a0)
    80000752:	6c6c                	ld	a1,216(s0)
    80000754:	7266206f          	j	80062e7a <core3+0x627d2>
    80000758:	63206d6f          	jal	s10,80006d8a <core3+0x66e2>
    8000075c:	2065726f          	jal	tp,80057962 <core3+0x572ba>
    80000760:	33 00             	Address 0x0000000080000760 is out of bounds.


Disassembly of section .riscv.attributes:

0000000000000000 <.riscv.attributes>:
   0:	2e41                	addiw	t3,t3,16
   2:	0000                	unimp
   4:	7200                	ld	s0,32(a2)
   6:	7369                	lui	t1,0xffffa
   8:	01007663          	bgeu	zero,a6,14 <_prog_start-0x7fffffec>
   c:	0024                	addi	s1,sp,8
   e:	0000                	unimp
  10:	1004                	addi	s1,sp,32
  12:	7205                	lui	tp,0xfffe1
  14:	3676                	.2byte	0x3676
  16:	6934                	ld	a3,80(a0)
  18:	7032                	.2byte	0x7032
  1a:	5f30                	lw	a2,120(a4)
  1c:	326d                	addiw	tp,tp,-5 # fffffffffffe0ffb <core3+0xffffffff7ffe0953>
  1e:	3070                	.2byte	0x3070
  20:	615f 7032 5f30      	.byte	0x5f, 0x61, 0x32, 0x70, 0x30, 0x5f
  26:	30703263          	.4byte	0x30703263
  2a:	0800                	addi	s0,sp,16
  2c:	0a01                	addi	s4,s4,0
  2e:	0b              	Address 0x000000000000002e is out of bounds.


Disassembly of section .comment:

0000000000000000 <.comment>:
   0:	3a434347          	.4byte	0x3a434347
   4:	2820                	.2byte	0x2820
   6:	65653267          	.4byte	0x65653267
   a:	6535                	lui	a0,0xd
   c:	3334                	.2byte	0x3334
   e:	3030                	.2byte	0x3030
  10:	3831                	addiw	a6,a6,-20
  12:	2029                	.2byte	0x2029
  14:	3231                	addiw	tp,tp,-20 # ffffffffffffffec <core3+0xffffffff7ffff944>
  16:	322e                	.2byte	0x322e
  18:	302e                	.2byte	0x302e
	...

Disassembly of section .debug_line:

0000000000000000 <.debug_line>:
   0:	00f2                	slli	ra,ra,0x1c
   2:	0000                	unimp
   4:	0005                	c.nop	1
   6:	0008                	.2byte	0x8
   8:	002e                	c.slli	zero,0xb
   a:	0000                	unimp
   c:	0101                	addi	sp,sp,0
   e:	fb01                	bnez	a4,ffffffffffffff1e <core3+0xffffffff7ffff876>
  10:	0d0e                	slli	s10,s10,0x3
  12:	0100                	addi	s0,sp,128
  14:	0101                	addi	sp,sp,0
  16:	0001                	nop
  18:	0000                	unimp
  1a:	0001                	nop
  1c:	0100                	addi	s0,sp,128
  1e:	0101                	addi	sp,sp,0
  20:	021f 0000 0000      	.byte	0x1f, 0x02, 0x00, 0x00, 0x00, 0x00
  26:	0028                	addi	a0,sp,8
  28:	0000                	unimp
  2a:	0102                	c.slli64	sp
  2c:	021f 020f 0054      	.byte	0x1f, 0x02, 0x0f, 0x02, 0x54, 0x00
  32:	0000                	unimp
  34:	5401                	li	s0,-32
  36:	0000                	unimp
  38:	0100                	addi	s0,sp,128
  3a:	0900                	addi	s0,sp,144
  3c:	0002                	c.slli64	zero
  3e:	0000                	unimp
  40:	0080                	addi	s0,sp,64
  42:	0000                	unimp
  44:	0300                	addi	s0,sp,384
  46:	010a                	slli	sp,sp,0x2
  48:	04090103          	lb	sp,64(s2)
  4c:	0100                	addi	s0,sp,128
  4e:	04090103          	lb	sp,64(s2)
  52:	0100                	addi	s0,sp,128
  54:	04090103          	lb	sp,64(s2)
  58:	0100                	addi	s0,sp,128
  5a:	04090103          	lb	sp,64(s2)
  5e:	0100                	addi	s0,sp,128
  60:	04090103          	lb	sp,64(s2)
  64:	0100                	addi	s0,sp,128
  66:	04090203          	lb	tp,64(s2)
  6a:	0100                	addi	s0,sp,128
  6c:	04090103          	lb	sp,64(s2)
  70:	0100                	addi	s0,sp,128
  72:	08090103          	lb	sp,128(s2)
  76:	0100                	addi	s0,sp,128
  78:	04090203          	lb	tp,64(s2)
  7c:	0100                	addi	s0,sp,128
  7e:	04090103          	lb	sp,64(s2)
  82:	0100                	addi	s0,sp,128
  84:	04090103          	lb	sp,64(s2)
  88:	0100                	addi	s0,sp,128
  8a:	04090103          	lb	sp,64(s2)
  8e:	0100                	addi	s0,sp,128
  90:	04090203          	lb	tp,64(s2)
  94:	0100                	addi	s0,sp,128
  96:	08090103          	lb	sp,128(s2)
  9a:	0100                	addi	s0,sp,128
  9c:	04090203          	lb	tp,64(s2)
  a0:	0100                	addi	s0,sp,128
  a2:	04090103          	lb	sp,64(s2)
  a6:	0100                	addi	s0,sp,128
  a8:	04090103          	lb	sp,64(s2)
  ac:	0100                	addi	s0,sp,128
  ae:	08090103          	lb	sp,128(s2)
  b2:	0100                	addi	s0,sp,128
  b4:	04090203          	lb	tp,64(s2)
  b8:	0100                	addi	s0,sp,128
  ba:	04090103          	lb	sp,64(s2)
  be:	0100                	addi	s0,sp,128
  c0:	04090103          	lb	sp,64(s2)
  c4:	0100                	addi	s0,sp,128
  c6:	08090103          	lb	sp,128(s2)
  ca:	0100                	addi	s0,sp,128
  cc:	04090203          	lb	tp,64(s2)
  d0:	0100                	addi	s0,sp,128
  d2:	08090203          	lb	tp,128(s2)
  d6:	0100                	addi	s0,sp,128
  d8:	04090203          	lb	tp,64(s2)
  dc:	0100                	addi	s0,sp,128
  de:	04090103          	lb	sp,64(s2)
  e2:	0100                	addi	s0,sp,128
  e4:	04090103          	lb	sp,64(s2)
  e8:	0100                	addi	s0,sp,128
  ea:	04090103          	lb	sp,64(s2)
  ee:	0100                	addi	s0,sp,128
  f0:	0409                	addi	s0,s0,2
  f2:	0000                	unimp
  f4:	0101                	addi	sp,sp,0
  f6:	018e                	slli	gp,gp,0x3
  f8:	0000                	unimp
  fa:	0005                	c.nop	1
  fc:	0008                	.2byte	0x8
  fe:	002e                	c.slli	zero,0xb
 100:	0000                	unimp
 102:	0101                	addi	sp,sp,0
 104:	fb01                	bnez	a4,14 <_prog_start-0x7fffffec>
 106:	0d0e                	slli	s10,s10,0x3
 108:	0100                	addi	s0,sp,128
 10a:	0101                	addi	sp,sp,0
 10c:	0001                	nop
 10e:	0000                	unimp
 110:	0001                	nop
 112:	0100                	addi	s0,sp,128
 114:	0101                	addi	sp,sp,0
 116:	021f 0000 0000      	.byte	0x1f, 0x02, 0x00, 0x00, 0x00, 0x00
 11c:	0028                	addi	a0,sp,8
 11e:	0000                	unimp
 120:	0102                	c.slli64	sp
 122:	021f 020f 005b      	.byte	0x1f, 0x02, 0x0f, 0x02, 0x5b, 0x00
 128:	0000                	unimp
 12a:	5b01                	li	s6,-32
 12c:	0000                	unimp
 12e:	0100                	addi	s0,sp,128
 130:	0900                	addi	s0,sp,144
 132:	8802                	jr	a6
 134:	0000                	unimp
 136:	0080                	addi	s0,sp,64
 138:	0000                	unimp
 13a:	0300                	addi	s0,sp,384
 13c:	010e                	slli	sp,sp,0x3
 13e:	04090103          	lb	sp,64(s2)
 142:	0100                	addi	s0,sp,128
 144:	04090103          	lb	sp,64(s2)
 148:	0100                	addi	s0,sp,128
 14a:	04090103          	lb	sp,64(s2)
 14e:	0100                	addi	s0,sp,128
 150:	04090103          	lb	sp,64(s2)
 154:	0100                	addi	s0,sp,128
 156:	04090103          	lb	sp,64(s2)
 15a:	0100                	addi	s0,sp,128
 15c:	04090203          	lb	tp,64(s2)
 160:	0100                	addi	s0,sp,128
 162:	04090103          	lb	sp,64(s2)
 166:	0100                	addi	s0,sp,128
 168:	04090103          	lb	sp,64(s2)
 16c:	0100                	addi	s0,sp,128
 16e:	04090103          	lb	sp,64(s2)
 172:	0100                	addi	s0,sp,128
 174:	04090103          	lb	sp,64(s2)
 178:	0100                	addi	s0,sp,128
 17a:	04090103          	lb	sp,64(s2)
 17e:	0100                	addi	s0,sp,128
 180:	04090103          	lb	sp,64(s2)
 184:	0100                	addi	s0,sp,128
 186:	04090103          	lb	sp,64(s2)
 18a:	0100                	addi	s0,sp,128
 18c:	04090103          	lb	sp,64(s2)
 190:	0100                	addi	s0,sp,128
 192:	04090403          	lb	s0,64(s2)
 196:	0100                	addi	s0,sp,128
 198:	04090103          	lb	sp,64(s2)
 19c:	0100                	addi	s0,sp,128
 19e:	04090103          	lb	sp,64(s2)
 1a2:	0100                	addi	s0,sp,128
 1a4:	04090103          	lb	sp,64(s2)
 1a8:	0100                	addi	s0,sp,128
 1aa:	04090103          	lb	sp,64(s2)
 1ae:	0100                	addi	s0,sp,128
 1b0:	04090103          	lb	sp,64(s2)
 1b4:	0100                	addi	s0,sp,128
 1b6:	04090103          	lb	sp,64(s2)
 1ba:	0100                	addi	s0,sp,128
 1bc:	04090103          	lb	sp,64(s2)
 1c0:	0100                	addi	s0,sp,128
 1c2:	04090203          	lb	tp,64(s2)
 1c6:	0100                	addi	s0,sp,128
 1c8:	04090103          	lb	sp,64(s2)
 1cc:	0100                	addi	s0,sp,128
 1ce:	04090103          	lb	sp,64(s2)
 1d2:	0100                	addi	s0,sp,128
 1d4:	04090103          	lb	sp,64(s2)
 1d8:	0100                	addi	s0,sp,128
 1da:	04090403          	lb	s0,64(s2)
 1de:	0100                	addi	s0,sp,128
 1e0:	04090103          	lb	sp,64(s2)
 1e4:	0100                	addi	s0,sp,128
 1e6:	04090403          	lb	s0,64(s2)
 1ea:	0100                	addi	s0,sp,128
 1ec:	04090103          	lb	sp,64(s2)
 1f0:	0100                	addi	s0,sp,128
 1f2:	04090103          	lb	sp,64(s2)
 1f6:	0100                	addi	s0,sp,128
 1f8:	04090103          	lb	sp,64(s2)
 1fc:	0100                	addi	s0,sp,128
 1fe:	04090103          	lb	sp,64(s2)
 202:	0100                	addi	s0,sp,128
 204:	04090103          	lb	sp,64(s2)
 208:	0100                	addi	s0,sp,128
 20a:	04090403          	lb	s0,64(s2)
 20e:	0100                	addi	s0,sp,128
 210:	04090103          	lb	sp,64(s2)
 214:	0100                	addi	s0,sp,128
 216:	04090103          	lb	sp,64(s2)
 21a:	0100                	addi	s0,sp,128
 21c:	04090103          	lb	sp,64(s2)
 220:	0100                	addi	s0,sp,128
 222:	04090103          	lb	sp,64(s2)
 226:	0100                	addi	s0,sp,128
 228:	04090103          	lb	sp,64(s2)
 22c:	0100                	addi	s0,sp,128
 22e:	04090103          	lb	sp,64(s2)
 232:	0100                	addi	s0,sp,128
 234:	04090103          	lb	sp,64(s2)
 238:	0100                	addi	s0,sp,128
 23a:	04090103          	lb	sp,64(s2)
 23e:	0100                	addi	s0,sp,128
 240:	04090103          	lb	sp,64(s2)
 244:	0100                	addi	s0,sp,128
 246:	04090103          	lb	sp,64(s2)
 24a:	0100                	addi	s0,sp,128
 24c:	04090103          	lb	sp,64(s2)
 250:	0100                	addi	s0,sp,128
 252:	04090103          	lb	sp,64(s2)
 256:	0100                	addi	s0,sp,128
 258:	04090403          	lb	s0,64(s2)
 25c:	0100                	addi	s0,sp,128
 25e:	04090103          	lb	sp,64(s2)
 262:	0100                	addi	s0,sp,128
 264:	04090103          	lb	sp,64(s2)
 268:	0100                	addi	s0,sp,128
 26a:	04090103          	lb	sp,64(s2)
 26e:	0100                	addi	s0,sp,128
 270:	04090103          	lb	sp,64(s2)
 274:	0100                	addi	s0,sp,128
 276:	04090103          	lb	sp,64(s2)
 27a:	0100                	addi	s0,sp,128
 27c:	04090103          	lb	sp,64(s2)
 280:	0100                	addi	s0,sp,128
 282:	0409                	addi	s0,s0,2
 284:	0000                	unimp
 286:	0101                	addi	sp,sp,0
 288:	0396                	slli	t2,t2,0x5
 28a:	0000                	unimp
 28c:	0005                	c.nop	1
 28e:	0008                	.2byte	0x8
 290:	0052                	c.slli	zero,0x14
 292:	0000                	unimp
 294:	0101                	addi	sp,sp,0
 296:	fb01                	bnez	a4,1a6 <_prog_start-0x7ffffe5a>
 298:	0d0e                	slli	s10,s10,0x3
 29a:	0100                	addi	s0,sp,128
 29c:	0101                	addi	sp,sp,0
 29e:	0001                	nop
 2a0:	0000                	unimp
 2a2:	0001                	nop
 2a4:	0100                	addi	s0,sp,128
 2a6:	0101                	addi	sp,sp,0
 2a8:	061f 0000 0000      	.byte	0x1f, 0x06, 0x00, 0x00, 0x00, 0x00
 2ae:	0028                	addi	a0,sp,8
 2b0:	0000                	unimp
 2b2:	009a                	slli	ra,ra,0x6
 2b4:	0000                	unimp
 2b6:	00ca                	slli	ra,ra,0x12
 2b8:	0000                	unimp
 2ba:	013e                	slli	sp,sp,0xf
 2bc:	0000                	unimp
 2be:	000001ab          	.4byte	0x1ab
 2c2:	0102                	c.slli64	sp
 2c4:	021f 060f 0090      	.byte	0x1f, 0x02, 0x0f, 0x06, 0x90, 0x00
 2ca:	0000                	unimp
 2cc:	1401                	addi	s0,s0,-32
 2ce:	0002                	c.slli64	zero
 2d0:	0200                	addi	s0,sp,256
 2d2:	0090                	addi	a2,sp,64
 2d4:	0000                	unimp
 2d6:	1e01                	addi	t3,t3,-32
 2d8:	0002                	c.slli64	zero
 2da:	0300                	addi	s0,sp,384
 2dc:	00000227          	.4byte	0x227
 2e0:	3804                	.2byte	0x3804
 2e2:	0002                	c.slli64	zero
 2e4:	0500                	addi	s0,sp,640
 2e6:	0105                	addi	sp,sp,1
 2e8:	0900                	addi	s0,sp,144
 2ea:	6402                	ld	s0,0(sp)
 2ec:	0001                	nop
 2ee:	0080                	addi	s0,sp,64
 2f0:	0000                	unimp
 2f2:	0300                	addi	s0,sp,384
 2f4:	0115                	addi	sp,sp,5
 2f6:	1505                	addi	a0,a0,-31 # cfe1 <_prog_start-0x7fff301f>
 2f8:	0c090103          	lb	sp,192(s2)
 2fc:	0100                	addi	s0,sp,128
 2fe:	0305                	addi	t1,t1,1 # ffffffffffffa001 <core3+0xffffffff7fff9959>
 300:	0200                	addi	s0,sp,256
 302:	0104                	addi	s1,sp,128
 304:	08090403          	lb	s0,128(s2)
 308:	0100                	addi	s0,sp,128
 30a:	0d05                	addi	s10,s10,1
 30c:	0200                	addi	s0,sp,256
 30e:	0104                	addi	s1,sp,128
 310:	16090403          	lb	s0,352(s2)
 314:	0100                	addi	s0,sp,128
 316:	0105                	addi	sp,sp,1
 318:	0a090503          	lb	a0,160(s2)
 31c:	0100                	addi	s0,sp,128
 31e:	0204                	addi	s1,sp,256
 320:	0a096503          	lwu	a0,160(s2)
 324:	0100                	addi	s0,sp,128
 326:	0205                	addi	tp,tp,1 # 1 <_prog_start-0x7fffffff>
 328:	0c090203          	lb	tp,192(s2)
 32c:	0100                	addi	s0,sp,128
 32e:	0305                	addi	t1,t1,1
 330:	0200                	addi	s0,sp,256
 332:	0204                	addi	s1,sp,256
 334:	02090103          	lb	sp,32(s2)
 338:	0100                	addi	s0,sp,128
 33a:	1c05                	addi	s8,s8,-31
 33c:	0200                	addi	s0,sp,256
 33e:	0204                	addi	s1,sp,256
 340:	0a097f03          	.4byte	0xa097f03
 344:	0100                	addi	s0,sp,128
 346:	0c05                	addi	s8,s8,1
 348:	0200                	addi	s0,sp,256
 34a:	0104                	addi	s1,sp,128
 34c:	0a090003          	lb	zero,160(s2)
 350:	0100                	addi	s0,sp,128
 352:	1205                	addi	tp,tp,-31 # ffffffffffffffe1 <core3+0xffffffff7ffff939>
 354:	0200                	addi	s0,sp,256
 356:	0104                	addi	s1,sp,128
 358:	0c090003          	lb	zero,192(s2)
 35c:	0100                	addi	s0,sp,128
 35e:	0105                	addi	sp,sp,1
 360:	0a090203          	lb	tp,160(s2)
 364:	0100                	addi	s0,sp,128
 366:	0c090303          	lb	t1,192(s2)
 36a:	0100                	addi	s0,sp,128
 36c:	0205                	addi	tp,tp,1 # 1 <_prog_start-0x7fffffff>
 36e:	0c090103          	lb	sp,192(s2)
 372:	0100                	addi	s0,sp,128
 374:	08090103          	lb	sp,128(s2)
 378:	0100                	addi	s0,sp,128
 37a:	06090103          	lb	sp,96(s2)
 37e:	0100                	addi	s0,sp,128
 380:	0105                	addi	sp,sp,1
 382:	06090103          	lb	sp,96(s2)
 386:	0100                	addi	s0,sp,128
 388:	0a090303          	lb	t1,160(s2)
 38c:	0100                	addi	s0,sp,128
 38e:	0205                	addi	tp,tp,1 # 1 <_prog_start-0x7fffffff>
 390:	1e090503          	lb	a0,480(s2)
 394:	0100                	addi	s0,sp,128
 396:	0c05                	addi	s8,s8,1
 398:	14090103          	lb	sp,320(s2)
 39c:	0100                	addi	s0,sp,128
 39e:	0a05                	addi	s4,s4,1
 3a0:	04090103          	lb	sp,64(s2)
 3a4:	0100                	addi	s0,sp,128
 3a6:	04090103          	lb	sp,64(s2)
 3aa:	0100                	addi	s0,sp,128
 3ac:	0805                	addi	a6,a6,1
 3ae:	04090103          	lb	sp,64(s2)
 3b2:	0100                	addi	s0,sp,128
 3b4:	0605                	addi	a2,a2,1
 3b6:	02090103          	lb	sp,32(s2)
 3ba:	0100                	addi	s0,sp,128
 3bc:	0405                	addi	s0,s0,1
 3be:	0c090103          	lb	sp,192(s2)
 3c2:	0100                	addi	s0,sp,128
 3c4:	0705                	addi	a4,a4,1
 3c6:	3a090303          	lb	t1,928(s2)
 3ca:	0100                	addi	s0,sp,128
 3cc:	0e05                	addi	t3,t3,1
 3ce:	12090203          	lb	tp,288(s2)
 3d2:	0100                	addi	s0,sp,128
 3d4:	0505                	addi	a0,a0,1
 3d6:	04090003          	lb	zero,64(s2)
 3da:	0100                	addi	s0,sp,128
 3dc:	2805                	addiw	a6,a6,1
 3de:	0200                	addi	s0,sp,256
 3e0:	0304                	addi	s1,sp,384
 3e2:	02090003          	lb	zero,32(s2)
 3e6:	0100                	addi	s0,sp,128
 3e8:	1f05                	addi	t5,t5,-31
 3ea:	0200                	addi	s0,sp,256
 3ec:	0304                	addi	s1,sp,384
 3ee:	0c090003          	lb	zero,192(s2)
 3f2:	0100                	addi	s0,sp,128
 3f4:	1705                	addi	a4,a4,-31
 3f6:	0200                	addi	s0,sp,256
 3f8:	0104                	addi	s1,sp,128
 3fa:	0a090003          	lb	zero,160(s2)
 3fe:	0100                	addi	s0,sp,128
 400:	0805                	addi	a6,a6,1
 402:	10090103          	lb	sp,256(s2)
 406:	0100                	addi	s0,sp,128
 408:	0605                	addi	a2,a2,1
 40a:	06090103          	lb	sp,96(s2)
 40e:	0100                	addi	s0,sp,128
 410:	08090103          	lb	sp,128(s2)
 414:	0100                	addi	s0,sp,128
 416:	0f05                	addi	t5,t5,1
 418:	02090303          	lb	t1,32(s2)
 41c:	0100                	addi	s0,sp,128
 41e:	0605                	addi	a2,a2,1
 420:	08090003          	lb	zero,128(s2)
 424:	0100                	addi	s0,sp,128
 426:	2d05                	addiw	s10,s10,1
 428:	0200                	addi	s0,sp,256
 42a:	0304                	addi	s1,sp,384
 42c:	02090003          	lb	zero,32(s2)
 430:	0100                	addi	s0,sp,128
 432:	2b05                	addiw	s6,s6,1
 434:	0200                	addi	s0,sp,256
 436:	0304                	addi	s1,sp,384
 438:	08090003          	lb	zero,128(s2)
 43c:	0100                	addi	s0,sp,128
 43e:	2805                	addiw	a6,a6,1
 440:	0200                	addi	s0,sp,256
 442:	0304                	addi	s1,sp,384
 444:	08090003          	lb	zero,128(s2)
 448:	0100                	addi	s0,sp,128
 44a:	1f05                	addi	t5,t5,-31
 44c:	0200                	addi	s0,sp,256
 44e:	0304                	addi	s1,sp,384
 450:	0c090003          	lb	zero,192(s2)
 454:	0100                	addi	s0,sp,128
 456:	1905                	addi	s2,s2,-31
 458:	0200                	addi	s0,sp,256
 45a:	0104                	addi	s1,sp,128
 45c:	0a090003          	lb	zero,160(s2)
 460:	0100                	addi	s0,sp,128
 462:	1505                	addi	a0,a0,-31
 464:	0a090103          	lb	sp,160(s2)
 468:	0100                	addi	s0,sp,128
 46a:	1105                	addi	sp,sp,-31
 46c:	0a090003          	lb	zero,160(s2)
 470:	0100                	addi	s0,sp,128
 472:	0b05                	addi	s6,s6,1
 474:	0c090003          	lb	zero,192(s2)
 478:	0100                	addi	s0,sp,128
 47a:	0805                	addi	a6,a6,1
 47c:	04090103          	lb	sp,64(s2)
 480:	0100                	addi	s0,sp,128
 482:	0d05                	addi	s10,s10,1
 484:	0e097d03          	.4byte	0xe097d03
 488:	0100                	addi	s0,sp,128
 48a:	0e05                	addi	t3,t3,1
 48c:	06090503          	lb	a0,96(s2)
 490:	0100                	addi	s0,sp,128
 492:	0505                	addi	a0,a0,1
 494:	04090003          	lb	zero,64(s2)
 498:	0100                	addi	s0,sp,128
 49a:	2505                	addiw	a0,a0,1
 49c:	0200                	addi	s0,sp,256
 49e:	0304                	addi	s1,sp,384
 4a0:	02090003          	lb	zero,32(s2)
 4a4:	0100                	addi	s0,sp,128
 4a6:	2105                	addiw	sp,sp,1
 4a8:	0200                	addi	s0,sp,256
 4aa:	0304                	addi	s1,sp,384
 4ac:	12090003          	lb	zero,288(s2)
 4b0:	0100                	addi	s0,sp,128
 4b2:	1605                	addi	a2,a2,-31
 4b4:	0200                	addi	s0,sp,256
 4b6:	0104                	addi	s1,sp,128
 4b8:	0a090003          	lb	zero,160(s2)
 4bc:	0100                	addi	s0,sp,128
 4be:	1a05                	addi	s4,s4,-31
 4c0:	0200                	addi	s0,sp,256
 4c2:	0104                	addi	s1,sp,128
 4c4:	0c090003          	lb	zero,192(s2)
 4c8:	0100                	addi	s0,sp,128
 4ca:	0505                	addi	a0,a0,1
 4cc:	02090103          	lb	sp,32(s2)
 4d0:	0100                	addi	s0,sp,128
 4d2:	0d05                	addi	s10,s10,1
 4d4:	0200                	addi	s0,sp,256
 4d6:	0104                	addi	s1,sp,128
 4d8:	02090203          	lb	tp,32(s2)
 4dc:	0100                	addi	s0,sp,128
 4de:	0805                	addi	a6,a6,1
 4e0:	08090503          	lb	a0,128(s2)
 4e4:	0100                	addi	s0,sp,128
 4e6:	0a090103          	lb	sp,160(s2)
 4ea:	0100                	addi	s0,sp,128
 4ec:	12090103          	lb	sp,288(s2)
 4f0:	0100                	addi	s0,sp,128
 4f2:	0a05                	addi	s4,s4,1
 4f4:	0a090203          	lb	tp,160(s2)
 4f8:	0100                	addi	s0,sp,128
 4fa:	0805                	addi	a6,a6,1
 4fc:	0e090003          	lb	zero,224(s2)
 500:	0100                	addi	s0,sp,128
 502:	1605                	addi	a2,a2,-31
 504:	08090103          	lb	sp,128(s2)
 508:	0100                	addi	s0,sp,128
 50a:	0200                	addi	s0,sp,256
 50c:	0104                	addi	s1,sp,128
 50e:	0306                	slli	t1,t1,0x1
 510:	0900                	addi	s0,sp,144
 512:	000a                	c.slli	zero,0x2
 514:	0001                	nop
 516:	0402                	c.slli64	s0
 518:	0302                	c.slli64	t1
 51a:	0900                	addi	s0,sp,144
 51c:	0004                	.2byte	0x4
 51e:	0501                	addi	a0,a0,0
 520:	0008                	.2byte	0x8
 522:	0402                	c.slli64	s0
 524:	0604                	addi	s1,sp,768
 526:	02090003          	lb	zero,32(s2)
 52a:	0100                	addi	s0,sp,128
 52c:	0505                	addi	a0,a0,1
 52e:	0200                	addi	s0,sp,256
 530:	0404                	addi	s1,sp,512
 532:	04090203          	lb	tp,64(s2)
 536:	0100                	addi	s0,sp,128
 538:	0d05                	addi	s10,s10,1
 53a:	02090203          	lb	tp,32(s2)
 53e:	0100                	addi	s0,sp,128
 540:	0805                	addi	a6,a6,1
 542:	10090003          	lb	zero,256(s2)
 546:	0100                	addi	s0,sp,128
 548:	0605                	addi	a2,a2,1
 54a:	06090103          	lb	sp,96(s2)
 54e:	0100                	addi	s0,sp,128
 550:	1905                	addi	s2,s2,-31
 552:	0200                	addi	s0,sp,256
 554:	0104                	addi	s1,sp,128
 556:	0a090003          	lb	zero,160(s2)
 55a:	0100                	addi	s0,sp,128
 55c:	0605                	addi	a2,a2,1
 55e:	0200                	addi	s0,sp,256
 560:	0104                	addi	s1,sp,128
 562:	08090003          	lb	zero,128(s2)
 566:	0100                	addi	s0,sp,128
 568:	2705                	addiw	a4,a4,1
 56a:	0200                	addi	s0,sp,256
 56c:	0204                	addi	s1,sp,256
 56e:	0a090003          	lb	zero,160(s2)
 572:	0100                	addi	s0,sp,128
 574:	0605                	addi	a2,a2,1
 576:	0200                	addi	s0,sp,256
 578:	0204                	addi	s1,sp,256
 57a:	08090003          	lb	zero,128(s2)
 57e:	0100                	addi	s0,sp,128
 580:	0200                	addi	s0,sp,256
 582:	0404                	addi	s1,sp,512
 584:	0306                	slli	t1,t1,0x1
 586:	0900                	addi	s0,sp,144
 588:	0008                	.2byte	0x8
 58a:	0501                	addi	a0,a0,0
 58c:	0016                	c.slli	zero,0x5
 58e:	0402                	c.slli64	s0
 590:	0604                	addi	s1,sp,768
 592:	06097d03          	.4byte	0x6097d03
 596:	0100                	addi	s0,sp,128
 598:	0e05                	addi	t3,t3,1
 59a:	0200                	addi	s0,sp,256
 59c:	0104                	addi	s1,sp,128
 59e:	0a090003          	lb	zero,160(s2)
 5a2:	0100                	addi	s0,sp,128
 5a4:	0505                	addi	a0,a0,1
 5a6:	08090503          	lb	a0,128(s2)
 5aa:	0100                	addi	s0,sp,128
 5ac:	02090303          	lb	t1,32(s2)
 5b0:	0100                	addi	s0,sp,128
 5b2:	14090103          	lb	sp,320(s2)
 5b6:	0100                	addi	s0,sp,128
 5b8:	0b05                	addi	s6,s6,1
 5ba:	02090203          	lb	tp,32(s2)
 5be:	0100                	addi	s0,sp,128
 5c0:	0505                	addi	a0,a0,1
 5c2:	0e090003          	lb	zero,224(s2)
 5c6:	0100                	addi	s0,sp,128
 5c8:	0a090103          	lb	sp,160(s2)
 5cc:	0100                	addi	s0,sp,128
 5ce:	0e05                	addi	t3,t3,1
 5d0:	02090203          	lb	tp,32(s2)
 5d4:	0100                	addi	s0,sp,128
 5d6:	0c05                	addi	s8,s8,1
 5d8:	04090103          	lb	sp,64(s2)
 5dc:	0100                	addi	s0,sp,128
 5de:	04090103          	lb	sp,64(s2)
 5e2:	0100                	addi	s0,sp,128
 5e4:	0d05                	addi	s10,s10,1
 5e6:	06090103          	lb	sp,96(s2)
 5ea:	0100                	addi	s0,sp,128
 5ec:	0e05                	addi	t3,t3,1
 5ee:	10090103          	lb	sp,256(s2)
 5f2:	0100                	addi	s0,sp,128
 5f4:	0405                	addi	s0,s0,1
 5f6:	08090203          	lb	tp,128(s2)
 5fa:	0100                	addi	s0,sp,128
 5fc:	1205                	addi	tp,tp,-31 # ffffffffffffffe1 <core3+0xffffffff7ffff939>
 5fe:	0a094c03          	lbu	s8,160(s2)
 602:	0100                	addi	s0,sp,128
 604:	0c05                	addi	s8,s8,1
 606:	0c090003          	lb	zero,192(s2)
 60a:	0100                	addi	s0,sp,128
 60c:	1605                	addi	a2,a2,-31
 60e:	08090003          	lb	zero,128(s2)
 612:	0100                	addi	s0,sp,128
 614:	0105                	addi	sp,sp,1
 616:	0c093803          	ld	a6,192(s2)
 61a:	0100                	addi	s0,sp,128
 61c:	0c09                	addi	s8,s8,2
 61e:	0000                	unimp
 620:	0101                	addi	sp,sp,0
 622:	01bc                	addi	a5,sp,200
 624:	0000                	unimp
 626:	0005                	c.nop	1
 628:	0008                	.2byte	0x8
 62a:	004e                	c.slli	zero,0x13
 62c:	0000                	unimp
 62e:	0101                	addi	sp,sp,0
 630:	fb01                	bnez	a4,540 <_prog_start-0x7ffffac0>
 632:	0d0e                	slli	s10,s10,0x3
 634:	0100                	addi	s0,sp,128
 636:	0101                	addi	sp,sp,0
 638:	0001                	nop
 63a:	0000                	unimp
 63c:	0001                	nop
 63e:	0100                	addi	s0,sp,128
 640:	0101                	addi	sp,sp,0
 642:	051f 0000 0000      	.byte	0x1f, 0x05, 0x00, 0x00, 0x00, 0x00
 648:	0028                	addi	a0,sp,8
 64a:	0000                	unimp
 64c:	013e                	slli	sp,sp,0xf
 64e:	0000                	unimp
 650:	000001ab          	.4byte	0x1ab
 654:	009a                	slli	ra,ra,0x6
 656:	0000                	unimp
 658:	0102                	c.slli64	sp
 65a:	021f 060f 026e      	.byte	0x1f, 0x02, 0x0f, 0x06, 0x6e, 0x02
 660:	0000                	unimp
 662:	6e01                	.2byte	0x6e01
 664:	0002                	c.slli64	zero
 666:	0100                	addi	s0,sp,128
 668:	00000227          	.4byte	0x227
 66c:	3802                	.2byte	0x3802
 66e:	0002                	c.slli64	zero
 670:	0300                	addi	s0,sp,384
 672:	0214                	addi	a3,sp,256
 674:	0000                	unimp
 676:	7504                	ld	s1,40(a0)
 678:	0002                	c.slli64	zero
 67a:	0400                	addi	s0,sp,512
 67c:	0e05                	addi	t3,t3,1
 67e:	0900                	addi	s0,sp,144
 680:	c002                	sw	zero,0(sp)
 682:	0004                	.2byte	0x4
 684:	0080                	addi	s0,sp,64
 686:	0000                	unimp
 688:	0300                	addi	s0,sp,384
 68a:	0110                	addi	a2,sp,128
 68c:	0b05                	addi	s6,s6,1
 68e:	06090103          	lb	sp,96(s2)
 692:	0100                	addi	s0,sp,128
 694:	0205                	addi	tp,tp,1 # 1 <_prog_start-0x7fffffff>
 696:	04090003          	lb	zero,64(s2)
 69a:	0100                	addi	s0,sp,128
 69c:	2405                	addiw	s0,s0,1
 69e:	0200                	addi	s0,sp,256
 6a0:	0304                	addi	s1,sp,384
 6a2:	02090003          	lb	zero,32(s2)
 6a6:	0100                	addi	s0,sp,128
 6a8:	1405                	addi	s0,s0,-31
 6aa:	0200                	addi	s0,sp,256
 6ac:	0104                	addi	s1,sp,128
 6ae:	0a090003          	lb	zero,160(s2)
 6b2:	0100                	addi	s0,sp,128
 6b4:	0c05                	addi	s8,s8,1
 6b6:	14090103          	lb	sp,320(s2)
 6ba:	0100                	addi	s0,sp,128
 6bc:	0305                	addi	t1,t1,1
 6be:	04090003          	lb	zero,64(s2)
 6c2:	0100                	addi	s0,sp,128
 6c4:	2505                	addiw	a0,a0,1
 6c6:	0200                	addi	s0,sp,256
 6c8:	0304                	addi	s1,sp,384
 6ca:	02090003          	lb	zero,32(s2)
 6ce:	0100                	addi	s0,sp,128
 6d0:	1505                	addi	a0,a0,-31
 6d2:	0200                	addi	s0,sp,256
 6d4:	0104                	addi	s1,sp,128
 6d6:	0a090003          	lb	zero,160(s2)
 6da:	0100                	addi	s0,sp,128
 6dc:	0105                	addi	sp,sp,1
 6de:	14090103          	lb	sp,320(s2)
 6e2:	0100                	addi	s0,sp,128
 6e4:	2305                	addiw	t1,t1,1
 6e6:	0a090203          	lb	tp,160(s2)
 6ea:	0100                	addi	s0,sp,128
 6ec:	1005                	c.nop	-31
 6ee:	12090203          	lb	tp,288(s2)
 6f2:	0100                	addi	s0,sp,128
 6f4:	0705                	addi	a4,a4,1
 6f6:	0c090003          	lb	zero,192(s2)
 6fa:	0100                	addi	s0,sp,128
 6fc:	0805                	addi	a6,a6,1
 6fe:	04090203          	lb	tp,64(s2)
 702:	0100                	addi	s0,sp,128
 704:	0705                	addi	a4,a4,1
 706:	08090103          	lb	sp,128(s2)
 70a:	0100                	addi	s0,sp,128
 70c:	0c090103          	lb	sp,192(s2)
 710:	0100                	addi	s0,sp,128
 712:	04090103          	lb	sp,64(s2)
 716:	0100                	addi	s0,sp,128
 718:	2005                	.2byte	0x2005
 71a:	0a090003          	lb	zero,160(s2)
 71e:	0100                	addi	s0,sp,128
 720:	0705                	addi	a4,a4,1
 722:	04090103          	lb	sp,64(s2)
 726:	0100                	addi	s0,sp,128
 728:	2005                	.2byte	0x2005
 72a:	0c090003          	lb	zero,192(s2)
 72e:	0100                	addi	s0,sp,128
 730:	0805                	addi	a6,a6,1
 732:	04090203          	lb	tp,64(s2)
 736:	0100                	addi	s0,sp,128
 738:	0705                	addi	a4,a4,1
 73a:	0e090103          	lb	sp,224(s2)
 73e:	0100                	addi	s0,sp,128
 740:	0c090103          	lb	sp,192(s2)
 744:	0100                	addi	s0,sp,128
 746:	04090103          	lb	sp,64(s2)
 74a:	0100                	addi	s0,sp,128
 74c:	2005                	.2byte	0x2005
 74e:	0c090003          	lb	zero,192(s2)
 752:	0100                	addi	s0,sp,128
 754:	0705                	addi	a4,a4,1
 756:	04090103          	lb	sp,64(s2)
 75a:	0100                	addi	s0,sp,128
 75c:	2005                	.2byte	0x2005
 75e:	0c090003          	lb	zero,192(s2)
 762:	0100                	addi	s0,sp,128
 764:	0805                	addi	a6,a6,1
 766:	04090203          	lb	tp,64(s2)
 76a:	0100                	addi	s0,sp,128
 76c:	0705                	addi	a4,a4,1
 76e:	0e090103          	lb	sp,224(s2)
 772:	0100                	addi	s0,sp,128
 774:	0c090103          	lb	sp,192(s2)
 778:	0100                	addi	s0,sp,128
 77a:	04090103          	lb	sp,64(s2)
 77e:	0100                	addi	s0,sp,128
 780:	2005                	.2byte	0x2005
 782:	0c090003          	lb	zero,192(s2)
 786:	0100                	addi	s0,sp,128
 788:	0705                	addi	a4,a4,1
 78a:	04090103          	lb	sp,64(s2)
 78e:	0100                	addi	s0,sp,128
 790:	2005                	.2byte	0x2005
 792:	0c090003          	lb	zero,192(s2)
 796:	0100                	addi	s0,sp,128
 798:	0805                	addi	a6,a6,1
 79a:	04090203          	lb	tp,64(s2)
 79e:	0100                	addi	s0,sp,128
 7a0:	0705                	addi	a4,a4,1
 7a2:	0e090103          	lb	sp,224(s2)
 7a6:	0100                	addi	s0,sp,128
 7a8:	0c090103          	lb	sp,192(s2)
 7ac:	0100                	addi	s0,sp,128
 7ae:	04090103          	lb	sp,64(s2)
 7b2:	0100                	addi	s0,sp,128
 7b4:	2005                	.2byte	0x2005
 7b6:	0c090003          	lb	zero,192(s2)
 7ba:	0100                	addi	s0,sp,128
 7bc:	0705                	addi	a4,a4,1
 7be:	04090103          	lb	sp,64(s2)
 7c2:	0100                	addi	s0,sp,128
 7c4:	2005                	.2byte	0x2005
 7c6:	0a090003          	lb	zero,160(s2)
 7ca:	0100                	addi	s0,sp,128
 7cc:	0905                	addi	s2,s2,1
 7ce:	04090303          	lb	t1,64(s2)
 7d2:	0100                	addi	s0,sp,128
 7d4:	0105                	addi	sp,sp,1
 7d6:	02090103          	lb	sp,32(s2)
 7da:	0100                	addi	s0,sp,128
 7dc:	0a09                	addi	s4,s4,2
 7de:	0000                	unimp
 7e0:	0101                	addi	sp,sp,0

Disassembly of section .debug_line_str:

0000000000000000 <.debug_line_str>:
   0:	6d6f682f          	.4byte	0x6d6f682f
   4:	2f65                	addiw	t5,t5,25
   6:	6962                	ld	s2,24(sp)
   8:	686e                	ld	a6,216(sp)
   a:	7565696b          	.4byte	0x7565696b
   e:	6f64                	ld	s1,216(a4)
  10:	7365442f          	.4byte	0x7365442f
  14:	706f746b          	.4byte	0x706f746b
  18:	5349522f          	.4byte	0x5349522f
  1c:	2f562d43          	.4byte	0x2f562d43
  20:	6548                	ld	a0,136(a0)
  22:	6c6c                	ld	a1,216(s0)
  24:	00434d6f          	jal	s10,34028 <_prog_start-0x7ffcbfd8>
  28:	6d6f682f          	.4byte	0x6d6f682f
  2c:	2f65                	addiw	t5,t5,25
  2e:	6962                	ld	s2,24(sp)
  30:	686e                	ld	a6,216(sp)
  32:	7565696b          	.4byte	0x7565696b
  36:	6f64                	ld	s1,216(a4)
  38:	7365442f          	.4byte	0x7365442f
  3c:	706f746b          	.4byte	0x706f746b
  40:	5349522f          	.4byte	0x5349522f
  44:	2f562d43          	.4byte	0x2f562d43
  48:	6548                	ld	a0,136(a0)
  4a:	6c6c                	ld	a1,216(s0)
  4c:	2f434d6f          	jal	s10,34340 <_prog_start-0x7ffcbcc0>
  50:	00637273          	csrrci	tp,0x6,6
  54:	30747263          	bgeu	s0,t2,358 <_prog_start-0x7ffffca8>
  58:	532e                	lw	t1,232(sp)
  5a:	7400                	ld	s0,40(s0)
  5c:	7268                	ld	a0,224(a2)
  5e:	6165                	addi	sp,sp,112
  60:	2e64                	.2byte	0x2e64
  62:	682f0053          	.4byte	0x682f0053
  66:	2f656d6f          	jal	s10,5635c <_prog_start-0x7ffa9ca4>
  6a:	6962                	ld	s2,24(sp)
  6c:	686e                	ld	a6,216(sp)
  6e:	7565696b          	.4byte	0x7565696b
  72:	6f64                	ld	s1,216(a4)
  74:	7365442f          	.4byte	0x7365442f
  78:	706f746b          	.4byte	0x706f746b
  7c:	5349522f          	.4byte	0x5349522f
  80:	2f562d43          	.4byte	0x2f562d43
  84:	6548                	ld	a0,136(a0)
  86:	6c6c                	ld	a1,216(s0)
  88:	2f434d6f          	jal	s10,3437c <_prog_start-0x7ffcbc84>
  8c:	2f637273          	csrrci	tp,0x2f6,6
  90:	6972706b          	.4byte	0x6972706b
  94:	746e                	ld	s0,248(sp)
  96:	2e66                	.2byte	0x2e66
  98:	682f0063          	beq	t5,sp,718 <_prog_start-0x7ffff8e8>
  9c:	2f656d6f          	jal	s10,56392 <_prog_start-0x7ffa9c6e>
  a0:	6962                	ld	s2,24(sp)
  a2:	686e                	ld	a6,216(sp)
  a4:	7565696b          	.4byte	0x7565696b
  a8:	6f64                	ld	s1,216(a4)
  aa:	7365442f          	.4byte	0x7365442f
  ae:	706f746b          	.4byte	0x706f746b
  b2:	5349522f          	.4byte	0x5349522f
  b6:	2f562d43          	.4byte	0x2f562d43
  ba:	6548                	ld	a0,136(a0)
  bc:	6c6c                	ld	a1,216(s0)
  be:	2f434d6f          	jal	s10,343b2 <_prog_start-0x7ffcbc4e>
  c2:	6e69                	lui	t3,0x1a
  c4:	64756c63          	bltu	a0,t2,71c <_prog_start-0x7ffff8e4>
  c8:	0065                	c.nop	25
  ca:	6d6f682f          	.4byte	0x6d6f682f
  ce:	2f65                	addiw	t5,t5,25
  d0:	6962                	ld	s2,24(sp)
  d2:	686e                	ld	a6,216(sp)
  d4:	7565696b          	.4byte	0x7565696b
  d8:	6f64                	ld	s1,216(a4)
  da:	726f572f          	.4byte	0x726f572f
  de:	6170736b          	.4byte	0x6170736b
  e2:	502f6563          	bltu	t5,sp,5ec <_prog_start-0x7ffffa14>
  e6:	4468                	lw	a0,76(s0)
  e8:	6854                	ld	a3,144(s0)
  ea:	7365                	lui	t1,0xffff9
  ec:	7369                	lui	t1,0xffffa
  ee:	77654e2f          	.4byte	0x77654e2f
  f2:	7246                	ld	tp,112(sp)
  f4:	6d61                	lui	s10,0x18
  f6:	7765                	lui	a4,0xffff9
  f8:	2f6b726f          	jal	tp,b73ee <_prog_start-0x7ff48c12>
  fc:	632e                	ld	t1,200(sp)
  fe:	61646e6f          	jal	t3,46714 <_prog_start-0x7ffb98ec>
 102:	652d                	lui	a0,0xb
 104:	766e                	ld	a2,248(sp)
 106:	7369722f          	.4byte	0x7369722f
 10a:	742d7663          	bgeu	s10,sp,856 <_prog_start-0x7ffff7aa>
 10e:	736c6f6f          	jal	t5,c6844 <_prog_start-0x7ff397bc>
 112:	62696c2f          	.4byte	0x62696c2f
 116:	6363672f          	.4byte	0x6363672f
 11a:	7369722f          	.4byte	0x7369722f
 11e:	34367663          	bgeu	a2,gp,46a <_prog_start-0x7ffffb96>
 122:	752d                	lui	a0,0xfffeb
 124:	6b6e                	ld	s6,216(sp)
 126:	6f6e                	ld	t5,216(sp)
 128:	652d6e77          	.4byte	0x652d6e77
 12c:	666c                	ld	a1,200(a2)
 12e:	2e32312f          	.4byte	0x2e32312f
 132:	2e32                	.2byte	0x2e32
 134:	2f30                	.2byte	0x2f30
 136:	6e69                	lui	t3,0x1a
 138:	64756c63          	bltu	a0,t2,790 <_prog_start-0x7ffff870>
 13c:	0065                	c.nop	25
 13e:	6d6f682f          	.4byte	0x6d6f682f
 142:	2f65                	addiw	t5,t5,25
 144:	6962                	ld	s2,24(sp)
 146:	686e                	ld	a6,216(sp)
 148:	7565696b          	.4byte	0x7565696b
 14c:	6f64                	ld	s1,216(a4)
 14e:	726f572f          	.4byte	0x726f572f
 152:	6170736b          	.4byte	0x6170736b
 156:	502f6563          	bltu	t5,sp,660 <_prog_start-0x7ffff9a0>
 15a:	4468                	lw	a0,76(s0)
 15c:	6854                	ld	a3,144(s0)
 15e:	7365                	lui	t1,0xffff9
 160:	7369                	lui	t1,0xffffa
 162:	77654e2f          	.4byte	0x77654e2f
 166:	7246                	ld	tp,112(sp)
 168:	6d61                	lui	s10,0x18
 16a:	7765                	lui	a4,0xffff9
 16c:	2f6b726f          	jal	tp,b7462 <_prog_start-0x7ff48b9e>
 170:	632e                	ld	t1,200(sp)
 172:	61646e6f          	jal	t3,46788 <_prog_start-0x7ffb9878>
 176:	652d                	lui	a0,0xb
 178:	766e                	ld	a2,248(sp)
 17a:	7369722f          	.4byte	0x7369722f
 17e:	742d7663          	bgeu	s10,sp,8ca <_prog_start-0x7ffff736>
 182:	736c6f6f          	jal	t5,c68b8 <_prog_start-0x7ff39748>
 186:	7369722f          	.4byte	0x7369722f
 18a:	34367663          	bgeu	a2,gp,4d6 <_prog_start-0x7ffffb2a>
 18e:	752d                	lui	a0,0xfffeb
 190:	6b6e                	ld	s6,216(sp)
 192:	6f6e                	ld	t5,216(sp)
 194:	652d6e77          	.4byte	0x652d6e77
 198:	666c                	ld	a1,200(a2)
 19a:	636e692f          	.4byte	0x636e692f
 19e:	756c                	ld	a1,232(a0)
 1a0:	6564                	ld	s1,200(a0)
 1a2:	63616d2f          	.4byte	0x63616d2f
 1a6:	6968                	ld	a0,208(a0)
 1a8:	656e                	ld	a0,216(sp)
 1aa:	2f00                	.2byte	0x2f00
 1ac:	6f68                	ld	a0,216(a4)
 1ae:	656d                	lui	a0,0x1b
 1b0:	6e69622f          	.4byte	0x6e69622f
 1b4:	6b68                	ld	a0,208(a4)
 1b6:	6569                	lui	a0,0x1a
 1b8:	6475                	lui	s0,0x1d
 1ba:	6f572f6f          	jal	t5,730ae <_prog_start-0x7ff8cf52>
 1be:	6b72                	ld	s6,280(sp)
 1c0:	63617073          	csrci	0x636,2
 1c4:	2f65                	addiw	t5,t5,25
 1c6:	6850                	ld	a2,144(s0)
 1c8:	5444                	lw	s1,44(s0)
 1ca:	6568                	ld	a0,200(a0)
 1cc:	2f736973          	csrrsi	s2,0x2f7,6
 1d0:	654e                	ld	a0,208(sp)
 1d2:	61724677          	.4byte	0x61724677
 1d6:	656d                	lui	a0,0x1b
 1d8:	6b726f77          	.4byte	0x6b726f77
 1dc:	6f632e2f          	.4byte	0x6f632e2f
 1e0:	646e                	ld	s0,216(sp)
 1e2:	2d61                	addiw	s10,s10,24 # 18018 <_prog_start-0x7ffe7fe8>
 1e4:	6e65                	lui	t3,0x19
 1e6:	2f76                	.2byte	0x2f76
 1e8:	6972                	ld	s2,280(sp)
 1ea:	2d766373          	csrrsi	t1,0x2d7,12
 1ee:	6f74                	ld	a3,216(a4)
 1f0:	2f736c6f          	jal	s8,36ce6 <_prog_start-0x7ffc931a>
 1f4:	6972                	ld	s2,280(sp)
 1f6:	36766373          	csrrsi	t1,0x367,12
 1fa:	2d34                	.2byte	0x2d34
 1fc:	6e75                	lui	t3,0x1d
 1fe:	776f6e6b          	.4byte	0x776f6e6b
 202:	2d6e                	.2byte	0x2d6e
 204:	6c65                	lui	s8,0x19
 206:	2f66                	.2byte	0x2f66
 208:	6e69                	lui	t3,0x1a
 20a:	64756c63          	bltu	a0,t2,862 <_prog_start-0x7ffff79e>
 20e:	2f65                	addiw	t5,t5,25
 210:	00737973          	csrrci	s2,0x7,6
 214:	6972706b          	.4byte	0x6972706b
 218:	746e                	ld	s0,248(sp)
 21a:	2e66                	.2byte	0x2e66
 21c:	0068                	addi	a0,sp,12
 21e:	61647473          	csrrci	s0,0x616,8
 222:	6772                	ld	a4,280(sp)
 224:	682e                	ld	a6,200(sp)
 226:	5f00                	lw	s0,56(a4)
 228:	6564                	ld	s1,200(a0)
 22a:	6166                	ld	sp,88(sp)
 22c:	6c75                	lui	s8,0x1d
 22e:	5f74                	lw	a3,124(a4)
 230:	7974                	ld	a3,240(a0)
 232:	6570                	ld	a2,200(a0)
 234:	00682e73          	csrrs	t3,0x6,a6
 238:	735f 6474 6e69      	.byte	0x5f, 0x73, 0x74, 0x64, 0x69, 0x6e
 23e:	2e74                	.2byte	0x2e74
 240:	0068                	addi	a0,sp,12
 242:	6d6f682f          	.4byte	0x6d6f682f
 246:	2f65                	addiw	t5,t5,25
 248:	6962                	ld	s2,24(sp)
 24a:	686e                	ld	a6,216(sp)
 24c:	7565696b          	.4byte	0x7565696b
 250:	6f64                	ld	s1,216(a4)
 252:	7365442f          	.4byte	0x7365442f
 256:	706f746b          	.4byte	0x706f746b
 25a:	5349522f          	.4byte	0x5349522f
 25e:	2f562d43          	.4byte	0x2f562d43
 262:	6548                	ld	a0,136(a0)
 264:	6c6c                	ld	a1,216(s0)
 266:	2f434d6f          	jal	s10,3455a <_prog_start-0x7ffcbaa6>
 26a:	2f637273          	csrrci	tp,0x2f6,6
 26e:	616d                	addi	sp,sp,240
 270:	6e69                	lui	t3,0x1a
 272:	632e                	ld	t1,200(sp)
 274:	7400                	ld	s0,40(s0)
 276:	7268                	ld	a0,224(a2)
 278:	6165                	addi	sp,sp,112
 27a:	2e64                	.2byte	0x2e64
 27c:	0068                	addi	a0,sp,12

Disassembly of section .debug_info:

0000000000000000 <.debug_info>:
   0:	0025                	c.nop	9
   2:	0000                	unimp
   4:	0005                	c.nop	1
   6:	0801                	addi	a6,a6,0
   8:	0000                	unimp
   a:	0000                	unimp
   c:	0001                	nop
   e:	0000                	unimp
  10:	0000                	unimp
  12:	0000                	unimp
  14:	0080                	addi	s0,sp,64
  16:	0000                	unimp
  18:	8c00                	.2byte	0x8c00
  1a:	0001                	nop
  1c:	0000                	unimp
  1e:	3300                	.2byte	0x3300
  20:	0000                	unimp
  22:	5b00                	lw	s0,48(a4)
  24:	0000                	unimp
  26:	0100                	addi	s0,sp,128
  28:	2580                	.2byte	0x2580
  2a:	0000                	unimp
  2c:	0500                	addi	s0,sp,640
  2e:	0100                	addi	s0,sp,128
  30:	1408                	addi	a0,sp,544
  32:	0000                	unimp
  34:	0100                	addi	s0,sp,128
  36:	00f6                	slli	ra,ra,0x1d
  38:	0000                	unimp
  3a:	0088                	addi	a0,sp,64
  3c:	8000                	.2byte	0x8000
  3e:	0000                	unimp
  40:	0000                	unimp
  42:	01dc                	addi	a5,sp,196
  44:	00000067          	jr	zero # 0 <_prog_start-0x80000000>
  48:	00000033          	add	zero,zero,zero
  4c:	0000005b          	.4byte	0x5b
  50:	8001                	c.srli64	s0
  52:	00000307          	.4byte	0x307
  56:	0005                	c.nop	1
  58:	0801                	addi	a6,a6,0
  5a:	0028                	addi	a0,sp,8
  5c:	0000                	unimp
  5e:	0001370b          	.4byte	0x1370b
  62:	1d00                	addi	s0,sp,688
  64:	0064                	addi	s1,sp,12
  66:	0000                	unimp
  68:	0000                	unimp
  6a:	0000                	unimp
  6c:	0164                	addi	s1,sp,140
  6e:	8000                	.2byte	0x8000
  70:	0000                	unimp
  72:	0000                	unimp
  74:	035c                	addi	a5,sp,388
  76:	0000                	unimp
  78:	0000                	unimp
  7a:	0000                	unimp
  7c:	0288                	addi	a0,sp,320
  7e:	0000                	unimp
  80:	0000d003          	lhu	zero,0(ra)
  84:	0300                	addi	s0,sp,384
  86:	1b28                	addi	a0,sp,440
  88:	003a                	c.slli	zero,0xe
  8a:	0000                	unimp
  8c:	080c                	addi	a1,sp,16
  8e:	00a4                	addi	s1,sp,72
  90:	0000                	unimp
  92:	0000d703          	lhu	a4,0(ra)
  96:	0300                	addi	s0,sp,384
  98:	002e1863          	bne	t3,sp,a8 <_prog_start-0x7fffff58>
  9c:	0000                	unimp
  9e:	0102                	c.slli64	sp
  a0:	e106                	sd	ra,128(sp)
  a2:	0000                	unimp
  a4:	0200                	addi	s0,sp,256
  a6:	0801                	addi	a6,a6,0
  a8:	00df 0000 0202      	.byte	0xdf, 0x00, 0x00, 0x00, 0x02, 0x02
  ae:	1505                	addi	a0,a0,-31 # 1afe1 <_prog_start-0x7ffe501f>
  b0:	0001                	nop
  b2:	0200                	addi	s0,sp,256
  b4:	0702                	c.slli64	a4
  b6:	00ed                	addi	ra,ra,27
  b8:	0000                	unimp
  ba:	0000b603          	ld	a2,0(ra)
  be:	0400                	addi	s0,sp,512
  c0:	184d                	addi	a6,a6,-13
  c2:	0074                	addi	a3,sp,12
  c4:	0000                	unimp
  c6:	040d                	addi	s0,s0,3 # 1d003 <_prog_start-0x7ffe2ffd>
  c8:	6905                	lui	s2,0x1
  ca:	746e                	ld	s0,248(sp)
  cc:	0300                	addi	s0,sp,384
  ce:	0100                	addi	s0,sp,128
  d0:	0000                	unimp
  d2:	4f04                	lw	s1,24(a4)
  d4:	8719                	srai	a4,a4,0x6
  d6:	0000                	unimp
  d8:	0200                	addi	s0,sp,256
  da:	0704                	addi	s1,sp,896
  dc:	000001cf          	.4byte	0x1cf
  e0:	0802                	c.slli64	a6
  e2:	b105                	j	fffffffffffffd02 <core3+0xffffffff7ffff65a>
  e4:	0001                	nop
  e6:	0200                	addi	s0,sp,256
  e8:	0708                	addi	a0,sp,896
  ea:	01ca                	slli	gp,gp,0x12
  ec:	0000                	unimp
  ee:	0000b803          	ld	a6,0(ra)
  f2:	0500                	addi	s0,sp,640
  f4:	132c                	addi	a1,sp,424
  f6:	0068                	addi	a0,sp,12
  f8:	0000                	unimp
  fa:	00010203          	lb	tp,0(sp)
  fe:	0500                	addi	s0,sp,640
 100:	1430                	addi	a2,sp,552
 102:	0000007b          	.4byte	0x7b
 106:	a80e                	.2byte	0xa80e
 108:	0000                	unimp
 10a:	0400                	addi	s0,sp,512
 10c:	0126                	slli	sp,sp,0x9
 10e:	0000                	unimp
 110:	1301                	addi	t1,t1,-32 # ffffffffffff9fe0 <core3+0xffffffff7fff9938>
 112:	d422                	sw	s0,40(sp)
 114:	0000                	unimp
 116:	0900                	addi	s0,sp,144
 118:	00067803          	.4byte	0x67803
 11c:	0080                	addi	s0,sp,64
 11e:	0000                	unimp
 120:	0800                	addi	s0,sp,16
 122:	00b4                	addi	a3,sp,72
 124:	0000                	unimp
 126:	cf09                	beqz	a4,140 <_prog_start-0x7ffffec0>
 128:	0000                	unimp
 12a:	0a00                	addi	s0,sp,272
 12c:	00c8                	addi	a0,sp,68
 12e:	0000                	unimp
 130:	1016                	c.slli	zero,0x25
 132:	0002                	c.slli64	zero
 134:	0080                	addi	s0,sp,64
 136:	0000                	unimp
 138:	b000                	.2byte	0xb000
 13a:	0002                	c.slli64	zero
 13c:	0000                	unimp
 13e:	0000                	unimp
 140:	0100                	addi	s0,sp,128
 142:	3c9c                	.2byte	0x3c9c
 144:	0002                	c.slli64	zero
 146:	0500                	addi	s0,sp,640
 148:	6d66                	ld	s10,88(sp)
 14a:	0074                	addi	a3,sp,12
 14c:	1602                	slli	a2,a2,0x20
 14e:	3c1a                	.2byte	0x3c1a
 150:	0002                	c.slli64	zero
 152:	0300                	addi	s0,sp,384
 154:	9891                	andi	s1,s1,-28
 156:	0f7e                	slli	t5,t5,0x1f
 158:	7601                	lui	a2,0xfffe0
 15a:	006c                	addi	a1,sp,12
 15c:	1802                	slli	a6,a6,0x20
 15e:	0000400b          	.4byte	0x400b
 162:	0300                	addi	s0,sp,384
 164:	e891                	bnez	s1,178 <_prog_start-0x7ffffe88>
 166:	047e                	slli	s0,s0,0x1f
 168:	0000010b          	.4byte	0x10b
 16c:	1902                	slli	s2,s2,0x20
 16e:	00024d07          	.4byte	0x24d07
 172:	0300                	addi	s0,sp,384
 174:	af91                	j	8c8 <_prog_start-0x7ffff738>
 176:	047f                	.2byte	0x47f
 178:	00c0                	addi	s0,sp,68
 17a:	0000                	unimp
 17c:	1902                	slli	s2,s2,0x20
 17e:	4d12                	lw	s10,4(sp)
 180:	0002                	c.slli64	zero
 182:	0300                	addi	s0,sp,384
 184:	ae91                	j	4d8 <_prog_start-0x7ffffb28>
 186:	047f                	.2byte	0x47f
 188:	009c                	addi	a5,sp,64
 18a:	0000                	unimp
 18c:	1902                	slli	s2,s2,0x20
 18e:	00024d1b          	.4byte	0x24d1b
 192:	0300                	addi	s0,sp,384
 194:	ad91                	j	7e8 <_prog_start-0x7ffff818>
 196:	017f                	.2byte	0x17f
 198:	1a020063          	beqz	tp,338 <_prog_start-0x7ffffcc8>
 19c:	00024107          	.4byte	0x24107
 1a0:	0300                	addi	s0,sp,384
 1a2:	ff91                	bnez	a5,be <_prog_start-0x7fffff42>
 1a4:	067e                	slli	a2,a2,0x1f
 1a6:	0296                	slli	t0,t0,0x5
 1a8:	8000                	.2byte	0x8000
 1aa:	0000                	unimp
 1ac:	0000                	unimp
 1ae:	01ce                	slli	gp,gp,0x13
 1b0:	0000                	unimp
 1b2:	0000                	unimp
 1b4:	0000                	unimp
 1b6:	6e01                	.2byte	0x6e01
 1b8:	0200                	addi	s0,sp,256
 1ba:	1324                	addi	s1,sp,424
 1bc:	0095                	addi	ra,ra,5
 1be:	0000                	unimp
 1c0:	7fa09103          	lh	sp,2042(ra)
 1c4:	6301                	.2byte	0x6301
 1c6:	0200                	addi	s0,sp,256
 1c8:	0a26                	slli	s4,s4,0x9
 1ca:	0254                	addi	a3,sp,260
 1cc:	0000                	unimp
 1ce:	7ea89103          	lh	sp,2026(a7)
 1d2:	0002a807          	.4byte	0x2a807
 1d6:	0080                	addi	s0,sp,64
 1d8:	0000                	unimp
 1da:	2c00                	.2byte	0x2c00
 1dc:	0000                	unimp
 1de:	0000                	unimp
 1e0:	0000                	unimp
 1e2:	a400                	.2byte	0xa400
 1e4:	0001                	nop
 1e6:	0100                	addi	s0,sp,128
 1e8:	0069                	c.nop	26
 1ea:	2702                	.2byte	0x2702
 1ec:	740e                	ld	s0,224(sp)
 1ee:	0000                	unimp
 1f0:	0300                	addi	s0,sp,384
 1f2:	9c91                	subw	s1,s1,a2
 1f4:	007f                	.2byte	0x7f
 1f6:	0002e407          	.4byte	0x2e407
 1fa:	0080                	addi	s0,sp,64
 1fc:	0000                	unimp
 1fe:	3a00                	.2byte	0x3a00
 200:	0000                	unimp
 202:	0000                	unimp
 204:	0000                	unimp
 206:	c800                	sw	s0,16(s0)
 208:	0001                	nop
 20a:	0100                	addi	s0,sp,128
 20c:	0069                	c.nop	26
 20e:	2d02                	.2byte	0x2d02
 210:	0000740f          	.4byte	0x740f
 214:	0300                	addi	s0,sp,384
 216:	9891                	andi	s1,s1,-28
 218:	007f                	.2byte	0x7f
 21a:	00034c07          	.4byte	0x34c07
 21e:	0080                	addi	s0,sp,64
 220:	0000                	unimp
 222:	3000                	.2byte	0x3000
 224:	0000                	unimp
 226:	0000                	unimp
 228:	0000                	unimp
 22a:	ec00                	sd	s0,24(s0)
 22c:	0001                	nop
 22e:	0100                	addi	s0,sp,128
 230:	0069                	c.nop	26
 232:	3102                	.2byte	0x3102
 234:	740e                	ld	s0,224(sp)
 236:	0000                	unimp
 238:	0300                	addi	s0,sp,384
 23a:	9491                	srai	s1,s1,0x24
 23c:	007f                	.2byte	0x7f
 23e:	8606                	mv	a2,ra
 240:	00800003          	lb	zero,8(zero) # 8 <_prog_start-0x7ffffff8>
 244:	0000                	unimp
 246:	ae00                	.2byte	0xae00
 248:	0000                	unimp
 24a:	0000                	unimp
 24c:	0000                	unimp
 24e:	0100                	addi	s0,sp,128
 250:	006e                	c.slli	zero,0x1b
 252:	3702                	.2byte	0x3702
 254:	00009513          	slli	a0,ra,0x0
 258:	0300                	addi	s0,sp,384
 25a:	8891                	andi	s1,s1,4
 25c:	017f                	.2byte	0x17f
 25e:	0069                	c.nop	26
 260:	3802                	.2byte	0x3802
 262:	8e0a                	mv	t3,sp
 264:	0000                	unimp
 266:	0300                	addi	s0,sp,384
 268:	8091                	srli	s1,s1,0x4
 26a:	067f                	.2byte	0x67f
 26c:	03d8                	addi	a4,sp,452
 26e:	8000                	.2byte	0x8000
 270:	0000                	unimp
 272:	0000                	unimp
 274:	0048                	addi	a0,sp,4
 276:	0000                	unimp
 278:	0000                	unimp
 27a:	0000                	unimp
 27c:	6401                	.2byte	0x6401
 27e:	0200                	addi	s0,sp,256
 280:	0b41                	addi	s6,s6,16
 282:	008e                	slli	ra,ra,0x3
 284:	0000                	unimp
 286:	7ef09103          	lh	sp,2031(ra)
 28a:	0000                	unimp
 28c:	0000                	unimp
 28e:	4808                	lw	a0,16(s0)
 290:	0002                	c.slli64	zero
 292:	0200                	addi	s0,sp,256
 294:	0801                	addi	a6,a6,0
 296:	00e8                	addi	a0,sp,76
 298:	0000                	unimp
 29a:	4109                	li	sp,2
 29c:	0002                	c.slli64	zero
 29e:	0200                	addi	s0,sp,256
 2a0:	0201                	addi	tp,tp,0 # 0 <_prog_start-0x80000000>
 2a2:	0131                	addi	sp,sp,12
 2a4:	0000                	unimp
 2a6:	4110                	lw	a2,0(a0)
 2a8:	0002                	c.slli64	zero
 2aa:	6400                	ld	s0,8(s0)
 2ac:	0002                	c.slli64	zero
 2ae:	1100                	addi	s0,sp,160
 2b0:	0095                	addi	ra,ra,5
 2b2:	0000                	unimp
 2b4:	200a003f 0f000001 	.8byte	0xf000001200a003f
 2bc:	01e6                	slli	gp,gp,0x19
 2be:	8000                	.2byte	0x8000
 2c0:	0000                	unimp
 2c2:	0000                	unimp
 2c4:	002a                	c.slli	zero,0xa
 2c6:	0000                	unimp
 2c8:	0000                	unimp
 2ca:	0000                	unimp
 2cc:	9c01                	subw	s0,s0,s0
 2ce:	028e                	slli	t0,t0,0x3
 2d0:	0000                	unimp
 2d2:	7305                	lui	t1,0xfffe1
 2d4:	0200                	addi	s0,sp,256
 2d6:	023c180f          	.4byte	0x23c180f
 2da:	0000                	unimp
 2dc:	9102                	jalr	sp
 2de:	0068                	addi	a0,sp,12
 2e0:	1f12                	slli	t5,t5,0x24
 2e2:	0001                	nop
 2e4:	0200                	addi	s0,sp,256
 2e6:	1408                	addi	a0,sp,544
 2e8:	01a2                	slli	gp,gp,0x8
 2ea:	8000                	.2byte	0x8000
 2ec:	0000                	unimp
 2ee:	0000                	unimp
 2f0:	0044                	addi	s1,sp,4
 2f2:	0000                	unimp
 2f4:	0000                	unimp
 2f6:	0000                	unimp
 2f8:	9c01                	subw	s0,s0,s0
 2fa:	000002c7          	.4byte	0x2c7
 2fe:	7305                	lui	t1,0xfffe1
 300:	0200                	addi	s0,sp,256
 302:	2708                	.2byte	0x2708
 304:	023c                	addi	a5,sp,264
 306:	0000                	unimp
 308:	9102                	jalr	sp
 30a:	0158                	addi	a4,sp,132
 30c:	0a020063          	beqz	tp,3ac <_prog_start-0x7ffffc54>
 310:	00024107          	.4byte	0x24107
 314:	0200                	addi	s0,sp,256
 316:	6f91                	lui	t6,0x4
 318:	1300                	addi	s0,sp,416
 31a:	0000012b          	.4byte	0x12b
 31e:	1501                	addi	a0,a0,-32
 320:	6414                	ld	a3,8(s0)
 322:	0001                	nop
 324:	0080                	addi	s0,sp,64
 326:	0000                	unimp
 328:	3e00                	.2byte	0x3e00
 32a:	0000                	unimp
 32c:	0000                	unimp
 32e:	0000                	unimp
 330:	0100                	addi	s0,sp,128
 332:	059c                	addi	a5,sp,704
 334:	15010063          	beq	sp,a6,474 <_prog_start-0x7ffffb8c>
 338:	411f 0002 0200      	.byte	0x1f, 0x41, 0x02, 0x00, 0x00, 0x02
 33e:	5f91                	li	t6,-28
 340:	7401                	lui	s0,0xfffe0
 342:	0078                	addi	a4,sp,12
 344:	1701                	addi	a4,a4,-32 # ffffffffffff8fe0 <core3+0xffffffff7fff8938>
 346:	cf15                	beqz	a4,382 <_prog_start-0x7ffffc7e>
 348:	0000                	unimp
 34a:	0200                	addi	s0,sp,256
 34c:	6891                	lui	a7,0x4
 34e:	7201                	lui	tp,0xfffe0
 350:	0100                	addi	s0,sp,128
 352:	0a19                	addi	s4,s4,6
 354:	009c                	addi	a5,sp,64
 356:	0000                	unimp
 358:	9102                	jalr	sp
 35a:	0064                	addi	s1,sp,12
 35c:	1500                	addi	s0,sp,672
 35e:	0002                	c.slli64	zero
 360:	0500                	addi	s0,sp,640
 362:	0100                	addi	s0,sp,128
 364:	2d08                	.2byte	0x2d08
 366:	0001                	nop
 368:	0a00                	addi	s0,sp,272
 36a:	00000137          	lui	sp,0x0
 36e:	421d                	li	tp,7
 370:	0002                	c.slli64	zero
 372:	0000                	unimp
 374:	0000                	unimp
 376:	c000                	sw	s0,0(s0)
 378:	0004                	.2byte	0x4
 37a:	0080                	addi	s0,sp,64
 37c:	0000                	unimp
 37e:	7400                	ld	s0,40(s0)
 380:	0001                	nop
 382:	0000                	unimp
 384:	0000                	unimp
 386:	2200                	.2byte	0x2200
 388:	0006                	c.slli	zero,0x1
 38a:	0100                	addi	s0,sp,128
 38c:	0601                	addi	a2,a2,0 # fffffffffffe0000 <core3+0xffffffff7ffdf958>
 38e:	00e1                	addi	ra,ra,24
 390:	0000                	unimp
 392:	0101                	addi	sp,sp,0 # 0 <_prog_start-0x80000000>
 394:	df08                	sw	a0,56(a4)
 396:	0000                	unimp
 398:	0100                	addi	s0,sp,128
 39a:	0502                	c.slli64	a0
 39c:	0115                	addi	sp,sp,5
 39e:	0000                	unimp
 3a0:	0201                	addi	tp,tp,0 # fffffffffffe0000 <core3+0xffffffff7ffdf958>
 3a2:	0000ed07          	.4byte	0xed07
 3a6:	0b00                	addi	s0,sp,400
 3a8:	0504                	addi	s1,sp,640
 3aa:	6e69                	lui	t3,0x1a
 3ac:	0074                	addi	a3,sp,12
 3ae:	0005                	c.nop	1
 3b0:	0001                	nop
 3b2:	0200                	addi	s0,sp,256
 3b4:	005d194f          	.4byte	0x5d194f
 3b8:	0000                	unimp
 3ba:	0401                	addi	s0,s0,0 # fffffffffffe0000 <core3+0xffffffff7ffdf958>
 3bc:	0001cf07          	.4byte	0x1cf07
 3c0:	0100                	addi	s0,sp,128
 3c2:	0508                	addi	a0,sp,640
 3c4:	01b1                	addi	gp,gp,12
 3c6:	0000                	unimp
 3c8:	0801                	addi	a6,a6,0
 3ca:	0001ca07          	.4byte	0x1ca07
 3ce:	0500                	addi	s0,sp,640
 3d0:	0102                	c.slli64	sp
 3d2:	0000                	unimp
 3d4:	51143003          	ld	zero,1297(s0)
 3d8:	0000                	unimp
 3da:	0c00                	addi	s0,sp,528
 3dc:	0072                	c.slli	zero,0x1c
 3de:	0000                	unimp
 3e0:	0801                	addi	a6,a6,0
 3e2:	ac05                	j	612 <_prog_start-0x7ffff9ee>
 3e4:	0001                	nop
 3e6:	0100                	addi	s0,sp,128
 3e8:	0410                	addi	a2,sp,512
 3ea:	01fe                	slli	gp,gp,0x1f
 3ec:	0000                	unimp
 3ee:	9602                	jalr	a2
 3f0:	0000                	unimp
 3f2:	0100                	addi	s0,sp,128
 3f4:	0801                	addi	a6,a6,0
 3f6:	00e8                	addi	a0,sp,76
 3f8:	0000                	unimp
 3fa:	9606                	add	a2,a2,ra
 3fc:	0000                	unimp
 3fe:	0200                	addi	s0,sp,256
 400:	009d                	addi	ra,ra,7
 402:	0000                	unimp
 404:	0801                	addi	a6,a6,0
 406:	0001c507          	.4byte	0x1c507
 40a:	0300                	addi	s0,sp,384
 40c:	0126                	slli	sp,sp,0x9
 40e:	0000                	unimp
 410:	1304                	addi	s1,sp,416
 412:	c922                	sw	s0,144(sp)
 414:	0000                	unimp
 416:	0900                	addi	s0,sp,144
 418:	00068003          	lb	zero,0(a3)
 41c:	0080                	addi	s0,sp,64
 41e:	0000                	unimp
 420:	0200                	addi	s0,sp,256
 422:	007e                	c.slli	zero,0x1f
 424:	0000                	unimp
 426:	c406                	sw	ra,8(sp)
 428:	0000                	unimp
 42a:	0300                	addi	s0,sp,384
 42c:	01dc                	addi	a5,sp,196
 42e:	0000                	unimp
 430:	0c05                	addi	s8,s8,1 # 1d001 <_prog_start-0x7ffe2fff>
 432:	c41c                	sw	a5,8(s0)
 434:	0000                	unimp
 436:	0900                	addi	s0,sp,144
 438:	00068803          	lb	a6,0(a3)
 43c:	0080                	addi	s0,sp,64
 43e:	0000                	unimp
 440:	0400                	addi	s0,sp,512
 442:	01e6                	slli	gp,gp,0x19
 444:	0000                	unimp
 446:	f80d                	bnez	s0,378 <_prog_start-0x7ffffc88>
 448:	0000                	unimp
 44a:	0900                	addi	s0,sp,144
 44c:	00069003          	lh	zero,0(a3)
 450:	0080                	addi	s0,sp,64
 452:	0000                	unimp
 454:	0200                	addi	s0,sp,256
 456:	0072                	c.slli	zero,0x1c
 458:	0000                	unimp
 45a:	ec04                	sd	s1,24(s0)
 45c:	0001                	nop
 45e:	0e00                	addi	s0,sp,784
 460:	00f8                	addi	a4,sp,76
 462:	0000                	unimp
 464:	0309                	addi	t1,t1,2 # fffffffffffe1002 <core3+0xffffffff7ffe095a>
 466:	0698                	addi	a4,sp,832
 468:	8000                	.2byte	0x8000
 46a:	0000                	unimp
 46c:	0000                	unimp
 46e:	f204                	sd	s1,32(a2)
 470:	0001                	nop
 472:	0f00                	addi	s0,sp,912
 474:	00f8                	addi	a4,sp,76
 476:	0000                	unimp
 478:	0309                	addi	t1,t1,2
 47a:	06a0                	addi	s0,sp,840
 47c:	8000                	.2byte	0x8000
 47e:	0000                	unimp
 480:	0000                	unimp
 482:	f804                	sd	s1,48(s0)
 484:	0001                	nop
 486:	1000                	addi	s0,sp,32
 488:	00f8                	addi	a4,sp,76
 48a:	0000                	unimp
 48c:	0309                	addi	t1,t1,2
 48e:	06a8                	addi	a0,sp,840
 490:	8000                	.2byte	0x8000
 492:	0000                	unimp
 494:	0000                	unimp
 496:	200d                	.2byte	0x200d
 498:	0001                	nop
 49a:	0400                	addi	s0,sp,512
 49c:	0d26                	slli	s10,s10,0x9
 49e:	0000014b          	.4byte	0x14b
 4a2:	a20e                	.2byte	0xa20e
 4a4:	0000                	unimp
 4a6:	0000                	unimp
 4a8:	0001ba0f          	.4byte	0x1ba0f
 4ac:	0100                	addi	s0,sp,128
 4ae:	0516                	slli	a0,a0,0x5
 4b0:	004a                	c.slli	zero,0x12
 4b2:	0000                	unimp
 4b4:	0518                	addi	a4,sp,640
 4b6:	8000                	.2byte	0x8000
 4b8:	0000                	unimp
 4ba:	0000                	unimp
 4bc:	011c                	addi	a5,sp,128
 4be:	0000                	unimp
 4c0:	0000                	unimp
 4c2:	0000                	unimp
 4c4:	9c01                	subw	s0,s0,s0
 4c6:	01b8                	addi	a4,sp,200
 4c8:	0000                	unimp
 4ca:	00021007          	.4byte	0x21007
 4ce:	0e00                	addi	s0,sp,784
 4d0:	004a                	c.slli	zero,0x12
 4d2:	0000                	unimp
 4d4:	9102                	jalr	sp
 4d6:	075c                	addi	a5,sp,900
 4d8:	01e1                	addi	gp,gp,24
 4da:	0000                	unimp
 4dc:	b81d                	j	fffffffffffffd12 <core3+0xffffffff7ffff66a>
 4de:	0001                	nop
 4e0:	0200                	addi	s0,sp,256
 4e2:	5091                	li	ra,-28
 4e4:	00021703          	lh	a4,0(tp) # 0 <_prog_start-0x80000000>
 4e8:	0100                	addi	s0,sp,128
 4ea:	0718                	addi	a4,sp,896
 4ec:	004a                	c.slli	zero,0x12
 4ee:	0000                	unimp
 4f0:	9102                	jalr	sp
 4f2:	0864                	addi	s1,sp,28
 4f4:	052a                	slli	a0,a0,0xa
 4f6:	8000                	.2byte	0x8000
 4f8:	0000                	unimp
 4fa:	0000                	unimp
 4fc:	000c                	.2byte	0xc
 4fe:	0000                	unimp
 500:	0000                	unimp
 502:	0000                	unimp
 504:	0001bf03          	ld	t5,0(gp)
 508:	0100                	addi	s0,sp,128
 50a:	1018                	addi	a4,sp,32
 50c:	0000006b          	.4byte	0x6b
 510:	9102                	jalr	sp
 512:	0068                	addi	a0,sp,12
 514:	0200                	addi	s0,sp,256
 516:	0091                	addi	ra,ra,4
 518:	0000                	unimp
 51a:	0a10                	addi	a2,sp,272
 51c:	0002                	c.slli64	zero
 51e:	0100                	addi	s0,sp,128
 520:	0611                	addi	a2,a2,4
 522:	04c0                	addi	s0,sp,580
 524:	8000                	.2byte	0x8000
 526:	0000                	unimp
 528:	0000                	unimp
 52a:	0058                	addi	a4,sp,4
 52c:	0000                	unimp
 52e:	0000                	unimp
 530:	0000                	unimp
 532:	9c01                	subw	s0,s0,s0
 534:	c611                	beqz	a2,540 <_prog_start-0x7ffffac0>
 536:	0004                	.2byte	0x4
 538:	0080                	addi	s0,sp,64
 53a:	0000                	unimp
 53c:	2400                	.2byte	0x2400
 53e:	0000                	unimp
 540:	0000                	unimp
 542:	0000                	unimp
 544:	f900                	sd	s0,48(a0)
 546:	0001                	nop
 548:	0900                	addi	s0,sp,144
 54a:	0069                	c.nop	26
 54c:	0b12                	slli	s6,s6,0x4
 54e:	004a                	c.slli	zero,0x12
 550:	0000                	unimp
 552:	9102                	jalr	sp
 554:	006c                	addi	a1,sp,12
 556:	ea08                	sd	a0,16(a2)
 558:	0004                	.2byte	0x4
 55a:	0080                	addi	s0,sp,64
 55c:	0000                	unimp
 55e:	2400                	.2byte	0x2400
 560:	0000                	unimp
 562:	0000                	unimp
 564:	0000                	unimp
 566:	0900                	addi	s0,sp,144
 568:	0069                	c.nop	26
 56a:	004a0c13          	addi	s8,s4,4
 56e:	0000                	unimp
 570:	9102                	jalr	sp
 572:	0068                	addi	a0,sp,12
	...

Disassembly of section .debug_abbrev:

0000000000000000 <.debug_abbrev>:
   0:	1101                	addi	sp,sp,-32
   2:	1000                	addi	s0,sp,32
   4:	12011117          	auipc	sp,0x12011
   8:	1b0e030f          	.4byte	0x1b0e030f
   c:	250e                	.2byte	0x250e
   e:	130e                	slli	t1,t1,0x23
  10:	0005                	c.nop	1
  12:	0000                	unimp
  14:	1101                	addi	sp,sp,-32 # 12010fe4 <_prog_start-0x6dfef01c>
  16:	1000                	addi	s0,sp,32
  18:	12011117          	auipc	sp,0x12011
  1c:	1b0e030f          	.4byte	0x1b0e030f
  20:	250e                	.2byte	0x250e
  22:	130e                	slli	t1,t1,0x23
  24:	0005                	c.nop	1
  26:	0000                	unimp
  28:	3401                	addiw	s0,s0,-32
  2a:	0300                	addi	s0,sp,384
  2c:	3a08                	.2byte	0x3a08
  2e:	390b3b0b          	.4byte	0x390b3b0b
  32:	0213490b          	.4byte	0x213490b
  36:	0018                	.2byte	0x18
  38:	0200                	addi	s0,sp,256
  3a:	0024                	addi	s1,sp,8
  3c:	0b3e0b0b          	.4byte	0xb3e0b0b
  40:	00000e03          	lb	t3,0(zero) # 0 <_prog_start-0x80000000>
  44:	03001603          	lh	a2,48(zero) # 30 <_prog_start-0x7fffffd0>
  48:	3a0e                	.2byte	0x3a0e
  4a:	390b3b0b          	.4byte	0x390b3b0b
  4e:	0013490b          	.4byte	0x13490b
  52:	0400                	addi	s0,sp,512
  54:	0034                	addi	a3,sp,8
  56:	0b3a0e03          	lb	t3,179(s4)
  5a:	0b390b3b          	.4byte	0xb390b3b
  5e:	1349                	addi	t1,t1,-14
  60:	1802                	slli	a6,a6,0x20
  62:	0000                	unimp
  64:	0505                	addi	a0,a0,1
  66:	0300                	addi	s0,sp,384
  68:	3a08                	.2byte	0x3a08
  6a:	390b3b0b          	.4byte	0x390b3b0b
  6e:	0213490b          	.4byte	0x213490b
  72:	0018                	.2byte	0x18
  74:	0600                	addi	s0,sp,768
  76:	0111010b          	.4byte	0x111010b
  7a:	0712                	slli	a4,a4,0x4
  7c:	0000                	unimp
  7e:	11010b07          	.4byte	0x11010b07
  82:	1201                	addi	tp,tp,-32 # ffffffffffffffe0 <core3+0xffffffff7ffff938>
  84:	00130107          	.4byte	0x130107
  88:	0800                	addi	s0,sp,16
  8a:	210b000f          	.4byte	0x210b000f
  8e:	4908                	lw	a0,16(a0)
  90:	09000013          	li	zero,144
  94:	0026                	c.slli	zero,0x9
  96:	1349                	addi	t1,t1,-14
  98:	0000                	unimp
  9a:	2e0a                	.2byte	0x2e0a
  9c:	3f01                	addiw	t5,t5,-32
  9e:	0319                	addi	t1,t1,6
  a0:	3a0e                	.2byte	0x3a0e
  a2:	0221                	addi	tp,tp,8 # 8 <_prog_start-0x7ffffff8>
  a4:	21390b3b          	.4byte	0x21390b3b
  a8:	2706                	.2byte	0x2706
  aa:	1119                	addi	sp,sp,-26 # 12010ffe <_prog_start-0x6dfef002>
  ac:	1201                	addi	tp,tp,-32 # ffffffffffffffe0 <core3+0xffffffff7ffff938>
  ae:	7c184007          	.4byte	0x7c184007
  b2:	0119                	addi	sp,sp,6
  b4:	0b000013          	li	zero,176
  b8:	0111                	addi	sp,sp,4
  ba:	0e25                	addi	t3,t3,9 # 1a009 <_prog_start-0x7ffe5ff7>
  bc:	1f030b13          	addi	s6,t1,496
  c0:	01111f1b          	slliw	t5,sp,0x11
  c4:	0712                	slli	a4,a4,0x4
  c6:	1710                	addi	a2,sp,928
  c8:	0000                	unimp
  ca:	0f0c                	addi	a1,sp,912
  cc:	0b00                	addi	s0,sp,400
  ce:	000e030b          	.4byte	0xe030b
  d2:	0d00                	addi	s0,sp,656
  d4:	0024                	addi	s1,sp,8
  d6:	0b3e0b0b          	.4byte	0xb3e0b0b
  da:	00000803          	lb	a6,0(zero) # 0 <_prog_start-0x80000000>
  de:	350e                	.2byte	0x350e
  e0:	4900                	lw	s0,16(a0)
  e2:	0f000013          	li	zero,240
  e6:	0018                	.2byte	0x18
  e8:	0000                	unimp
  ea:	0110                	addi	a2,sp,128
  ec:	4901                	li	s2,0
  ee:	00130113          	addi	sp,t1,1
  f2:	1100                	addi	s0,sp,160
  f4:	0021                	c.nop	8
  f6:	1349                	addi	t1,t1,-14
  f8:	00000b2f          	.4byte	0xb2f
  fc:	2e12                	.2byte	0x2e12
  fe:	0301                	addi	t1,t1,0
 100:	3a0e                	.2byte	0x3a0e
 102:	390b3b0b          	.4byte	0x390b3b0b
 106:	1119270b          	.4byte	0x1119270b
 10a:	1201                	addi	tp,tp,-32 # ffffffffffffffe0 <core3+0xffffffff7ffff938>
 10c:	7c184007          	.4byte	0x7c184007
 110:	0119                	addi	sp,sp,6
 112:	13000013          	li	zero,304
 116:	012e                	slli	sp,sp,0xb
 118:	0b3a0e03          	lb	t3,179(s4)
 11c:	0b390b3b          	.4byte	0xb390b3b
 120:	01111927          	.4byte	0x1111927
 124:	0712                	slli	a4,a4,0x4
 126:	1840                	addi	s0,sp,52
 128:	197a                	slli	s2,s2,0x3e
 12a:	0000                	unimp
 12c:	0100                	addi	s0,sp,128
 12e:	0024                	addi	s1,sp,8
 130:	0b3e0b0b          	.4byte	0xb3e0b0b
 134:	00000e03          	lb	t3,0(zero) # 0 <_prog_start-0x80000000>
 138:	0f02                	c.slli64	t5
 13a:	0b00                	addi	s0,sp,400
 13c:	0821                	addi	a6,a6,8
 13e:	1349                	addi	t1,t1,-14
 140:	0000                	unimp
 142:	03003403          	ld	s0,48(zero) # 30 <_prog_start-0x7fffffd0>
 146:	3a0e                	.2byte	0x3a0e
 148:	390b3b0b          	.4byte	0x390b3b0b
 14c:	0213490b          	.4byte	0x213490b
 150:	0018                	.2byte	0x18
 152:	0400                	addi	s0,sp,512
 154:	0034                	addi	a3,sp,8
 156:	213a0e03          	lb	t3,531(s4)
 15a:	3b05                	addiw	s6,s6,-31
 15c:	0b21390b          	.4byte	0xb21390b
 160:	1349                	addi	t1,t1,-14
 162:	1802193f 16050000 	.8byte	0x160500001802193f
 16a:	0300                	addi	s0,sp,384
 16c:	3a0e                	.2byte	0x3a0e
 16e:	390b3b0b          	.4byte	0x390b3b0b
 172:	0013490b          	.4byte	0x13490b
 176:	0600                	addi	s0,sp,768
 178:	0026                	c.slli	zero,0x9
 17a:	1349                	addi	t1,t1,-14
 17c:	0000                	unimp
 17e:	03000507          	.4byte	0x3000507
 182:	3a0e                	.2byte	0x3a0e
 184:	0121                	addi	sp,sp,8
 186:	3916213b          	.4byte	0x3916213b
 18a:	0213490b          	.4byte	0x213490b
 18e:	0018                	.2byte	0x18
 190:	0800                	addi	s0,sp,16
 192:	0111010b          	.4byte	0x111010b
 196:	0712                	slli	a4,a4,0x4
 198:	0000                	unimp
 19a:	3409                	addiw	s0,s0,-30
 19c:	0300                	addi	s0,sp,384
 19e:	3a08                	.2byte	0x3a08
 1a0:	0121                	addi	sp,sp,8
 1a2:	0b390b3b          	.4byte	0xb390b3b
 1a6:	1349                	addi	t1,t1,-14
 1a8:	1802                	slli	a6,a6,0x20
 1aa:	0000                	unimp
 1ac:	110a                	slli	sp,sp,0x22
 1ae:	2501                	sext.w	a0,a0
 1b0:	130e                	slli	t1,t1,0x23
 1b2:	1b1f030b          	.4byte	0x1b1f030b
 1b6:	111f 1201 1007      	.byte	0x1f, 0x11, 0x01, 0x12, 0x07, 0x10
 1bc:	0b000017          	auipc	zero,0xb000
 1c0:	0024                	addi	s1,sp,8
 1c2:	0b3e0b0b          	.4byte	0xb3e0b0b
 1c6:	00000803          	lb	a6,0(zero) # 0 <_prog_start-0x80000000>
 1ca:	350c                	.2byte	0x350c
 1cc:	4900                	lw	s0,16(a0)
 1ce:	0d000013          	li	zero,208
 1d2:	012e                	slli	sp,sp,0xb
 1d4:	0e03193f 0b3b0b3a 	.8byte	0xb3b0b3a0e03193f
 1dc:	0b39                	addi	s6,s6,14
 1de:	193c1927          	.4byte	0x193c1927
 1e2:	1301                	addi	t1,t1,-32
 1e4:	0000                	unimp
 1e6:	050e                	slli	a0,a0,0x3
 1e8:	4900                	lw	s0,16(a0)
 1ea:	0f000013          	li	zero,240
 1ee:	012e                	slli	sp,sp,0xb
 1f0:	0e03193f 0b3b0b3a 	.8byte	0xb3b0b3a0e03193f
 1f8:	0b39                	addi	s6,s6,14
 1fa:	13491927          	.4byte	0x13491927
 1fe:	0111                	addi	sp,sp,4
 200:	0712                	slli	a4,a4,0x4
 202:	1840                	addi	s0,sp,52
 204:	197c                	addi	a5,sp,188
 206:	1301                	addi	t1,t1,-32
 208:	0000                	unimp
 20a:	2e10                	.2byte	0x2e10
 20c:	3f01                	addiw	t5,t5,-32
 20e:	0319                	addi	t1,t1,6
 210:	3a0e                	.2byte	0x3a0e
 212:	390b3b0b          	.4byte	0x390b3b0b
 216:	1201110b          	.4byte	0x1201110b
 21a:	7a184007          	.4byte	0x7a184007
 21e:	0019                	c.nop	6
 220:	1100                	addi	s0,sp,160
 222:	0111010b          	.4byte	0x111010b
 226:	0712                	slli	a4,a4,0x4
 228:	1301                	addi	t1,t1,-32
 22a:	0000                	unimp
	...

Disassembly of section .debug_aranges:

0000000000000000 <.debug_aranges>:
   0:	002c                	addi	a1,sp,8
   2:	0000                	unimp
   4:	0002                	c.slli64	zero
   6:	0000                	unimp
   8:	0000                	unimp
   a:	0008                	.2byte	0x8
   c:	0000                	unimp
   e:	0000                	unimp
  10:	0000                	unimp
  12:	8000                	.2byte	0x8000
  14:	0000                	unimp
  16:	0000                	unimp
  18:	0088                	addi	a0,sp,64
	...
  2e:	0000                	unimp
  30:	002c                	addi	a1,sp,8
  32:	0000                	unimp
  34:	0002                	c.slli64	zero
  36:	0029                	c.nop	10
  38:	0000                	unimp
  3a:	0008                	.2byte	0x8
  3c:	0000                	unimp
  3e:	0000                	unimp
  40:	0088                	addi	a0,sp,64
  42:	8000                	.2byte	0x8000
  44:	0000                	unimp
  46:	0000                	unimp
  48:	00dc                	addi	a5,sp,68
	...
  5e:	0000                	unimp
  60:	002c                	addi	a1,sp,8
  62:	0000                	unimp
  64:	0002                	c.slli64	zero
  66:	0052                	c.slli	zero,0x14
  68:	0000                	unimp
  6a:	0008                	.2byte	0x8
  6c:	0000                	unimp
  6e:	0000                	unimp
  70:	0164                	addi	s1,sp,140
  72:	8000                	.2byte	0x8000
  74:	0000                	unimp
  76:	0000                	unimp
  78:	035c                	addi	a5,sp,388
	...
  8e:	0000                	unimp
  90:	002c                	addi	a1,sp,8
  92:	0000                	unimp
  94:	0002                	c.slli64	zero
  96:	035d                	addi	t1,t1,23
  98:	0000                	unimp
  9a:	0008                	.2byte	0x8
  9c:	0000                	unimp
  9e:	0000                	unimp
  a0:	04c0                	addi	s0,sp,580
  a2:	8000                	.2byte	0x8000
  a4:	0000                	unimp
  a6:	0000                	unimp
  a8:	0174                	addi	a3,sp,140
	...

Disassembly of section .debug_str:

0000000000000000 <.debug_str>:
   0:	6d6f682f          	.4byte	0x6d6f682f
   4:	2f65                	addiw	t5,t5,25
   6:	6962                	ld	s2,24(sp)
   8:	686e                	ld	a6,216(sp)
   a:	7565696b          	.4byte	0x7565696b
   e:	6f64                	ld	s1,216(a4)
  10:	7365442f          	.4byte	0x7365442f
  14:	706f746b          	.4byte	0x706f746b
  18:	5349522f          	.4byte	0x5349522f
  1c:	2f562d43          	.4byte	0x2f562d43
  20:	6548                	ld	a0,136(a0)
  22:	6c6c                	ld	a1,216(s0)
  24:	2f434d6f          	jal	s10,34318 <_prog_start-0x7ffcbce8>
  28:	2f637273          	csrrci	tp,0x2f6,6
  2c:	30747263          	bgeu	s0,t2,330 <_prog_start-0x7ffffcd0>
  30:	532e                	lw	t1,232(sp)
  32:	2f00                	.2byte	0x2f00
  34:	6f68                	ld	a0,216(a4)
  36:	656d                	lui	a0,0x1b
  38:	6e69622f          	.4byte	0x6e69622f
  3c:	6b68                	ld	a0,208(a4)
  3e:	6569                	lui	a0,0x1a
  40:	6475                	lui	s0,0x1d
  42:	65442f6f          	jal	t5,42696 <_prog_start-0x7ffbd96a>
  46:	6f746b73          	csrrsi	s6,0x6f7,8
  4a:	2f70                	.2byte	0x2f70
  4c:	4952                	lw	s2,20(sp)
  4e:	562d4353          	.4byte	0x562d4353
  52:	6c65482f          	.4byte	0x6c65482f
  56:	6f6c                	ld	a1,216(a4)
  58:	434d                	li	t1,19
  5a:	4700                	lw	s0,8(a4)
  5c:	554e                	lw	a0,240(sp)
  5e:	4120                	lw	s0,64(a0)
  60:	2e322053          	.4byte	0x2e322053
  64:	2f003933          	.4byte	0x2f003933
  68:	6f68                	ld	a0,216(a4)
  6a:	656d                	lui	a0,0x1b
  6c:	6e69622f          	.4byte	0x6e69622f
  70:	6b68                	ld	a0,208(a4)
  72:	6569                	lui	a0,0x1a
  74:	6475                	lui	s0,0x1d
  76:	65442f6f          	jal	t5,426ca <_prog_start-0x7ffbd936>
  7a:	6f746b73          	csrrsi	s6,0x6f7,8
  7e:	2f70                	.2byte	0x2f70
  80:	4952                	lw	s2,20(sp)
  82:	562d4353          	.4byte	0x562d4353
  86:	6c65482f          	.4byte	0x6c65482f
  8a:	6f6c                	ld	a1,216(a4)
  8c:	434d                	li	t1,19
  8e:	6372732f          	.4byte	0x6372732f
  92:	7268742f          	.4byte	0x7268742f
  96:	6165                	addi	sp,sp,112
  98:	2e64                	.2byte	0x2e64
  9a:	73690053          	.4byte	0x73690053
  9e:	635f 6168 0072      	.byte	0x5f, 0x63, 0x68, 0x61, 0x72, 0x00
  a4:	5f5f 7562 6c69      	.byte	0x5f, 0x5f, 0x62, 0x75, 0x69, 0x6c
  aa:	6974                	ld	a3,208(a0)
  ac:	5f6e                	lw	t5,248(sp)
  ae:	6176                	ld	sp,344(sp)
  b0:	6c5f 7369 0074      	.byte	0x5f, 0x6c, 0x69, 0x73, 0x74, 0x00
  b6:	5f5f 6e69 3374      	.byte	0x5f, 0x5f, 0x69, 0x6e, 0x74, 0x33
  bc:	5f32                	lw	t5,44(sp)
  be:	0074                	addi	a3,sp,12
  c0:	7369                	lui	t1,0xffffa
  c2:	6c5f 6e6f 0067      	.byte	0x5f, 0x6c, 0x6f, 0x6e, 0x67, 0x00
  c8:	6972706b          	.4byte	0x6972706b
  cc:	746e                	ld	s0,248(sp)
  ce:	0066                	c.slli	zero,0x19
  d0:	5f5f 6e67 6375      	.byte	0x5f, 0x5f, 0x67, 0x6e, 0x75, 0x63
  d6:	765f 5f61 696c      	.byte	0x5f, 0x76, 0x61, 0x5f, 0x6c, 0x69
  dc:	75007473          	csrrci	s0,0x750,0
  e0:	736e                	ld	t1,248(sp)
  e2:	6769                	lui	a4,0x1a
  e4:	656e                	ld	a0,216(sp)
  e6:	2064                	.2byte	0x2064
  e8:	72616863          	bltu	sp,t1,818 <_prog_start-0x7ffff7e8>
  ec:	7300                	ld	s0,32(a4)
  ee:	6f68                	ld	a0,216(a4)
  f0:	7472                	ld	s0,312(sp)
  f2:	7520                	ld	s0,104(a0)
  f4:	736e                	ld	t1,248(sp)
  f6:	6769                	lui	a4,0x1a
  f8:	656e                	ld	a0,216(sp)
  fa:	2064                	.2byte	0x2064
  fc:	6e69                	lui	t3,0x1a
  fe:	0074                	addi	a3,sp,12
 100:	5f5f 6975 746e      	.byte	0x5f, 0x5f, 0x75, 0x69, 0x6e, 0x74
 106:	745f3233          	.4byte	0x745f3233
 10a:	6900                	ld	s0,16(a0)
 10c:	6f665f73          	csrrwi	t5,0x6f6,12
 110:	6d72                	ld	s10,280(sp)
 112:	7461                	lui	s0,0xffff8
 114:	7300                	ld	s0,32(a4)
 116:	6f68                	ld	a0,216(a4)
 118:	7472                	ld	s0,312(sp)
 11a:	6920                	ld	s0,80(a0)
 11c:	746e                	ld	s0,248(sp)
 11e:	5f00                	lw	s0,56(a4)
 120:	7475706b          	.4byte	0x7475706b
 124:	61750073          	.4byte	0x61750073
 128:	7472                	ld	s0,312(sp)
 12a:	6b00                	ld	s0,16(a4)
 12c:	7570                	ld	a2,232(a0)
 12e:	6374                	ld	a3,192(a4)
 130:	5f00                	lw	s0,56(a4)
 132:	6f42                	ld	t5,16(sp)
 134:	47006c6f          	jal	s8,65a4 <_prog_start-0x7fff9a5c>
 138:	554e                	lw	a0,240(sp)
 13a:	4320                	lw	s0,64(a4)
 13c:	3131                	addiw	sp,sp,-20
 13e:	3120                	.2byte	0x3120
 140:	2e32                	.2byte	0x2e32
 142:	2e32                	.2byte	0x2e32
 144:	2030                	.2byte	0x2030
 146:	6d2d                	lui	s10,0xb
 148:	646f6d63          	bltu	t5,t1,7a2 <_prog_start-0x7ffff85e>
 14c:	6c65                	lui	s8,0x19
 14e:	6d3d                	lui	s10,0xf
 150:	6465                	lui	s0,0x19
 152:	6e61                	lui	t3,0x18
 154:	2079                	.2byte	0x2079
 156:	6d2d                	lui	s10,0xb
 158:	6261                	lui	tp,0x18
 15a:	3d69                	addiw	s10,s10,-6 # affa <_prog_start-0x7fff5006>
 15c:	706c                	ld	a1,224(s0)
 15e:	3436                	.2byte	0x3436
 160:	2d20                	.2byte	0x2d20
 162:	746d                	lui	s0,0xffffb
 164:	6e75                	lui	t3,0x1d
 166:	3d65                	addiw	s10,s10,-7
 168:	6f72                	ld	t5,280(sp)
 16a:	74656b63          	bltu	a0,t1,8c0 <_prog_start-0x7ffff740>
 16e:	2d20                	.2byte	0x2d20
 170:	696d                	lui	s2,0x1b
 172:	732d6173          	csrrsi	sp,mhpmevent18h,26
 176:	6570                	ld	a2,200(a0)
 178:	2e323d63          	.4byte	0x2e323d63
 17c:	2032                	.2byte	0x2032
 17e:	6d2d                	lui	s10,0xb
 180:	7261                	lui	tp,0xffff8
 182:	723d6863          	bltu	s10,gp,8b2 <_prog_start-0x7ffff74e>
 186:	3676                	.2byte	0x3676
 188:	6934                	ld	a3,80(a0)
 18a:	616d                	addi	sp,sp,240
 18c:	672d2063          	.4byte	0x672d2063
 190:	2d20                	.2byte	0x2d20
 192:	2d20304f          	.4byte	0x2d20304f
 196:	3d647473          	csrrci	s0,0x3d6,8
 19a:	31756e67          	.4byte	0x31756e67
 19e:	2031                	.2byte	0x2031
 1a0:	662d                	lui	a2,0xb
 1a2:	6f6e                	ld	t5,216(sp)
 1a4:	632d                	lui	t1,0xb
 1a6:	6f6d6d6f          	jal	s10,d689c <_prog_start-0x7ff29764>
 1aa:	006e                	c.slli	zero,0x1b
 1ac:	6f6c                	ld	a1,216(a4)
 1ae:	676e                	ld	a4,216(sp)
 1b0:	6c20                	ld	s0,88(s0)
 1b2:	20676e6f          	jal	t3,763b8 <_prog_start-0x7ff89c48>
 1b6:	6e69                	lui	t3,0x1a
 1b8:	0074                	addi	a3,sp,12
 1ba:	616d                	addi	sp,sp,240
 1bc:	6e69                	lui	t3,0x1a
 1be:	5f00                	lw	s0,56(a4)
 1c0:	745f 706d 6c00      	.byte	0x5f, 0x74, 0x6d, 0x70, 0x00, 0x6c
 1c6:	20676e6f          	jal	t3,763cc <_prog_start-0x7ff89c34>
 1ca:	6f6c                	ld	a1,216(a4)
 1cc:	676e                	ld	a4,216(sp)
 1ce:	7520                	ld	s0,104(a0)
 1d0:	736e                	ld	t1,248(sp)
 1d2:	6769                	lui	a4,0x1a
 1d4:	656e                	ld	a0,216(sp)
 1d6:	2064                	.2byte	0x2064
 1d8:	6e69                	lui	t3,0x1a
 1da:	0074                	addi	a3,sp,12
 1dc:	736d                	lui	t1,0xffffb
 1de:	7069                	c.lui	zero,0xffffa
 1e0:	6100                	ld	s0,0(a0)
 1e2:	6772                	ld	a4,280(sp)
 1e4:	0076                	c.slli	zero,0x1d
 1e6:	65726f63          	bltu	tp,s7,844 <_prog_start-0x7ffff7bc>
 1ea:	0030                	addi	a2,sp,8
 1ec:	65726f63          	bltu	tp,s7,84a <_prog_start-0x7ffff7b6>
 1f0:	0031                	c.nop	12
 1f2:	65726f63          	bltu	tp,s7,850 <_prog_start-0x7ffff7b0>
 1f6:	0032                	c.slli	zero,0xc
 1f8:	65726f63          	bltu	tp,s7,856 <_prog_start-0x7ffff7aa>
 1fc:	6f6c0033          	.4byte	0x6f6c0033
 200:	676e                	ld	a4,216(sp)
 202:	6420                	ld	s0,72(s0)
 204:	6c62756f          	jal	a0,278ca <_prog_start-0x7ffd8736>
 208:	0065                	c.nop	25
 20a:	6564                	ld	s1,200(a0)
 20c:	616c                	ld	a1,192(a0)
 20e:	0079                	c.nop	30
 210:	6168                	ld	a0,192(a0)
 212:	7472                	ld	s0,312(sp)
 214:	6469                	lui	s0,0x1a
 216:	6300                	ld	s0,0(a4)
 218:	6965726f          	jal	tp,578ae <_prog_start-0x7ffa8752>
 21c:	0064                	addi	s1,sp,12

Disassembly of section .debug_frame:

0000000000000000 <.debug_frame>:
   0:	000c                	.2byte	0xc
   2:	0000                	unimp
   4:	ffff                	.2byte	0xffff
   6:	ffff                	.2byte	0xffff
   8:	7c010003          	lb	zero,1984(sp)
   c:	0d01                	addi	s10,s10,0 # b000 <_prog_start-0x7fff5000>
   e:	0002                	c.slli64	zero
  10:	002c                	addi	a1,sp,8
  12:	0000                	unimp
  14:	0000                	unimp
  16:	0000                	unimp
  18:	0164                	addi	s1,sp,140
  1a:	8000                	.2byte	0x8000
  1c:	0000                	unimp
  1e:	0000                	unimp
  20:	003e                	c.slli	zero,0xf
  22:	0000                	unimp
  24:	0000                	unimp
  26:	0000                	unimp
  28:	0e42                	slli	t3,t3,0x10
  2a:	4230                	lw	a2,64(a2)
  2c:	0288                	addi	a0,sp,320
  2e:	0c42                	slli	s8,s8,0x10
  30:	0008                	.2byte	0x8
  32:	c874                	sw	a3,84(s0)
  34:	020c                	addi	a1,sp,256
  36:	4230                	lw	a2,64(a2)
  38:	000e                	c.slli	zero,0x3
  3a:	0000                	unimp
  3c:	0000                	unimp
  3e:	0000                	unimp
  40:	002c                	addi	a1,sp,8
  42:	0000                	unimp
  44:	0000                	unimp
  46:	0000                	unimp
  48:	01a2                	slli	gp,gp,0x8
  4a:	8000                	.2byte	0x8000
  4c:	0000                	unimp
  4e:	0000                	unimp
  50:	0044                	addi	s1,sp,4
  52:	0000                	unimp
  54:	0000                	unimp
  56:	0000                	unimp
  58:	0e42                	slli	t3,t3,0x10
  5a:	4430                	lw	a2,72(s0)
  5c:	0281                	addi	t0,t0,0
  5e:	0488                	addi	a0,sp,576
  60:	0c42                	slli	s8,s8,0x10
  62:	0008                	.2byte	0x8
  64:	c176                	sw	t4,128(sp)
  66:	c842                	sw	a6,16(sp)
  68:	020c                	addi	a1,sp,256
  6a:	4230                	lw	a2,64(a2)
  6c:	000e                	c.slli	zero,0x3
  6e:	0000                	unimp
  70:	002c                	addi	a1,sp,8
  72:	0000                	unimp
  74:	0000                	unimp
  76:	0000                	unimp
  78:	01e6                	slli	gp,gp,0x19
  7a:	8000                	.2byte	0x8000
  7c:	0000                	unimp
  7e:	0000                	unimp
  80:	002a                	c.slli	zero,0xa
  82:	0000                	unimp
  84:	0000                	unimp
  86:	0000                	unimp
  88:	0e42                	slli	t3,t3,0x10
  8a:	4420                	lw	s0,72(s0)
  8c:	0281                	addi	t0,t0,0
  8e:	0488                	addi	a0,sp,576
  90:	0c42                	slli	s8,s8,0x10
  92:	0008                	.2byte	0x8
  94:	c15c                	sw	a5,4(a0)
  96:	c842                	sw	a6,16(sp)
  98:	020c                	addi	a1,sp,256
  9a:	4220                	lw	s0,64(a2)
  9c:	000e                	c.slli	zero,0x3
  9e:	0000                	unimp
  a0:	0034                	addi	a3,sp,8
  a2:	0000                	unimp
  a4:	0000                	unimp
  a6:	0000                	unimp
  a8:	0210                	addi	a2,sp,256
  aa:	8000                	.2byte	0x8000
  ac:	0000                	unimp
  ae:	0000                	unimp
  b0:	02b0                	addi	a2,sp,328
  b2:	0000                	unimp
  b4:	0000                	unimp
  b6:	0000                	unimp
  b8:	0e42                	slli	t3,t3,0x10
  ba:	01f0                	addi	a2,sp,204
  bc:	8144                	.2byte	0x8144
  be:	8812                	mv	a6,tp
  c0:	4214                	lw	a3,0(a2)
  c2:	080c                	addi	a1,sp,16
  c4:	0340                	addi	s0,sp,388
  c6:	02a2                	slli	t0,t0,0x8
  c8:	42c1                	li	t0,16
  ca:	0cc8                	addi	a0,sp,596
  cc:	f002                	sd	zero,32(sp)
  ce:	4201                	li	tp,0
  d0:	000e                	c.slli	zero,0x3
  d2:	0000                	unimp
  d4:	0000                	unimp
  d6:	0000                	unimp
  d8:	000c                	.2byte	0xc
  da:	0000                	unimp
  dc:	ffff                	.2byte	0xffff
  de:	ffff                	.2byte	0xffff
  e0:	7c010003          	lb	zero,1984(sp)
  e4:	0d01                	addi	s10,s10,0
  e6:	0002                	c.slli64	zero
  e8:	002c                	addi	a1,sp,8
  ea:	0000                	unimp
  ec:	00d8                	addi	a4,sp,68
  ee:	0000                	unimp
  f0:	04c0                	addi	s0,sp,580
  f2:	8000                	.2byte	0x8000
  f4:	0000                	unimp
  f6:	0000                	unimp
  f8:	0058                	addi	a4,sp,4
  fa:	0000                	unimp
  fc:	0000                	unimp
  fe:	0000                	unimp
 100:	0e42                	slli	t3,t3,0x10
 102:	4220                	lw	s0,64(a2)
 104:	0288                	addi	a0,sp,320
 106:	0c42                	slli	s8,s8,0x10
 108:	0008                	.2byte	0x8
 10a:	4e02                	lw	t3,0(sp)
 10c:	0cc8                	addi	a0,sp,596
 10e:	2002                	.2byte	0x2002
 110:	0e42                	slli	t3,t3,0x10
 112:	0000                	unimp
 114:	0000                	unimp
 116:	0000                	unimp
 118:	002c                	addi	a1,sp,8
 11a:	0000                	unimp
 11c:	00d8                	addi	a4,sp,68
 11e:	0000                	unimp
 120:	0518                	addi	a4,sp,640
 122:	8000                	.2byte	0x8000
 124:	0000                	unimp
 126:	0000                	unimp
 128:	011c                	addi	a5,sp,128
 12a:	0000                	unimp
 12c:	0000                	unimp
 12e:	0000                	unimp
 130:	0e42                	slli	t3,t3,0x10
 132:	4430                	lw	a2,72(s0)
 134:	0281                	addi	t0,t0,0
 136:	0488                	addi	a0,sp,576
 138:	0c42                	slli	s8,s8,0x10
 13a:	0008                	.2byte	0x8
 13c:	c1010e03          	lb	t3,-1008(sp)
 140:	c842                	sw	a6,16(sp)
 142:	020c                	addi	a1,sp,256
 144:	4230                	lw	a2,64(a2)
 146:	000e                	c.slli	zero,0x3
